Certificate:
    Data:
        Version: 3 (0x2)
        Serial Number:
            42:97:6c:30:8e:79:fc:7b:6a:e3:ef:9d:18:a4:74:9d:8b:5f:57:53
        Signature Algorithm: sha256WithRSAEncryption
        Issuer: C = FI, L = Tuusula, O = w1.fi, CN = Root CA
        Validity
            Not Before: May  2 19:49:48 2020 GMT
            Not After : Apr 30 19:49:48 2030 GMT
        Subject: C = FI, L = Tuusula, O = w1.fi, CN = Root CA
        Subject Public Key Info:
            Public Key Algorithm: rsaEncryption
                RSA Public-Key: (2048 bit)
                Modulus:
                    00:bc:f4:ee:44:62:7f:62:4f:a1:81:46:ba:c4:aa:
                    1e:fd:4e:d0:ed:f1:47:cb:25:5b:66:7a:86:39:91:
                    ca:b5:61:a7:7e:2f:3c:63:7d:39:b8:1a:9e:cb:6d:
                    32:32:91:de:49:49:84:da:15:be:2b:dd:c6:bc:1f:
                    dc:6e:c0:2d:77:f2:d0:7b:2c:40:19:07:60:55:b0:
                    ff:7c:51:ef:38:d1:f0:2a:da:a8:cc:ea:d6:54:a4:
                    ef:be:17:44:1a:9e:33:70:57:a4:f3:06:ac:3d:ee:
                    4b:2d:e5:46:25:2d:33:09:f6:49:a8:02:31:a4:65:
                    9b:32:0a:67:f5:02:e1:3b:47:a6:ae:e4:f6:85:eb:
                    5d:3e:02:66:dd:11:98:ac:34:72:c2:8f:25:55:4a:
                    6a:ea:e8:82:2f:bd:7f:78:31:a4:5a:d7:32:bb:64:
                    48:46:23:ef:c8:c9:e2:84:00:56:72:e8:4b:54:95:
                    62:3a:5a:11:79:ee:40:43:9e:16:2c:cc:e6:45:f4:
                    bb:82:28:c2:83:35:2c:55:36:99:59:11:b1:15:d0:
                    03:c1:a5:37:e1:1f:bb:43:c7:b4:b9:33:de:14:d7:
                    7c:99:45:0f:c1:06:fe:b6:25:10:59:b7:72:76:7f:
                    91:4b:ea:d1:b9:6a:6a:ed:dd:1b:a9:0e:a7:29:48:
                    b7:4d
                Exponent: 65537 (0x10001)
        X509v3 extensions:
            X509v3 Subject Key Identifier: 
                A4:FD:B9:39:1B:81:B3:AA:EB:88:1D:D4:81:A9:B5:11:70:CC:A7:E1
            X509v3 Authority Key Identifier: 
                keyid:A4:FD:B9:39:1B:81:B3:AA:EB:88:1D:D4:81:A9:B5:11:70:CC:A7:E1

            X509v3 Basic Constraints: 
                CA:TRUE
    Signature Algorithm: sha256WithRSAEncryption
         41:f9:c3:a3:77:11:92:55:e7:4b:4a:32:6a:31:d9:51:cf:06:
         a5:39:ea:30:98:b8:8d:4f:24:c5:34:fd:c6:98:10:59:32:7e:
         57:f5:8f:ba:67:c9:fc:44:68:b3:7c:f1:af:3a:5f:0d:8f:a1:
         fe:41:21:0e:e9:08:a3:63:49:66:34:4a:cd:ce:66:74:47:30:
         f7:dc:82:99:21:56:82:ff:2d:12:90:7d:7a:64:22:a0:ed:fa:
         62:d9:5a:d3:97:96:0c:04:a7:47:88:da:53:b6:33:15:15:f9:
         da:ee:ac:25:e9:07:02:89:bc:73:a2:c6:27:6f:1f:bd:73:b8:
         8e:f7:94:54:57:a7:8b:5b:9a:24:aa:86:d4:04:5c:8c:cb:28:
         a2:45:f9:34:f0:01:20:bb:06:e8:41:14:d2:d7:ca:e8:bf:4e:
         16:72:22:a0:0c:86:ca:73:23:09:ae:71:f1:52:0c:db:b2:8a:
         4d:94:a5:fa:15:81:5b:a2:95:62:50:a1:d6:64:fe:4c:0c:60:
         8d:9b:0f:b8:41:ac:cb:31:c2:17:6c:7b:61:13:16:9a:db:64:
         fc:5f:47:84:3d:d2:2e:db:0b:9e:b6:1e:85:04:c1:e5:c0:b2:
         6d:8f:f2:99:00:3a:1a:ab:02:cf:45:7a:26:c1:b0:1f:c6:b0:
         d0:4d:f7:52
-----BEGIN CERTIFICATE-----
MIIDYDCCAkigAwIBAgIUQpdsMI55/Htq4++dGKR0nYtfV1MwDQYJKoZIhvcNAQEL
BQAwQTELMAkGA1UEBhMCRkkxEDAOBgNVBAcMB1R1dXN1bGExDjAMBgNVBAoMBXcx
LmZpMRAwDgYDVQQDDAdSb290IENBMB4XDTIwMDUwMjE5NDk0OFoXDTMwMDQzMDE5
NDk0OFowQTELMAkGA1UEBhMCRkkxEDAOBgNVBAcMB1R1dXN1bGExDjAMBgNVBAoM
BXcxLmZpMRAwDgYDVQQDDAdSb290IENBMIIBIjANBgkqhkiG9w0BAQEFAAOCAQ8A
MIIBCgKCAQEAvPTuRGJ/Yk+hgUa6xKoe/U7Q7fFHyyVbZnqGOZHKtWGnfi88Y305
uBqey20yMpHeSUmE2hW+K93GvB/cbsAtd/LQeyxAGQdgVbD/fFHvONHwKtqozOrW
VKTvvhdEGp4zcFek8wasPe5LLeVGJS0zCfZJqAIxpGWbMgpn9QLhO0emruT2hetd
PgJm3RGYrDRywo8lVUpq6uiCL71/eDGkWtcyu2RIRiPvyMnihABWcuhLVJViOloR
ee5AQ54WLMzmRfS7gijCgzUsVTaZWRGxFdADwaU34R+7Q8e0uTPeFNd8mUUPwQb+
tiUQWbdydn+RS+rRuWpq7d0bqQ6nKUi3TQIDAQABo1AwTjAdBgNVHQ4EFgQUpP25
ORuBs6rriB3Ugam1EXDMp+EwHwYDVR0jBBgwFoAUpP25ORuBs6rriB3Ugam1EXDM
p+EwDAYDVR0TBAUwAwEB/zANBgkqhkiG9w0BAQsFAAOCAQEAQfnDo3cRklXnS0oy
ajHZUc8GpTnqMJi4jU8kxTT9xpgQWTJ+V/WPumfJ/ERos3zxrzpfDY+h/kEhDukI
o2NJZjRKzc5mdEcw99yCmSFWgv8tEpB9emQioO36Ytla05eWDASnR4jaU7YzFRX5
2u6sJekHAom8c6LGJ28fvXO4jveUVFeni1uaJKqG1ARcjMsookX5NPABILsG6EEU
0tfK6L9OFnIioAyGynMjCa5x8VIM27KKTZSl+hWBW6KVYlCh1mT+TAxgjZsPuEGs
yzHCF2x7YRMWmttk/F9HhD3SLtsLnrYehQTB5cCybY/ymQA6GqsCz0V6JsGwH8aw
0E33Ug==
-----END CERTIFICATE-----
-----BEGIN X509 CRL-----
MIIBmjCBgwIBATANBgkqhkiG9w0BAQsFADBBMQswCQYDVQQGEwJGSTEQMA4GA1UE
BwwHVHV1c3VsYTEOMAwGA1UECgwFdzEuZmkxEDAOBgNVBAMMB1Jvb3QgQ0EXDTIw
MDUwMjE1MDYwN1oXDTIwMDUwMjE2MDYwN1qgDjAMMAoGA1UdFAQDAgEHMA0GCSqG
SIb3DQEBCwUAA4IBAQBpgpd1hBcONRssjbezGJDE4WC4gSpW9ufS7OgzWXky9AIq
ea5engK/LCTn0GZVwRvuDkHn0H/dS68pFoQSnrbyS7Alz8oJf/T41vKgG8sxkfra
tvezWu7x8Kaz6QQuoxoGERZhudyNoPTUYKQpqnUjlz0088j+HqBuy6uSQsDlOXI7
dxbXU25JvJlebJEeMxd/R+8SkVmXN6OR9RO+kkm0BIjhuUc2BOToxZhPj4PS7If0
RO5S7WSgZOyg1d0yq/EMNvfm8gT5RioC0rceBlt5FIbjg+xn4VExyg73CbeMjC8O
CRblHL1o5GK7zHTyKFZ/KUdKIc9sdB/Eehcyvo+Z
-----END X509 CRL-----
