Certificate:
    Data:
        Version: 3 (0x2)
        Serial Number: 11652367451091730033 (0xa1b58675baa57e71)
    Signature Algorithm: ecdsa-with-SHA384
        Issuer: C=FI, L=Helsinki, O=w1.fi, CN=Suite B 192-bit Root CA
        Validity
            Not Before: Feb  1 09:26:24 2016 GMT
            Not After : Jan 29 09:26:24 2026 GMT
        Subject: C=FI, O=w1.fi, CN=server.w1.fi
        Subject Public Key Info:
            Public Key Algorithm: id-ecPublicKey
                Public-Key: (384 bit)
                pub: 
                    04:b8:08:23:5f:6a:d1:0e:cc:9b:30:90:b3:25:12:
                    7f:9b:3c:c5:04:61:01:18:43:06:9d:ba:22:77:84:
                    91:e4:1f:12:a7:8e:36:a6:be:7f:8e:08:7c:59:c1:
                    7d:08:d9:c8:b5:f7:2f:9c:c6:00:88:00:a1:d1:23:
                    60:bf:8a:28:ef:af:5d:99:70:e9:15:13:2b:1f:3c:
                    e0:e1:1b:31:c3:96:86:32:11:f2:dc:3d:22:7d:85:
                    39:35:64:8b:f2:45:25
                ASN1 OID: secp384r1
        X509v3 extensions:
            X509v3 Basic Constraints: critical
                CA:FALSE
            X509v3 Subject Key Identifier: 
                EA:4A:EB:D2:AD:05:FC:FD:5F:A0:CA:8A:53:3B:4D:ED:F5:6B:EF:75
            X509v3 Authority Key Identifier: 
                keyid:B8:97:C9:BE:63:12:AB:F6:A0:8C:B6:5E:FB:97:6E:10:8E:DC:48:F5

            X509v3 Subject Alternative Name: critical
                DNS:server.w1.fi
            X509v3 Extended Key Usage: critical
                TLS Web Server Authentication
            X509v3 Key Usage: 
                Digital Signature, Key Encipherment
    Signature Algorithm: ecdsa-with-SHA384
         30:65:02:30:1f:26:d2:79:e7:54:59:1a:b8:3b:92:26:05:1d:
         f7:57:43:9d:8e:01:3d:57:ca:54:e1:9b:2e:ec:3a:32:a0:0d:
         8b:7c:70:c2:27:d2:31:8b:39:5c:64:6d:81:dd:14:56:02:31:
         00:f1:ac:58:25:9a:9e:cd:1c:fa:76:9d:da:1a:6b:28:b5:43:
         15:4e:c7:aa:4d:26:4d:44:26:23:86:a8:5f:6e:f5:42:6d:26:
         37:99:1d:70:b9:8e:96:4d:69:99:a9:6f:c6
-----BEGIN CERTIFICATE-----
MIICTTCCAdOgAwIBAgIJAKG1hnW6pX5xMAoGCCqGSM49BAMDMFIxCzAJBgNVBAYT
AkZJMREwDwYDVQQHDAhIZWxzaW5raTEOMAwGA1UECgwFdzEuZmkxIDAeBgNVBAMM
F1N1aXRlIEIgMTkyLWJpdCBSb290IENBMB4XDTE2MDIwMTA5MjYyNFoXDTI2MDEy
OTA5MjYyNFowNDELMAkGA1UEBhMCRkkxDjAMBgNVBAoMBXcxLmZpMRUwEwYDVQQD
DAxzZXJ2ZXIudzEuZmkwdjAQBgcqhkjOPQIBBgUrgQQAIgNiAAS4CCNfatEOzJsw
kLMlEn+bPMUEYQEYQwaduiJ3hJHkHxKnjjamvn+OCHxZwX0I2ci19y+cxgCIAKHR
I2C/iijvr12ZcOkVEysfPODhGzHDloYyEfLcPSJ9hTk1ZIvyRSWjgZIwgY8wDAYD
VR0TAQH/BAIwADAdBgNVHQ4EFgQU6krr0q0F/P1foMqKUztN7fVr73UwHwYDVR0j
BBgwFoAUuJfJvmMSq/agjLZe+5duEI7cSPUwGgYDVR0RAQH/BBAwDoIMc2VydmVy
LncxLmZpMBYGA1UdJQEB/wQMMAoGCCsGAQUFBwMBMAsGA1UdDwQEAwIFoDAKBggq
hkjOPQQDAwNoADBlAjAfJtJ551RZGrg7kiYFHfdXQ52OAT1XylThmy7sOjKgDYt8
cMIn0jGLOVxkbYHdFFYCMQDxrFglmp7NHPp2ndoaayi1QxVOx6pNJk1EJiOGqF9u
9UJtJjeZHXC5jpZNaZmpb8Y=
-----END CERTIFICATE-----
