Certificate:
    Data:
        Version: 3 (0x2)
        Serial Number:
            ad:8c:09:e8:fb:a2:88:cb
        Signature Algorithm: sha384WithRSAEncryption
        Issuer: C=FI, L=Helsinki, O=w1.fi, CN=Suite B RSA 3k Root CA
        Validity
            Not Before: Aug 16 13:19:41 2019 GMT
            Not After : Aug 15 13:19:41 2021 GMT
        Subject: C=FI, O=w1.fi, CN=rsa3072.server.w1.fi
        Subject Public Key Info:
            Public Key Algorithm: rsaEncryption
                RSA Public-Key: (3072 bit)
                Modulus:
                    00:fe:a9:5c:59:8f:aa:80:cb:b8:4a:89:f9:3a:e8:
                    7d:24:51:b8:f2:05:c6:42:e0:68:b5:a4:f1:7e:8a:
                    31:a2:e0:0c:58:c5:80:20:cb:20:f0:0e:c1:6b:4d:
                    e1:d7:eb:cc:45:48:c9:b0:0f:8f:ef:80:db:1b:60:
                    02:af:ef:e8:0a:29:c8:04:df:70:92:e9:f1:dc:6a:
                    47:3b:5a:6f:10:e6:19:4d:93:92:d0:0a:8e:a2:4d:
                    32:9f:13:c8:34:6c:1a:4c:ec:a4:ed:89:2a:03:fb:
                    18:0d:7f:0d:de:3e:7f:d8:5d:27:a5:e1:7b:62:63:
                    71:61:45:52:f9:47:10:1d:28:c2:5d:73:fb:9d:03:
                    68:bf:6d:a4:12:12:74:c7:d0:b8:87:43:b3:67:87:
                    ce:6e:7b:58:1f:2f:32:eb:10:1f:e7:74:5c:3a:d9:
                    8c:18:c8:04:95:6b:e3:3b:25:4c:0a:db:99:f3:59:
                    b0:8e:7a:de:fa:e4:db:50:15:90:a2:30:e2:8a:c6:
                    a9:06:30:e3:d7:29:dd:26:a8:95:6e:6e:f5:c4:42:
                    d0:f7:7e:40:4d:3d:fd:ad:2f:cf:40:dd:d4:c0:6b:
                    80:a2:34:7e:05:2f:bf:32:44:0b:d4:78:6d:2a:12:
                    08:7c:84:b4:4d:51:5a:e5:84:6e:17:26:43:8c:83:
                    6b:16:f3:5f:fa:b3:9f:84:d3:2b:ab:f3:3e:2c:23:
                    65:b9:11:76:e1:85:12:ce:bb:03:38:59:82:bf:4c:
                    77:ba:3b:90:51:9c:67:76:b0:1e:74:1e:4c:c8:b1:
                    35:d6:37:29:dc:7e:c3:89:cc:86:9e:08:31:9c:70:
                    ea:5a:6c:87:92:53:eb:99:fb:33:d2:32:f1:81:31:
                    78:a0:c9:7d:6d:d9:6b:07:fa:c8:4a:67:57:2c:8c:
                    a6:ce:e5:7e:36:95:f1:09:bd:df:bf:c8:53:3d:21:
                    67:fd:93:cb:b2:7a:b5:56:61:9e:2f:ce:69:fa:fa:
                    56:0a:6b:9c:69:78:f7:4e:54:73
                Exponent: 65537 (0x10001)
        X509v3 extensions:
            X509v3 Basic Constraints: critical
                CA:FALSE
            X509v3 Subject Key Identifier: 
                82:D7:75:95:94:9E:35:F7:1F:91:6D:37:9F:26:4F:3D:9D:C1:6E:96
            X509v3 Authority Key Identifier: 
                keyid:21:F7:EF:DA:C3:34:3A:ED:CD:D5:50:C0:B3:BA:09:EE:3F:80:D7:70

            X509v3 Subject Alternative Name: critical
                DNS:rsa3072.server.w1.fi
            X509v3 Extended Key Usage: critical
                TLS Web Server Authentication
            X509v3 Key Usage: 
                Digital Signature, Key Encipherment
    Signature Algorithm: sha384WithRSAEncryption
         39:6b:3b:eb:37:00:5d:71:35:15:bd:9d:59:7b:10:f5:57:51:
         bf:e7:40:69:4d:05:f5:64:d0:42:d2:7e:74:12:bf:dc:20:13:
         f5:24:1f:84:18:5c:75:18:34:f6:b3:57:a1:32:de:13:ef:d9:
         79:6d:7a:9c:3a:3d:b0:3b:74:44:e8:9e:fc:19:6b:fa:55:74:
         c8:e1:a1:2e:a9:ce:73:4c:7f:4d:0b:fd:33:33:10:c3:21:f1:
         d1:80:31:ca:33:77:23:91:1d:11:b1:60:c9:ec:51:4c:70:31:
         3c:b6:8a:8e:e3:42:d4:e7:e1:1c:11:a7:13:99:76:3c:25:55:
         04:c2:e6:45:e5:21:39:5d:9f:e1:f2:35:84:ad:dd:3b:69:ab:
         ca:f6:88:9a:4c:cc:cf:6a:82:b8:54:5a:60:40:aa:20:05:c3:
         39:c1:46:11:8d:e4:cb:b1:7c:ee:48:cf:31:18:89:7a:5c:f7:
         f9:51:18:65:e1:25:28:cb:49:1c:f5:5e:f6:68:d9:8e:c5:01:
         cb:4f:da:7e:7a:54:f5:b4:4d:0a:e8:3f:6d:26:a1:72:c8:07:
         50:ee:bf:64:01:8f:12:19:6d:ad:c0:6d:fa:29:ff:ab:31:9c:
         fa:d4:55:46:83:a3:3b:53:cc:26:53:3f:b4:85:2f:90:76:6b:
         39:4a:06:22:72:c0:0e:45:0d:3f:80:41:03:d7:65:89:fd:01:
         3a:8c:8f:9c:af:77:93:ec:c0:fb:2e:f2:b0:db:ac:07:ac:e2:
         0f:c8:af:24:0b:57:69:9f:bb:cb:e0:d7:bc:c2:c7:6f:3f:f3:
         30:aa:42:88:7d:45:02:1e:ad:ac:da:89:8b:43:d9:80:0e:ab:
         79:c5:c4:21:97:3b:e0:99:ef:9b:50:4a:86:62:e4:af:18:ed:
         70:5b:e8:f8:87:9e:0c:c4:f0:6a:f4:1e:ce:05:f0:15:3f:68:
         02:33:1d:9d:05:e4:d8:2f:20:38:33:1a:4e:46:7e:4b:10:b2:
         6c:55:04:21:38:36
-----BEGIN CERTIFICATE-----
MIIEqzCCAxOgAwIBAgIJAK2MCej7oojLMA0GCSqGSIb3DQEBDAUAMFExCzAJBgNV
BAYTAkZJMREwDwYDVQQHDAhIZWxzaW5raTEOMAwGA1UECgwFdzEuZmkxHzAdBgNV
BAMMFlN1aXRlIEIgUlNBIDNrIFJvb3QgQ0EwHhcNMTkwODE2MTMxOTQxWhcNMjEw
ODE1MTMxOTQxWjA8MQswCQYDVQQGEwJGSTEOMAwGA1UECgwFdzEuZmkxHTAbBgNV
BAMMFHJzYTMwNzIuc2VydmVyLncxLmZpMIIBojANBgkqhkiG9w0BAQEFAAOCAY8A
MIIBigKCAYEA/qlcWY+qgMu4Son5Ouh9JFG48gXGQuBotaTxfooxouAMWMWAIMsg
8A7Ba03h1+vMRUjJsA+P74DbG2ACr+/oCinIBN9wkunx3GpHO1pvEOYZTZOS0AqO
ok0ynxPINGwaTOyk7YkqA/sYDX8N3j5/2F0npeF7YmNxYUVS+UcQHSjCXXP7nQNo
v22kEhJ0x9C4h0OzZ4fObntYHy8y6xAf53RcOtmMGMgElWvjOyVMCtuZ81mwjnre
+uTbUBWQojDiisapBjDj1yndJqiVbm71xELQ935ATT39rS/PQN3UwGuAojR+BS+/
MkQL1HhtKhIIfIS0TVFa5YRuFyZDjINrFvNf+rOfhNMrq/M+LCNluRF24YUSzrsD
OFmCv0x3ujuQUZxndrAedB5MyLE11jcp3H7DicyGnggxnHDqWmyHklPrmfsz0jLx
gTF4oMl9bdlrB/rISmdXLIymzuV+NpXxCb3fv8hTPSFn/ZPLsnq1VmGeL85p+vpW
CmucaXj3TlRzAgMBAAGjgZowgZcwDAYDVR0TAQH/BAIwADAdBgNVHQ4EFgQUgtd1
lZSeNfcfkW03nyZPPZ3BbpYwHwYDVR0jBBgwFoAUIffv2sM0Ou3N1VDAs7oJ7j+A
13AwIgYDVR0RAQH/BBgwFoIUcnNhMzA3Mi5zZXJ2ZXIudzEuZmkwFgYDVR0lAQH/
BAwwCgYIKwYBBQUHAwEwCwYDVR0PBAQDAgWgMA0GCSqGSIb3DQEBDAUAA4IBgQA5
azvrNwBdcTUVvZ1ZexD1V1G/50BpTQX1ZNBC0n50Er/cIBP1JB+EGFx1GDT2s1eh
Mt4T79l5bXqcOj2wO3RE6J78GWv6VXTI4aEuqc5zTH9NC/0zMxDDIfHRgDHKM3cj
kR0RsWDJ7FFMcDE8toqO40LU5+EcEacTmXY8JVUEwuZF5SE5XZ/h8jWErd07aavK
9oiaTMzPaoK4VFpgQKogBcM5wUYRjeTLsXzuSM8xGIl6XPf5URhl4SUoy0kc9V72
aNmOxQHLT9p+elT1tE0K6D9tJqFyyAdQ7r9kAY8SGW2twG36Kf+rMZz61FVGg6M7
U8wmUz+0hS+Qdms5SgYicsAORQ0/gEED12WJ/QE6jI+cr3eT7MD7LvKw26wHrOIP
yK8kC1dpn7vL4Ne8wsdvP/MwqkKIfUUCHq2s2omLQ9mADqt5xcQhlzvgme+bUEqG
YuSvGO1wW+j4h54MxPBq9B7OBfAVP2gCMx2dBeTYLyA4MxpORn5LELJsVQQhODY=
-----END CERTIFICATE-----
