Certificate:
    Data:
        Version: 3 (0x2)
        Serial Number:
            ad:8c:09:e8:fb:a2:88:cf
        Signature Algorithm: sha384WithRSAEncryption
        Issuer: C=FI, L=Helsinki, O=w1.fi, CN=Suite B RSA 3k Root CA
        Validity
            Not Before: Aug 19 10:56:47 2021 GMT
            Not After : Aug 19 10:56:47 2023 GMT
        Subject: C=FI, O=w1.fi, CN=user-rsa3072
        Subject Public Key Info:
            Public Key Algorithm: rsaEncryption
                RSA Public-Key: (3072 bit)
                Modulus:
                    00:92:77:67:8e:44:34:83:a8:37:f9:a9:c4:72:5c:
                    71:72:9d:35:1d:3d:8c:34:22:5c:24:f8:87:81:de:
                    de:ac:a5:93:77:c5:38:a4:82:9c:8c:06:9b:14:8b:
                    52:09:32:4c:31:c5:f8:e9:2f:64:8a:39:0a:70:9e:
                    4e:8a:9c:bc:a5:ab:78:18:52:44:75:fe:c3:00:61:
                    e7:1f:45:c0:12:72:e4:38:9e:28:9d:f6:76:60:70:
                    b3:7b:11:ca:90:98:2a:ea:26:c0:5c:ae:a9:12:cc:
                    52:11:a6:02:ac:e8:59:56:7a:a8:93:ec:fd:06:ee:
                    ac:e8:af:17:68:57:4f:39:ca:d4:48:49:8a:b4:8d:
                    3e:21:51:a3:96:e7:9f:24:e5:f5:10:e7:36:fe:8e:
                    33:b2:7d:22:66:8f:42:65:cf:0f:4f:cc:a3:24:0f:
                    e3:ba:98:89:35:a7:54:99:ec:81:47:c4:2f:b2:3b:
                    3b:b2:4c:ce:a4:a8:5a:66:10:40:8e:0d:7d:67:d8:
                    ed:1a:fd:e5:61:16:db:f5:4c:73:40:39:e3:7d:6f:
                    27:26:08:68:18:02:df:3b:5a:04:0a:08:c5:53:bb:
                    1d:00:91:6c:f6:38:2a:f0:aa:9f:2b:36:6e:95:24:
                    a7:1a:84:d8:5c:6a:f8:d5:3f:62:0f:20:4b:b7:96:
                    c6:c2:1b:f8:81:64:13:15:7a:9b:5d:98:ee:0f:d9:
                    73:37:d5:3c:9f:35:52:93:df:72:9d:89:d4:9f:20:
                    f2:13:85:12:00:7c:23:27:ce:f9:dd:e2:b7:82:09:
                    a2:fa:26:54:22:c7:fd:b4:fa:1a:d3:6d:29:8f:1b:
                    67:13:2f:d8:e2:f0:5c:75:9e:aa:79:fc:c1:b7:48:
                    5d:08:12:01:37:78:13:f9:53:37:3a:a8:21:38:e7:
                    5f:74:fb:85:53:6b:21:6b:82:c9:a5:41:2c:a3:39:
                    74:14:a0:5c:03:c8:13:17:55:a6:15:45:52:3c:b9:
                    b9:3f:fe:d9:a8:14:6f:20:c5:21
                Exponent: 65537 (0x10001)
        X509v3 extensions:
            X509v3 Basic Constraints: 
                CA:FALSE
            X509v3 Subject Key Identifier: 
                B1:4F:36:17:24:40:AD:6B:05:33:87:C4:AD:4F:4A:53:AF:F5:D6:23
            X509v3 Authority Key Identifier: 
                keyid:21:F7:EF:DA:C3:34:3A:ED:CD:D5:50:C0:B3:BA:09:EE:3F:80:D7:70

            X509v3 Subject Alternative Name: 
                email:user-rsa3072@w1.fi
            X509v3 Extended Key Usage: 
                TLS Web Client Authentication
            X509v3 Key Usage: 
                Digital Signature, Key Encipherment
    Signature Algorithm: sha384WithRSAEncryption
         46:8b:f8:99:9e:59:45:06:16:c4:09:52:4e:06:63:25:55:9f:
         e7:4b:65:41:b3:af:64:1f:ff:70:17:18:a4:0f:d7:95:97:bd:
         81:2a:f7:df:8f:c5:76:ec:f0:95:4d:c2:17:3f:54:7d:63:1a:
         82:3c:22:7b:49:55:6c:c0:9b:a2:66:fe:9c:d5:ce:ee:9c:f0:
         f3:17:32:84:09:0d:e6:a9:13:a5:af:94:95:ed:8c:85:cd:c9:
         65:ed:6a:05:3f:56:8d:07:1e:be:b4:eb:5b:92:d3:bb:90:4f:
         1c:e7:3b:bc:b0:9a:da:c9:d7:14:55:de:a7:68:d0:c7:58:7e:
         73:21:4b:9c:9e:37:38:d3:e2:77:ec:56:8e:b7:43:01:4a:7c:
         15:0e:ed:b9:e5:fe:28:b9:df:f4:4f:96:43:2d:9c:d3:7f:dc:
         46:37:8e:3a:60:47:1b:24:b6:a5:df:34:7b:b5:32:6a:1c:f0:
         37:3c:10:0a:5c:53:6b:11:11:aa:1c:4b:da:d2:b5:e0:59:ee:
         f1:0f:0c:f5:ec:49:14:24:a1:68:39:b2:85:c6:30:79:e1:ac:
         5e:08:1a:93:ba:fc:97:1c:aa:e2:1f:99:2c:ca:0b:3f:7a:ab:
         9e:35:ab:b7:78:f5:a0:d2:38:f8:ed:91:e7:9e:0c:b7:fc:ce:
         d9:bc:f6:f5:cc:6b:a2:0a:78:94:ac:16:aa:f5:b3:8b:7e:e8:
         3d:67:4d:e8:5d:fc:6a:f1:a4:0f:7d:20:f0:e7:7f:af:f4:71:
         73:e5:77:e3:6b:41:9b:25:fb:65:4a:96:60:ac:58:18:27:21:
         a3:aa:89:fb:c3:e6:e5:bf:ad:89:92:ae:9e:66:18:49:6f:16:
         01:2c:05:76:17:92:34:9a:dc:ed:d8:e0:f6:20:37:29:ef:4b:
         6c:6e:23:94:67:3d:c8:04:39:46:10:c5:bf:02:cf:1a:52:b6:
         43:35:84:aa:b1:0e:0b:d7:cb:4c:89:bc:43:f8:84:3f:39:8f:
         6e:ea:28:e6:d9:a6
-----BEGIN CERTIFICATE-----
MIIEmDCCAwCgAwIBAgIJAK2MCej7oojPMA0GCSqGSIb3DQEBDAUAMFExCzAJBgNV
BAYTAkZJMREwDwYDVQQHDAhIZWxzaW5raTEOMAwGA1UECgwFdzEuZmkxHzAdBgNV
BAMMFlN1aXRlIEIgUlNBIDNrIFJvb3QgQ0EwHhcNMjEwODE5MTA1NjQ3WhcNMjMw
ODE5MTA1NjQ3WjA0MQswCQYDVQQGEwJGSTEOMAwGA1UECgwFdzEuZmkxFTATBgNV
BAMMDHVzZXItcnNhMzA3MjCCAaIwDQYJKoZIhvcNAQEBBQADggGPADCCAYoCggGB
AJJ3Z45ENIOoN/mpxHJccXKdNR09jDQiXCT4h4He3qylk3fFOKSCnIwGmxSLUgky
TDHF+OkvZIo5CnCeToqcvKWreBhSRHX+wwBh5x9FwBJy5DieKJ32dmBws3sRypCY
KuomwFyuqRLMUhGmAqzoWVZ6qJPs/QburOivF2hXTznK1EhJirSNPiFRo5bnnyTl
9RDnNv6OM7J9ImaPQmXPD0/MoyQP47qYiTWnVJnsgUfEL7I7O7JMzqSoWmYQQI4N
fWfY7Rr95WEW2/VMc0A5431vJyYIaBgC3ztaBAoIxVO7HQCRbPY4KvCqnys2bpUk
pxqE2Fxq+NU/Yg8gS7eWxsIb+IFkExV6m12Y7g/ZczfVPJ81UpPfcp2J1J8g8hOF
EgB8IyfO+d3it4IJovomVCLH/bT6GtNtKY8bZxMv2OLwXHWeqnn8wbdIXQgSATd4
E/lTNzqoITjnX3T7hVNrIWuCyaVBLKM5dBSgXAPIExdVphVFUjy5uT/+2agUbyDF
IQIDAQABo4GPMIGMMAkGA1UdEwQCMAAwHQYDVR0OBBYEFLFPNhckQK1rBTOHxK1P
SlOv9dYjMB8GA1UdIwQYMBaAFCH379rDNDrtzdVQwLO6Ce4/gNdwMB0GA1UdEQQW
MBSBEnVzZXItcnNhMzA3MkB3MS5maTATBgNVHSUEDDAKBggrBgEFBQcDAjALBgNV
HQ8EBAMCBaAwDQYJKoZIhvcNAQEMBQADggGBAEaL+JmeWUUGFsQJUk4GYyVVn+dL
ZUGzr2Qf/3AXGKQP15WXvYEq99+PxXbs8JVNwhc/VH1jGoI8IntJVWzAm6Jm/pzV
zu6c8PMXMoQJDeapE6WvlJXtjIXNyWXtagU/Vo0HHr6061uS07uQTxznO7ywmtrJ
1xRV3qdo0MdYfnMhS5yeNzjT4nfsVo63QwFKfBUO7bnl/ii53/RPlkMtnNN/3EY3
jjpgRxsktqXfNHu1Mmoc8Dc8EApcU2sREaocS9rSteBZ7vEPDPXsSRQkoWg5soXG
MHnhrF4IGpO6/JccquIfmSzKCz96q541q7d49aDSOPjtkeeeDLf8ztm89vXMa6IK
eJSsFqr1s4t+6D1nTehd/GrxpA99IPDnf6/0cXPld+NrQZsl+2VKlmCsWBgnIaOq
ifvD5uW/rYmSrp5mGElvFgEsBXYXkjSa3O3Y4PYgNynvS2xuI5RnPcgEOUYQxb8C
zxpStkM1hKqxDgvXy0yJvEP4hD85j27qKObZpg==
-----END CERTIFICATE-----
