Certificate:
    Data:
        Version: 3 (0x2)
        Serial Number:
            ad:8c:09:e8:fb:a2:88:ce
        Signature Algorithm: sha384WithRSAEncryption
        Issuer: C=FI, L=Helsinki, O=w1.fi, CN=Suite B RSA 3k Root CA
        Validity
            Not Before: Aug 19 10:56:47 2021 GMT
            Not After : Aug 19 10:56:47 2023 GMT
        Subject: C=FI, O=w1.fi, CN=rsa3072.server.w1.fi
        Subject Public Key Info:
            Public Key Algorithm: rsaEncryption
                RSA Public-Key: (3072 bit)
                Modulus:
                    00:fe:a9:5c:59:8f:aa:80:cb:b8:4a:89:f9:3a:e8:
                    7d:24:51:b8:f2:05:c6:42:e0:68:b5:a4:f1:7e:8a:
                    31:a2:e0:0c:58:c5:80:20:cb:20:f0:0e:c1:6b:4d:
                    e1:d7:eb:cc:45:48:c9:b0:0f:8f:ef:80:db:1b:60:
                    02:af:ef:e8:0a:29:c8:04:df:70:92:e9:f1:dc:6a:
                    47:3b:5a:6f:10:e6:19:4d:93:92:d0:0a:8e:a2:4d:
                    32:9f:13:c8:34:6c:1a:4c:ec:a4:ed:89:2a:03:fb:
                    18:0d:7f:0d:de:3e:7f:d8:5d:27:a5:e1:7b:62:63:
                    71:61:45:52:f9:47:10:1d:28:c2:5d:73:fb:9d:03:
                    68:bf:6d:a4:12:12:74:c7:d0:b8:87:43:b3:67:87:
                    ce:6e:7b:58:1f:2f:32:eb:10:1f:e7:74:5c:3a:d9:
                    8c:18:c8:04:95:6b:e3:3b:25:4c:0a:db:99:f3:59:
                    b0:8e:7a:de:fa:e4:db:50:15:90:a2:30:e2:8a:c6:
                    a9:06:30:e3:d7:29:dd:26:a8:95:6e:6e:f5:c4:42:
                    d0:f7:7e:40:4d:3d:fd:ad:2f:cf:40:dd:d4:c0:6b:
                    80:a2:34:7e:05:2f:bf:32:44:0b:d4:78:6d:2a:12:
                    08:7c:84:b4:4d:51:5a:e5:84:6e:17:26:43:8c:83:
                    6b:16:f3:5f:fa:b3:9f:84:d3:2b:ab:f3:3e:2c:23:
                    65:b9:11:76:e1:85:12:ce:bb:03:38:59:82:bf:4c:
                    77:ba:3b:90:51:9c:67:76:b0:1e:74:1e:4c:c8:b1:
                    35:d6:37:29:dc:7e:c3:89:cc:86:9e:08:31:9c:70:
                    ea:5a:6c:87:92:53:eb:99:fb:33:d2:32:f1:81:31:
                    78:a0:c9:7d:6d:d9:6b:07:fa:c8:4a:67:57:2c:8c:
                    a6:ce:e5:7e:36:95:f1:09:bd:df:bf:c8:53:3d:21:
                    67:fd:93:cb:b2:7a:b5:56:61:9e:2f:ce:69:fa:fa:
                    56:0a:6b:9c:69:78:f7:4e:54:73
                Exponent: 65537 (0x10001)
        X509v3 extensions:
            X509v3 Basic Constraints: critical
                CA:FALSE
            X509v3 Subject Key Identifier: 
                82:D7:75:95:94:9E:35:F7:1F:91:6D:37:9F:26:4F:3D:9D:C1:6E:96
            X509v3 Authority Key Identifier: 
                keyid:21:F7:EF:DA:C3:34:3A:ED:CD:D5:50:C0:B3:BA:09:EE:3F:80:D7:70

            X509v3 Subject Alternative Name: critical
                DNS:rsa3072.server.w1.fi
            X509v3 Extended Key Usage: critical
                TLS Web Server Authentication
            X509v3 Key Usage: 
                Digital Signature, Key Encipherment
    Signature Algorithm: sha384WithRSAEncryption
         8c:3a:e4:8b:4f:42:ae:13:a4:c5:1e:eb:72:0d:15:c0:59:aa:
         09:e9:ee:b4:97:94:ab:1a:fc:b1:b0:48:39:90:35:45:8b:40:
         59:7b:51:d3:be:b1:ac:9c:90:9d:5c:0a:1c:34:41:d7:74:5f:
         5a:84:a2:11:f6:66:ef:ae:22:66:1f:76:fb:c3:e0:65:3f:12:
         59:6b:4b:84:6a:dd:58:ab:3d:1b:3f:d3:c8:51:84:72:7f:c1:
         92:e5:d1:79:b4:62:9d:55:e1:6f:fa:c2:30:6c:6e:0d:ae:1c:
         8b:d5:e5:02:99:c0:c2:95:ac:d5:d6:9a:2d:9d:a3:20:56:f4:
         e7:60:0a:03:08:85:98:27:df:97:48:a6:92:6e:b4:fa:a5:e0:
         46:0b:85:b7:6c:07:73:c5:59:a4:a9:db:3a:42:6c:1a:25:af:
         4a:70:39:1d:5c:d7:08:41:57:b0:d7:59:66:c2:97:a5:09:4a:
         11:1f:a5:f7:23:cb:c4:2c:d3:9e:ae:4a:86:56:e1:1a:e7:f3:
         7c:c4:5c:b1:ae:c2:ea:1f:67:5a:10:e4:02:01:bd:92:b8:0f:
         56:26:e3:27:24:6e:53:94:c0:16:fe:fa:e2:ed:4f:42:8d:dc:
         23:9b:96:2e:5b:a5:47:56:a0:0d:09:17:28:3a:f2:a4:2e:71:
         65:93:88:3c:ff:61:92:04:75:59:96:5f:40:85:e1:be:1d:59:
         ec:8d:4b:b7:82:3b:bb:a1:06:c2:c4:44:7a:de:3e:fe:68:e8:
         a3:43:a5:50:80:fd:11:1d:2c:ff:27:8d:e9:71:6d:c6:01:20:
         0d:9a:5e:6c:c6:11:83:da:cc:fd:dd:a3:59:5c:b1:64:e1:81:
         b4:6f:34:60:df:b5:bb:3d:5f:2b:f8:ef:73:d0:54:39:e4:dd:
         4b:c9:5f:87:e9:1f:fb:c4:e2:f7:f6:6e:21:70:14:3b:0e:6e:
         2d:11:e5:db:b8:18:d3:d2:9f:1b:a5:85:ae:89:f6:55:33:13:
         e6:da:b4:1b:10:bc
-----BEGIN CERTIFICATE-----
MIIEqzCCAxOgAwIBAgIJAK2MCej7oojOMA0GCSqGSIb3DQEBDAUAMFExCzAJBgNV
BAYTAkZJMREwDwYDVQQHDAhIZWxzaW5raTEOMAwGA1UECgwFdzEuZmkxHzAdBgNV
BAMMFlN1aXRlIEIgUlNBIDNrIFJvb3QgQ0EwHhcNMjEwODE5MTA1NjQ3WhcNMjMw
ODE5MTA1NjQ3WjA8MQswCQYDVQQGEwJGSTEOMAwGA1UECgwFdzEuZmkxHTAbBgNV
BAMMFHJzYTMwNzIuc2VydmVyLncxLmZpMIIBojANBgkqhkiG9w0BAQEFAAOCAY8A
MIIBigKCAYEA/qlcWY+qgMu4Son5Ouh9JFG48gXGQuBotaTxfooxouAMWMWAIMsg
8A7Ba03h1+vMRUjJsA+P74DbG2ACr+/oCinIBN9wkunx3GpHO1pvEOYZTZOS0AqO
ok0ynxPINGwaTOyk7YkqA/sYDX8N3j5/2F0npeF7YmNxYUVS+UcQHSjCXXP7nQNo
v22kEhJ0x9C4h0OzZ4fObntYHy8y6xAf53RcOtmMGMgElWvjOyVMCtuZ81mwjnre
+uTbUBWQojDiisapBjDj1yndJqiVbm71xELQ935ATT39rS/PQN3UwGuAojR+BS+/
MkQL1HhtKhIIfIS0TVFa5YRuFyZDjINrFvNf+rOfhNMrq/M+LCNluRF24YUSzrsD
OFmCv0x3ujuQUZxndrAedB5MyLE11jcp3H7DicyGnggxnHDqWmyHklPrmfsz0jLx
gTF4oMl9bdlrB/rISmdXLIymzuV+NpXxCb3fv8hTPSFn/ZPLsnq1VmGeL85p+vpW
CmucaXj3TlRzAgMBAAGjgZowgZcwDAYDVR0TAQH/BAIwADAdBgNVHQ4EFgQUgtd1
lZSeNfcfkW03nyZPPZ3BbpYwHwYDVR0jBBgwFoAUIffv2sM0Ou3N1VDAs7oJ7j+A
13AwIgYDVR0RAQH/BBgwFoIUcnNhMzA3Mi5zZXJ2ZXIudzEuZmkwFgYDVR0lAQH/
BAwwCgYIKwYBBQUHAwEwCwYDVR0PBAQDAgWgMA0GCSqGSIb3DQEBDAUAA4IBgQCM
OuSLT0KuE6TFHutyDRXAWaoJ6e60l5SrGvyxsEg5kDVFi0BZe1HTvrGsnJCdXAoc
NEHXdF9ahKIR9mbvriJmH3b7w+BlPxJZa0uEat1Yqz0bP9PIUYRyf8GS5dF5tGKd
VeFv+sIwbG4NrhyL1eUCmcDClazV1potnaMgVvTnYAoDCIWYJ9+XSKaSbrT6peBG
C4W3bAdzxVmkqds6QmwaJa9KcDkdXNcIQVew11lmwpelCUoRH6X3I8vELNOerkqG
VuEa5/N8xFyxrsLqH2daEOQCAb2SuA9WJuMnJG5TlMAW/vri7U9Cjdwjm5YuW6VH
VqANCRcoOvKkLnFlk4g8/2GSBHVZll9AheG+HVnsjUu3gju7oQbCxER63j7+aOij
Q6VQgP0RHSz/J43pcW3GASANml5sxhGD2sz93aNZXLFk4YG0bzRg37W7PV8r+O9z
0FQ55N1LyV+H6R/7xOL39m4hcBQ7Dm4tEeXbuBjT0p8bpYWuifZVMxPm2rQbELw=
-----END CERTIFICATE-----
