Certificate:
    Data:
        Version: 3 (0x2)
        Serial Number:
            ad:8c:09:e8:fb:a2:88:d0
        Signature Algorithm: sha384WithRSAEncryption
        Issuer: C=FI, L=Helsinki, O=w1.fi, CN=Suite B RSA 3k Root CA
        Validity
            Not Before: Aug 19 10:56:47 2021 GMT
            Not After : Aug 19 10:56:47 2023 GMT
        Subject: C=FI, O=w1.fi, CN=user-rsa3072-rsa2048
        Subject Public Key Info:
            Public Key Algorithm: rsaEncryption
                RSA Public-Key: (2048 bit)
                Modulus:
                    00:db:66:ff:8b:95:66:96:2e:4a:74:02:80:43:fc:
                    09:fa:b6:41:78:09:f8:e9:bf:6b:41:fd:5b:bf:cc:
                    66:d8:07:c3:0d:ec:48:97:8d:2c:4f:58:f5:b5:27:
                    07:ee:48:7c:6b:98:a2:76:e8:8b:94:11:77:68:36:
                    43:1f:2c:88:9f:d6:40:df:ec:27:16:63:ae:34:1c:
                    d5:ec:26:c5:d9:ad:77:a9:73:14:86:a3:a4:2e:67:
                    63:fd:e8:d7:dd:c7:18:67:0a:d3:af:bf:7d:20:9a:
                    67:fd:5c:c0:7c:6e:cc:d8:ab:3d:2b:8e:ae:09:0c:
                    b5:23:d9:b4:f9:fb:e2:69:e3:69:05:28:5d:ee:37:
                    1b:c7:c0:ba:83:ce:e1:30:62:1f:a9:dd:ab:9e:d4:
                    dd:8c:e4:a4:e0:1f:a5:dc:95:48:02:a0:9f:f4:a5:
                    a8:71:c8:8f:06:be:4c:4e:41:8c:7f:91:47:a8:06:
                    6d:46:c3:49:b8:af:c5:27:46:41:e2:2c:b6:6d:68:
                    66:da:c0:0c:84:be:df:61:ca:49:47:f7:19:66:36:
                    09:05:1b:27:9b:80:43:f0:55:41:b4:4e:0f:25:71:
                    e5:ba:b8:dc:72:b0:b5:49:a8:95:02:49:a8:67:2a:
                    78:f3:b4:0e:ab:69:05:e9:d9:30:ad:b0:bd:26:f0:
                    8d:33
                Exponent: 65537 (0x10001)
        X509v3 extensions:
            X509v3 Basic Constraints: 
                CA:FALSE
            X509v3 Subject Key Identifier: 
                CC:85:AA:3D:E4:37:51:3E:70:46:96:8E:00:65:C3:81:20:E0:E4:87
            X509v3 Authority Key Identifier: 
                keyid:21:F7:EF:DA:C3:34:3A:ED:CD:D5:50:C0:B3:BA:09:EE:3F:80:D7:70

            X509v3 Subject Alternative Name: 
                email:user-rsa3072-rsa2048@w1.fi
            X509v3 Extended Key Usage: 
                TLS Web Client Authentication
            X509v3 Key Usage: 
                Digital Signature, Key Encipherment
    Signature Algorithm: sha384WithRSAEncryption
         cf:0f:89:a8:6e:1e:ca:36:a7:35:90:60:66:0a:d3:ae:59:00:
         10:18:e7:33:26:96:df:36:81:0e:43:bd:e2:f9:38:ee:6f:9a:
         9f:a2:f4:a2:75:58:ef:47:83:64:1b:aa:61:99:f9:49:53:5d:
         cf:ab:e1:79:33:ad:d0:87:3e:b7:0b:8a:8e:aa:a2:0f:e1:be:
         c9:91:c1:e7:d6:0d:e0:16:3d:4c:01:62:eb:c0:d5:7c:7b:94:
         d5:6b:7b:0c:c0:d8:bd:0f:b6:b4:1c:7f:c7:77:40:e3:d1:c8:
         d8:df:36:56:01:69:c6:10:20:c0:88:57:a4:cf:4b:99:1a:ba:
         1b:4c:d3:06:1a:ce:b7:92:3d:71:47:5a:66:c0:84:a3:b3:92:
         01:62:b8:8d:c0:b4:c3:f5:07:a3:93:38:94:e8:d5:76:04:19:
         68:8b:11:5e:2e:03:64:8e:a9:ad:29:8b:45:a2:0d:4e:a3:c1:
         33:a5:5c:5e:a4:7d:9e:7f:13:96:b6:f0:18:3b:8b:03:9c:fa:
         2a:03:02:17:ef:6f:23:fe:a0:6d:b1:52:32:64:da:ac:d9:f8:
         aa:bc:d4:8b:50:a7:3c:b4:ca:b5:62:5e:ce:87:f1:85:4e:a7:
         98:85:ea:17:6e:3a:ef:5e:74:4e:13:7c:17:5b:72:92:aa:bf:
         dc:b3:03:28:79:83:89:e5:b2:f9:85:64:f2:d1:7a:cb:cb:22:
         87:1a:ce:34:c7:a3:8d:06:04:3d:ad:f8:f1:af:0b:d0:2a:06:
         26:de:8d:fc:7a:07:0a:82:98:0b:2f:40:bb:d8:36:d7:7f:df:
         ba:f3:b7:5d:5b:9b:8f:4f:48:71:b6:cf:05:e7:a3:6c:e8:37:
         3a:f1:23:73:da:00:c3:b5:99:b1:eb:24:7f:57:8d:71:f4:37:
         11:c3:61:19:3c:70:8b:9b:2a:cb:6f:5e:25:33:99:0f:d2:a4:
         68:35:b5:2a:fb:8b:d4:9f:04:3f:58:e0:f4:d5:dd:a5:ca:d8:
         55:00:50:db:51:ce
-----BEGIN CERTIFICATE-----
MIIEKDCCApCgAwIBAgIJAK2MCej7oojQMA0GCSqGSIb3DQEBDAUAMFExCzAJBgNV
BAYTAkZJMREwDwYDVQQHDAhIZWxzaW5raTEOMAwGA1UECgwFdzEuZmkxHzAdBgNV
BAMMFlN1aXRlIEIgUlNBIDNrIFJvb3QgQ0EwHhcNMjEwODE5MTA1NjQ3WhcNMjMw
ODE5MTA1NjQ3WjA8MQswCQYDVQQGEwJGSTEOMAwGA1UECgwFdzEuZmkxHTAbBgNV
BAMMFHVzZXItcnNhMzA3Mi1yc2EyMDQ4MIIBIjANBgkqhkiG9w0BAQEFAAOCAQ8A
MIIBCgKCAQEA22b/i5Vmli5KdAKAQ/wJ+rZBeAn46b9rQf1bv8xm2AfDDexIl40s
T1j1tScH7kh8a5iiduiLlBF3aDZDHyyIn9ZA3+wnFmOuNBzV7CbF2a13qXMUhqOk
Lmdj/ejX3ccYZwrTr799IJpn/VzAfG7M2Ks9K46uCQy1I9m0+fviaeNpBShd7jcb
x8C6g87hMGIfqd2rntTdjOSk4B+l3JVIAqCf9KWocciPBr5MTkGMf5FHqAZtRsNJ
uK/FJ0ZB4iy2bWhm2sAMhL7fYcpJR/cZZjYJBRsnm4BD8FVBtE4PJXHlurjccrC1
SaiVAkmoZyp487QOq2kF6dkwrbC9JvCNMwIDAQABo4GXMIGUMAkGA1UdEwQCMAAw
HQYDVR0OBBYEFMyFqj3kN1E+cEaWjgBlw4Eg4OSHMB8GA1UdIwQYMBaAFCH379rD
NDrtzdVQwLO6Ce4/gNdwMCUGA1UdEQQeMByBGnVzZXItcnNhMzA3Mi1yc2EyMDQ4
QHcxLmZpMBMGA1UdJQQMMAoGCCsGAQUFBwMCMAsGA1UdDwQEAwIFoDANBgkqhkiG
9w0BAQwFAAOCAYEAzw+JqG4eyjanNZBgZgrTrlkAEBjnMyaW3zaBDkO94vk47m+a
n6L0onVY70eDZBuqYZn5SVNdz6vheTOt0Ic+twuKjqqiD+G+yZHB59YN4BY9TAFi
68DVfHuU1Wt7DMDYvQ+2tBx/x3dA49HI2N82VgFpxhAgwIhXpM9LmRq6G0zTBhrO
t5I9cUdaZsCEo7OSAWK4jcC0w/UHo5M4lOjVdgQZaIsRXi4DZI6prSmLRaINTqPB
M6VcXqR9nn8TlrbwGDuLA5z6KgMCF+9vI/6gbbFSMmTarNn4qrzUi1CnPLTKtWJe
zofxhU6nmIXqF2467150ThN8F1tykqq/3LMDKHmDieWy+YVk8tF6y8sihxrONMej
jQYEPa348a8L0CoGJt6N/HoHCoKYCy9Au9g213/fuvO3XVubj09IcbbPBeejbOg3
OvEjc9oAw7WZseskf1eNcfQ3EcNhGTxwi5sqy29eJTOZD9KkaDW1KvuL1J8EP1jg
9NXdpcrYVQBQ21HO
-----END CERTIFICATE-----
