Certificate:
    Data:
        Version: 3 (0x2)
        Serial Number:
            d8:d3:e3:a6:cb:e3:cd:68
        Signature Algorithm: sha256WithRSAEncryption
        Issuer: C=FI, L=Tuusula, O=w1.fi, CN=Root CA
        Validity
            Not Before: May  3 14:07:41 2020 GMT
            Not After : Apr 21 14:07:41 2070 GMT
        Subject: C=FI, O=w1.fi, CN=server7.w1.fi
        Subject Public Key Info:
            Public Key Algorithm: rsaEncryption
                RSA Public-Key: (4096 bit)
                Modulus:
                    00:bf:10:c2:eb:bf:bd:0f:21:68:44:26:78:d6:90:
                    0f:de:9c:67:78:07:6f:2e:34:e1:51:a6:34:6e:1d:
                    4f:f1:1f:1a:b7:93:7a:1a:01:36:04:d4:e3:35:f0:
                    9b:52:8d:cc:2d:80:93:68:37:00:09:5f:e1:0d:8a:
                    35:74:f5:ee:1e:16:69:93:16:47:aa:93:ca:68:a7:
                    39:6d:b5:db:57:3d:45:63:89:38:9e:3e:57:39:d8:
                    bd:4c:b2:a0:ab:27:9f:49:38:c6:c5:f4:e8:8d:8b:
                    37:ba:9f:0f:1a:a0:03:74:d8:77:94:a4:dd:36:89:
                    ab:1a:5e:d6:7a:5a:cb:bf:40:04:91:6a:9c:84:f3:
                    81:37:a6:a6:49:91:fe:69:ec:80:a2:5b:b2:04:11:
                    57:b6:e4:68:22:ea:d9:1b:4c:c1:f9:d3:a2:28:b1:
                    b5:e9:b4:4e:08:25:37:64:82:14:1b:d2:dc:75:f8:
                    f4:48:de:b9:f3:35:94:2d:69:b1:3c:44:b1:f7:08:
                    1a:71:41:4c:74:c9:70:c1:7b:09:58:fd:e1:73:6d:
                    3a:70:c8:3a:b9:ee:b4:d0:e7:7d:ef:48:fa:fb:81:
                    ef:e4:fe:39:87:4d:dc:49:c0:15:ec:90:e2:0d:ea:
                    9d:a9:c0:19:40:d6:c7:73:43:6e:95:13:b2:0d:0e:
                    90:c2:bf:2b:d9:2d:9c:85:48:2a:c5:40:9e:37:67:
                    cf:e7:1b:95:c2:26:af:e0:61:a2:a6:51:07:33:15:
                    35:36:74:33:fc:74:f8:46:80:36:6d:39:df:24:b1:
                    a8:0b:05:85:be:62:1c:d0:8e:09:5a:29:0c:48:9d:
                    81:bc:c5:f7:f4:c9:9c:ab:e9:13:6e:11:59:90:ca:
                    96:af:c6:90:18:f7:3e:58:51:e4:bf:d1:1e:20:5c:
                    97:06:d1:cf:61:1b:67:f5:61:00:87:02:90:5a:ce:
                    2d:cb:35:b1:96:6a:d9:fe:47:90:03:b7:5d:c7:3d:
                    48:c0:5e:2a:b9:66:ec:36:b8:ec:dd:0f:74:32:65:
                    50:2c:b7:dc:1a:47:6b:49:33:28:f6:37:3d:d5:0d:
                    7b:30:79:86:dd:d5:d7:c3:8b:55:fa:8c:ac:58:c8:
                    af:94:1c:03:86:8b:06:9e:05:b9:b5:f8:14:18:14:
                    b6:3e:24:95:f8:9b:c4:40:64:f7:a2:83:11:ec:b7:
                    a0:1f:4c:94:ae:33:0f:be:d4:e8:e2:6b:54:bb:71:
                    f2:a6:ef:07:5f:13:35:66:36:b6:30:64:15:d2:60:
                    f0:c4:ce:8b:7d:2b:b1:88:a2:3f:58:b7:50:7d:bb:
                    94:a4:39:7b:df:8c:ec:64:c8:c5:8d:86:54:6f:f1:
                    87:93:51
                Exponent: 65537 (0x10001)
        X509v3 extensions:
            X509v3 Basic Constraints: 
                CA:FALSE
            X509v3 Subject Key Identifier: 
                30:C9:45:D8:D3:C8:8E:E6:41:B8:29:BD:48:DE:BF:CD:9A:A5:81:CE
            X509v3 Authority Key Identifier: 
                keyid:A4:FD:B9:39:1B:81:B3:AA:EB:88:1D:D4:81:A9:B5:11:70:CC:A7:E1

            Authority Information Access: 
                OCSP - URI:http://server.w1.fi:8888/

            X509v3 Extended Key Usage: 
                TLS Web Server Authentication
    Signature Algorithm: sha256WithRSAEncryption
         01:87:4b:93:49:c5:28:8b:2f:8a:45:f3:ed:a2:1e:2f:b0:d0:
         0b:d3:cc:dc:a5:bd:ff:f5:df:86:45:f3:3e:94:ff:32:16:de:
         f4:08:4a:2d:24:f3:5b:da:a8:ea:21:6d:06:c9:9c:08:1c:0e:
         dc:a1:82:b9:5f:67:e4:e1:1c:29:b3:b1:58:af:ce:6c:2f:e1:
         9b:dd:98:53:45:aa:d2:02:81:fd:a1:74:e4:75:69:07:9c:cc:
         5d:b7:1a:25:ba:52:3b:8e:5c:62:12:0c:0e:a2:38:2f:b5:d3:
         33:97:fe:d1:ec:6a:5d:15:93:67:98:d9:d0:93:03:bd:78:90:
         df:bd:4f:50:af:79:83:70:02:9e:eb:bc:6d:d7:0f:9b:65:8d:
         4e:79:79:d1:03:18:3d:47:3e:78:05:1d:f5:23:d2:f8:8f:fb:
         56:a1:ce:ee:e0:40:25:57:cc:4d:4c:f2:ca:65:90:e0:f8:7f:
         ed:4f:12:5f:1d:9c:5e:15:3c:5e:fa:a4:5f:85:3c:a1:47:a3:
         3a:db:3f:93:3a:21:f4:55:be:fb:7c:3a:3d:58:ec:91:a0:83:
         d5:b0:b9:79:08:12:1d:3b:3c:31:8d:f5:f6:da:20:d3:ca:76:
         fb:83:c9:20:36:32:e5:4a:44:25:c6:d5:4d:04:59:06:71:9a:
         cc:b9:47:e7
-----BEGIN CERTIFICATE-----
MIIEljCCA36gAwIBAgIJANjT46bL481oMA0GCSqGSIb3DQEBCwUAMEExCzAJBgNV
BAYTAkZJMRAwDgYDVQQHDAdUdXVzdWxhMQ4wDAYDVQQKDAV3MS5maTEQMA4GA1UE
AwwHUm9vdCBDQTAgFw0yMDA1MDMxNDA3NDFaGA8yMDcwMDQyMTE0MDc0MVowNTEL
MAkGA1UEBhMCRkkxDjAMBgNVBAoMBXcxLmZpMRYwFAYDVQQDDA1zZXJ2ZXI3Lncx
LmZpMIICIjANBgkqhkiG9w0BAQEFAAOCAg8AMIICCgKCAgEAvxDC67+9DyFoRCZ4
1pAP3pxneAdvLjThUaY0bh1P8R8at5N6GgE2BNTjNfCbUo3MLYCTaDcACV/hDYo1
dPXuHhZpkxZHqpPKaKc5bbXbVz1FY4k4nj5XOdi9TLKgqyefSTjGxfTojYs3up8P
GqADdNh3lKTdNomrGl7WelrLv0AEkWqchPOBN6amSZH+aeyAoluyBBFXtuRoIurZ
G0zB+dOiKLG16bROCCU3ZIIUG9Lcdfj0SN658zWULWmxPESx9wgacUFMdMlwwXsJ
WP3hc206cMg6ue600Od970j6+4Hv5P45h03cScAV7JDiDeqdqcAZQNbHc0NulROy
DQ6Qwr8r2S2chUgqxUCeN2fP5xuVwiav4GGiplEHMxU1NnQz/HT4RoA2bTnfJLGo
CwWFvmIc0I4JWikMSJ2BvMX39Mmcq+kTbhFZkMqWr8aQGPc+WFHkv9EeIFyXBtHP
YRtn9WEAhwKQWs4tyzWxlmrZ/keQA7ddxz1IwF4quWbsNrjs3Q90MmVQLLfcGkdr
STMo9jc91Q17MHmG3dXXw4tV+oysWMivlBwDhosGngW5tfgUGBS2PiSV+JvEQGT3
ooMR7LegH0yUrjMPvtTo4mtUu3Hypu8HXxM1Zja2MGQV0mDwxM6LfSuxiKI/WLdQ
fbuUpDl734zsZMjFjYZUb/GHk1ECAwEAAaOBmjCBlzAJBgNVHRMEAjAAMB0GA1Ud
DgQWBBQwyUXY08iO5kG4Kb1I3r/NmqWBzjAfBgNVHSMEGDAWgBSk/bk5G4GzquuI
HdSBqbURcMyn4TA1BggrBgEFBQcBAQQpMCcwJQYIKwYBBQUHMAGGGWh0dHA6Ly9z
ZXJ2ZXIudzEuZmk6ODg4OC8wEwYDVR0lBAwwCgYIKwYBBQUHAwEwDQYJKoZIhvcN
AQELBQADggEBAAGHS5NJxSiLL4pF8+2iHi+w0AvTzNylvf/134ZF8z6U/zIW3vQI
Si0k81vaqOohbQbJnAgcDtyhgrlfZ+ThHCmzsVivzmwv4ZvdmFNFqtICgf2hdOR1
aQeczF23GiW6UjuOXGISDA6iOC+10zOX/tHsal0Vk2eY2dCTA714kN+9T1CveYNw
Ap7rvG3XD5tljU55edEDGD1HPngFHfUj0viP+1ahzu7gQCVXzE1M8splkOD4f+1P
El8dnF4VPF76pF+FPKFHozrbP5M6IfRVvvt8Oj1Y7JGgg9WwuXkIEh07PDGN9fba
INPKdvuDySA2MuVKRCXG1U0EWQZxmsy5R+c=
-----END CERTIFICATE-----
