Certificate:
    Data:
        Version: 3 (0x2)
        Serial Number:
            d8:d3:e3:a6:cb:e3:cd:6c
        Signature Algorithm: sha256WithRSAEncryption
        Issuer: C=FI, L=Tuusula, O=w1.fi, CN=Root CA
        Validity
            Not Before: May  3 17:02:53 2021 GMT
            Not After : May  3 17:02:53 2022 GMT
        Subject: C=FI, O=w1.fi, CN=server5.w1.fi
        Subject Public Key Info:
            Public Key Algorithm: rsaEncryption
                RSA Public-Key: (2048 bit)
                Modulus:
                    00:a5:94:60:80:b8:c8:61:18:8c:02:9d:dc:cc:c4:
                    74:d1:17:b5:3b:47:9c:38:0f:3b:92:74:fb:ea:27:
                    45:44:8a:9a:2a:4d:10:25:8e:77:ce:1a:09:c9:73:
                    19:fe:dc:70:36:5e:8c:fa:8f:4c:84:bb:f7:72:e4:
                    94:4f:fc:47:2a:7d:89:92:a3:2b:5a:69:9c:c8:5a:
                    10:39:32:61:7d:0a:78:19:b4:36:eb:ac:4c:d6:af:
                    75:00:14:4e:15:2f:5f:83:ee:62:f5:ac:7b:0c:81:
                    ba:a2:08:36:7b:f0:ef:63:31:62:fb:86:a6:cf:da:
                    36:83:44:8d:75:28:b6:e4:10:f3:32:dd:8a:6c:5b:
                    ee:4f:f1:1e:53:0b:13:7c:c7:bc:f7:9e:32:80:1e:
                    63:3e:92:75:2f:c5:21:5e:f0:2a:ac:e2:34:e4:17:
                    b2:34:f7:e8:2a:12:8a:21:b8:03:e7:b6:d8:f8:32:
                    b5:fe:71:45:52:98:de:b9:3d:41:f5:90:a5:76:83:
                    c1:18:ca:50:5d:2c:52:8b:6e:4f:a7:5b:bb:d8:e3:
                    14:25:70:de:d1:c7:9d:59:cf:24:46:c7:f5:6e:6f:
                    83:66:ed:1b:1d:3e:51:04:94:67:64:df:51:22:3c:
                    c0:e1:24:0a:37:6a:dc:6a:8b:fd:45:5b:96:2d:03:
                    ac:63
                Exponent: 65537 (0x10001)
        X509v3 extensions:
            X509v3 Basic Constraints: 
                CA:FALSE
            X509v3 Subject Key Identifier: 
                32:9F:9F:30:24:73:73:CB:8D:53:3A:80:23:EB:5B:5D:4C:DD:06:01
            X509v3 Authority Key Identifier: 
                keyid:A4:FD:B9:39:1B:81:B3:AA:EB:88:1D:D4:81:A9:B5:11:70:CC:A7:E1

            Authority Information Access: 
                OCSP - URI:http://server.w1.fi:8888/

            X509v3 Extended Key Usage: 
                TLS Web Client Authentication
    Signature Algorithm: sha256WithRSAEncryption
         95:fa:5c:72:fc:2e:aa:a2:b4:f9:22:11:d2:84:33:91:f4:2c:
         27:59:b9:2d:0c:46:b1:cb:58:2e:66:bd:ed:8d:f8:ad:45:a2:
         37:7c:51:41:42:5a:ca:8a:c6:8b:3d:60:0f:6e:88:d9:44:25:
         d2:e1:5c:92:fb:38:2e:90:a1:c4:d0:81:07:59:79:58:50:23:
         f5:1d:f9:ac:11:99:51:eb:78:49:64:11:84:4c:ce:6f:6a:5d:
         51:1d:2f:99:10:e9:f2:46:33:94:5c:8c:be:0d:26:bb:27:57:
         e7:c8:f1:c3:9e:8f:10:04:2f:8a:a0:cd:39:af:01:1c:19:b0:
         f9:da:38:6f:e8:2e:df:7d:ec:05:0c:09:bc:56:01:50:15:63:
         50:a5:06:55:37:04:7e:74:a0:08:20:e3:29:c6:c3:36:87:76:
         1f:f2:98:dc:cf:58:cd:c6:17:51:46:d2:ff:3a:97:4d:b2:27:
         bb:8c:f0:13:79:53:2b:a7:cf:e5:88:7c:eb:33:b8:54:c4:2e:
         64:de:34:af:4e:74:05:b1:13:fd:ed:54:60:2c:31:b8:7f:a6:
         0d:4f:dd:9d:e3:0d:aa:ad:ba:0d:25:07:c2:0d:53:a8:f4:93:
         37:75:60:2b:75:5f:db:53:d8:44:fd:4d:c9:91:4e:6a:ca:6d:
         a5:ae:ba:74
-----BEGIN CERTIFICATE-----
MIIDlDCCAnygAwIBAgIJANjT46bL481sMA0GCSqGSIb3DQEBCwUAMEExCzAJBgNV
BAYTAkZJMRAwDgYDVQQHDAdUdXVzdWxhMQ4wDAYDVQQKDAV3MS5maTEQMA4GA1UE
AwwHUm9vdCBDQTAeFw0yMTA1MDMxNzAyNTNaFw0yMjA1MDMxNzAyNTNaMDUxCzAJ
BgNVBAYTAkZJMQ4wDAYDVQQKDAV3MS5maTEWMBQGA1UEAwwNc2VydmVyNS53MS5m
aTCCASIwDQYJKoZIhvcNAQEBBQADggEPADCCAQoCggEBAKWUYIC4yGEYjAKd3MzE
dNEXtTtHnDgPO5J0++onRUSKmipNECWOd84aCclzGf7ccDZejPqPTIS793LklE/8
Ryp9iZKjK1ppnMhaEDkyYX0KeBm0NuusTNavdQAUThUvX4PuYvWsewyBuqIINnvw
72MxYvuGps/aNoNEjXUotuQQ8zLdimxb7k/xHlMLE3zHvPeeMoAeYz6SdS/FIV7w
KqziNOQXsjT36CoSiiG4A+e22Pgytf5xRVKY3rk9QfWQpXaDwRjKUF0sUotuT6db
u9jjFCVw3tHHnVnPJEbH9W5vg2btGx0+UQSUZ2TfUSI8wOEkCjdq3GqL/UVbli0D
rGMCAwEAAaOBmjCBlzAJBgNVHRMEAjAAMB0GA1UdDgQWBBQyn58wJHNzy41TOoAj
61tdTN0GATAfBgNVHSMEGDAWgBSk/bk5G4GzquuIHdSBqbURcMyn4TA1BggrBgEF
BQcBAQQpMCcwJQYIKwYBBQUHMAGGGWh0dHA6Ly9zZXJ2ZXIudzEuZmk6ODg4OC8w
EwYDVR0lBAwwCgYIKwYBBQUHAwIwDQYJKoZIhvcNAQELBQADggEBAJX6XHL8Lqqi
tPkiEdKEM5H0LCdZuS0MRrHLWC5mve2N+K1Fojd8UUFCWsqKxos9YA9uiNlEJdLh
XJL7OC6QocTQgQdZeVhQI/Ud+awRmVHreElkEYRMzm9qXVEdL5kQ6fJGM5RcjL4N
JrsnV+fI8cOejxAEL4qgzTmvARwZsPnaOG/oLt997AUMCbxWAVAVY1ClBlU3BH50
oAgg4ynGwzaHdh/ymNzPWM3GF1FG0v86l02yJ7uM8BN5Uyunz+WIfOszuFTELmTe
NK9OdAWxE/3tVGAsMbh/pg1P3Z3jDaqtug0lB8INU6j0kzd1YCt1X9tT2ET9TcmR
TmrKbaWuunQ=
-----END CERTIFICATE-----
