Certificate:
    Data:
        Version: 3 (0x2)
        Serial Number:
            d8:d3:e3:a6:cb:e3:cd:69
        Signature Algorithm: sha256WithRSAEncryption
        Issuer: C=FI, L=Tuusula, O=w1.fi, CN=Root CA
        Validity
            Not Before: May  3 17:02:53 2021 GMT
            Not After : May  3 17:02:53 2022 GMT
        Subject: C=FI, O=w1.fi, CN=server.w1.fi
        Subject Public Key Info:
            Public Key Algorithm: rsaEncryption
                RSA Public-Key: (2048 bit)
                Modulus:
                    00:fd:0e:5e:cd:19:2c:6a:41:83:d9:2c:0e:36:cd:
                    09:b0:8f:b2:c9:8c:c8:d2:03:38:6e:54:bc:43:ee:
                    ce:f8:59:b1:e9:3f:6d:d4:5e:e3:c5:73:19:3d:0b:
                    bc:29:d7:d0:6e:75:00:35:fc:f7:65:b1:b6:0f:cb:
                    06:49:cf:a9:4e:3d:c2:64:4b:18:24:0a:70:b8:6e:
                    54:dc:90:3f:6c:18:fd:b6:88:ab:37:dc:8b:4b:b5:
                    e1:ff:ed:bb:45:05:a3:f0:aa:51:2b:f1:79:06:7f:
                    2f:cd:5d:fc:e6:8a:af:1b:b9:7b:ca:43:75:01:1d:
                    8e:2d:d9:11:13:86:fb:3c:4b:60:a4:29:49:e3:d2:
                    20:20:cb:5c:0d:9c:d2:9c:30:21:11:bc:b3:74:df:
                    64:b0:b7:67:ee:6a:df:af:3d:18:02:b7:dc:e5:54:
                    75:b5:6c:40:c4:b0:8a:1b:c6:fd:ab:1e:b9:ef:d1:
                    83:09:0d:55:ba:17:88:4e:d0:bd:cf:73:36:7c:28:
                    4b:f6:aa:48:d4:e8:fb:25:d8:1d:af:c9:68:73:ac:
                    46:ae:cb:eb:79:36:57:ad:c3:70:02:15:6d:f0:a5:
                    43:73:ab:72:04:b1:16:60:74:0e:4a:c1:8f:52:28:
                    1a:95:7e:ab:d0:04:f6:fa:11:da:1b:d1:99:a4:4f:
                    9e:ed
                Exponent: 65537 (0x10001)
        X509v3 extensions:
            X509v3 Basic Constraints: 
                CA:FALSE
            X509v3 Subject Key Identifier: 
                71:26:7A:1F:72:81:97:24:11:AA:C0:75:FA:BF:31:10:69:49:D0:E7
            X509v3 Authority Key Identifier: 
                keyid:A4:FD:B9:39:1B:81:B3:AA:EB:88:1D:D4:81:A9:B5:11:70:CC:A7:E1

            Authority Information Access: 
                OCSP - URI:http://server.w1.fi:8888/

            X509v3 Subject Alternative Name: 
                DNS:server.w1.fi
            X509v3 Extended Key Usage: 
                TLS Web Server Authentication
    Signature Algorithm: sha256WithRSAEncryption
         b1:d9:6f:63:a1:39:81:55:10:cd:05:c1:cc:14:7d:33:0a:9a:
         ef:c0:34:dc:77:76:5b:41:92:20:15:a3:c6:01:af:1f:05:7c:
         bb:37:4a:1d:1f:00:5e:4a:17:6b:7a:6a:6c:a4:fb:c7:e4:1e:
         e2:38:7f:25:d1:45:9b:eb:68:95:f9:1b:ba:9f:40:b9:5d:c7:
         6c:a0:46:6b:05:ac:f4:38:4d:64:0b:5d:e0:7b:30:31:b8:a6:
         da:d0:a5:3e:81:7b:6a:1a:b5:4f:2d:4a:f2:00:68:13:68:b8:
         83:6b:79:f9:b2:63:a7:df:52:de:8e:12:9d:87:73:ec:4b:47:
         38:a2:98:29:a8:c8:8b:8e:b1:2b:47:dd:eb:cf:6a:dd:21:02:
         00:5e:7d:8d:4c:19:aa:7d:1b:f4:9b:a6:a8:f8:f3:a7:9d:66:
         e8:54:0c:dc:7f:e9:af:a2:4c:88:8b:87:54:28:33:c5:53:87:
         b0:41:e4:2e:33:7b:aa:c0:29:82:c2:bd:54:10:29:f9:2d:a4:
         99:d1:e7:c7:57:07:66:cc:d0:2e:74:5d:98:28:0a:fe:8a:32:
         3c:62:3d:30:7c:75:0c:16:31:ce:cb:e7:41:1e:4f:3c:92:1a:
         3e:80:b1:13:78:b5:53:b2:6a:44:9f:c1:3b:92:cf:08:0e:08:
         32:10:27:1b
-----BEGIN CERTIFICATE-----
MIIDrDCCApSgAwIBAgIJANjT46bL481pMA0GCSqGSIb3DQEBCwUAMEExCzAJBgNV
BAYTAkZJMRAwDgYDVQQHDAdUdXVzdWxhMQ4wDAYDVQQKDAV3MS5maTEQMA4GA1UE
AwwHUm9vdCBDQTAeFw0yMTA1MDMxNzAyNTNaFw0yMjA1MDMxNzAyNTNaMDQxCzAJ
BgNVBAYTAkZJMQ4wDAYDVQQKDAV3MS5maTEVMBMGA1UEAwwMc2VydmVyLncxLmZp
MIIBIjANBgkqhkiG9w0BAQEFAAOCAQ8AMIIBCgKCAQEA/Q5ezRksakGD2SwONs0J
sI+yyYzI0gM4blS8Q+7O+Fmx6T9t1F7jxXMZPQu8KdfQbnUANfz3ZbG2D8sGSc+p
Tj3CZEsYJApwuG5U3JA/bBj9toirN9yLS7Xh/+27RQWj8KpRK/F5Bn8vzV385oqv
G7l7ykN1AR2OLdkRE4b7PEtgpClJ49IgIMtcDZzSnDAhEbyzdN9ksLdn7mrfrz0Y
Arfc5VR1tWxAxLCKG8b9qx6579GDCQ1VuheITtC9z3M2fChL9qpI1Oj7Jdgdr8lo
c6xGrsvreTZXrcNwAhVt8KVDc6tyBLEWYHQOSsGPUigalX6r0AT2+hHaG9GZpE+e
7QIDAQABo4GzMIGwMAkGA1UdEwQCMAAwHQYDVR0OBBYEFHEmeh9ygZckEarAdfq/
MRBpSdDnMB8GA1UdIwQYMBaAFKT9uTkbgbOq64gd1IGptRFwzKfhMDUGCCsGAQUF
BwEBBCkwJzAlBggrBgEFBQcwAYYZaHR0cDovL3NlcnZlci53MS5maTo4ODg4LzAX
BgNVHREEEDAOggxzZXJ2ZXIudzEuZmkwEwYDVR0lBAwwCgYIKwYBBQUHAwEwDQYJ
KoZIhvcNAQELBQADggEBALHZb2OhOYFVEM0FwcwUfTMKmu/ANNx3dltBkiAVo8YB
rx8FfLs3Sh0fAF5KF2t6amyk+8fkHuI4fyXRRZvraJX5G7qfQLldx2ygRmsFrPQ4
TWQLXeB7MDG4ptrQpT6Be2oatU8tSvIAaBNouINrefmyY6ffUt6OEp2Hc+xLRzii
mCmoyIuOsStH3evPat0hAgBefY1MGap9G/Sbpqj486edZuhUDNx/6a+iTIiLh1Qo
M8VTh7BB5C4ze6rAKYLCvVQQKfktpJnR58dXB2bM0C50XZgoCv6KMjxiPTB8dQwW
Mc7L50EeTzySGj6AsRN4tVOyakSfwTuSzwgOCDIQJxs=
-----END CERTIFICATE-----
