Certificate:
    Data:
        Version: 3 (0x2)
        Serial Number:
            d8:d3:e3:a6:cb:e3:cd:6b
        Signature Algorithm: sha256WithRSAEncryption
        Issuer: C=FI, L=Tuusula, O=w1.fi, CN=Root CA
        Validity
            Not Before: Jan  1 00:00:00 2020 GMT
            Not After : Jan  2 00:00:00 2020 GMT
        Subject: C=FI, O=w1.fi, CN=server4.w1.fi
        Subject Public Key Info:
            Public Key Algorithm: rsaEncryption
                RSA Public-Key: (2048 bit)
                Modulus:
                    00:b0:77:f1:3e:66:e7:fc:0b:51:f9:d8:a3:ae:2f:
                    f6:4a:75:38:3e:d4:47:7b:d6:24:32:b4:c8:d9:e0:
                    d0:a5:12:f4:89:a7:89:01:d9:54:43:ce:81:4a:bd:
                    ed:16:f3:7c:c1:67:36:8b:73:4d:21:91:e7:4b:7e:
                    74:c5:3b:15:b8:c6:46:7e:a9:a2:91:c3:f5:90:b3:
                    cf:f9:0c:eb:ba:6f:ee:b9:ab:77:3d:03:9e:9d:77:
                    07:bf:97:6a:d4:4d:b6:da:fd:36:54:25:e3:09:26:
                    89:7f:a1:11:c1:f6:dc:be:5c:57:a8:e6:45:57:3d:
                    98:14:06:72:ac:e9:c8:81:06:38:9c:cf:cd:0a:0e:
                    78:4e:9e:7b:10:c2:61:a5:43:ef:34:16:df:3c:e0:
                    a3:44:77:48:cd:be:e4:79:cb:31:39:9f:53:dd:a3:
                    0e:76:5a:6c:24:5e:56:35:9b:a2:7d:b3:9e:42:f1:
                    61:9c:e8:9e:1c:b8:9a:10:1e:32:29:21:cb:30:16:
                    e0:03:11:f9:88:f2:8f:04:a5:e6:a7:9c:73:e1:93:
                    d8:51:2d:bb:45:83:8f:b6:93:41:39:41:84:5f:4b:
                    ad:00:25:91:3d:16:0a:eb:f0:b8:92:e0:5c:75:65:
                    85:17:d2:80:e6:5e:66:a2:a4:df:c7:08:76:33:49:
                    cf:1d
                Exponent: 65537 (0x10001)
        X509v3 extensions:
            X509v3 Basic Constraints: 
                CA:FALSE
            X509v3 Subject Key Identifier: 
                21:B0:31:C6:14:D4:BD:5C:DF:70:24:51:34:9E:93:F5:18:B3:1C:A1
            X509v3 Authority Key Identifier: 
                keyid:A4:FD:B9:39:1B:81:B3:AA:EB:88:1D:D4:81:A9:B5:11:70:CC:A7:E1

            Authority Information Access: 
                OCSP - URI:http://server.w1.fi:8888/

            X509v3 Extended Key Usage: 
                TLS Web Server Authentication
    Signature Algorithm: sha256WithRSAEncryption
         55:80:01:89:67:34:7c:4b:99:71:f5:5e:49:ea:51:f4:21:a4:
         0f:3d:85:1c:ac:70:bf:a6:ef:50:85:de:df:1f:c6:93:44:3a:
         0b:4d:e9:d9:25:e4:23:4b:c6:d5:6d:bc:ad:19:bc:be:05:e7:
         5a:16:c5:6b:97:b4:8c:fc:9c:4e:52:3d:73:58:9e:df:0d:1f:
         ae:a5:95:59:ed:5b:d6:8f:02:aa:c1:76:81:66:c9:46:f6:c3:
         18:f2:a9:fb:e3:42:92:09:5f:7c:82:2e:fb:21:96:93:d1:63:
         56:1e:3f:68:d4:96:f0:a7:2d:2f:f1:f1:39:ff:2a:56:1b:59:
         4a:7a:b2:e9:11:ad:c0:66:59:ae:b5:d4:88:ce:65:d7:98:d8:
         bf:77:96:9d:50:59:1b:28:6f:e7:0c:c5:dc:99:55:2e:62:11:
         19:f2:bc:22:f9:35:91:7b:c5:ea:59:48:be:b1:90:a2:b6:5c:
         f4:da:3a:48:98:7a:9a:74:55:f3:85:bb:ab:31:8b:d1:75:68:
         f0:c3:dd:f1:ba:42:c7:4b:43:18:77:77:32:c1:80:61:22:48:
         39:39:5c:ad:c0:b0:3a:73:5f:43:89:8e:32:40:3d:48:c7:dd:
         20:d3:ba:15:b4:ac:0a:b4:86:0e:34:53:21:e5:91:c8:8e:56:
         6e:9f:ce:62
-----BEGIN CERTIFICATE-----
MIIDlDCCAnygAwIBAgIJANjT46bL481rMA0GCSqGSIb3DQEBCwUAMEExCzAJBgNV
BAYTAkZJMRAwDgYDVQQHDAdUdXVzdWxhMQ4wDAYDVQQKDAV3MS5maTEQMA4GA1UE
AwwHUm9vdCBDQTAeFw0yMDAxMDEwMDAwMDBaFw0yMDAxMDIwMDAwMDBaMDUxCzAJ
BgNVBAYTAkZJMQ4wDAYDVQQKDAV3MS5maTEWMBQGA1UEAwwNc2VydmVyNC53MS5m
aTCCASIwDQYJKoZIhvcNAQEBBQADggEPADCCAQoCggEBALB38T5m5/wLUfnYo64v
9kp1OD7UR3vWJDK0yNng0KUS9ImniQHZVEPOgUq97RbzfMFnNotzTSGR50t+dMU7
FbjGRn6popHD9ZCzz/kM67pv7rmrdz0Dnp13B7+XatRNttr9NlQl4wkmiX+hEcH2
3L5cV6jmRVc9mBQGcqzpyIEGOJzPzQoOeE6eexDCYaVD7zQW3zzgo0R3SM2+5HnL
MTmfU92jDnZabCReVjWbon2znkLxYZzonhy4mhAeMikhyzAW4AMR+YjyjwSl5qec
c+GT2FEtu0WDj7aTQTlBhF9LrQAlkT0WCuvwuJLgXHVlhRfSgOZeZqKk38cIdjNJ
zx0CAwEAAaOBmjCBlzAJBgNVHRMEAjAAMB0GA1UdDgQWBBQhsDHGFNS9XN9wJFE0
npP1GLMcoTAfBgNVHSMEGDAWgBSk/bk5G4GzquuIHdSBqbURcMyn4TA1BggrBgEF
BQcBAQQpMCcwJQYIKwYBBQUHMAGGGWh0dHA6Ly9zZXJ2ZXIudzEuZmk6ODg4OC8w
EwYDVR0lBAwwCgYIKwYBBQUHAwEwDQYJKoZIhvcNAQELBQADggEBAFWAAYlnNHxL
mXH1XknqUfQhpA89hRyscL+m71CF3t8fxpNEOgtN6dkl5CNLxtVtvK0ZvL4F51oW
xWuXtIz8nE5SPXNYnt8NH66llVntW9aPAqrBdoFmyUb2wxjyqfvjQpIJX3yCLvsh
lpPRY1YeP2jUlvCnLS/x8Tn/KlYbWUp6sukRrcBmWa611IjOZdeY2L93lp1QWRso
b+cMxdyZVS5iERnyvCL5NZF7xepZSL6xkKK2XPTaOkiYepp0VfOFu6sxi9F1aPDD
3fG6QsdLQxh3dzLBgGEiSDk5XK3AsDpzX0OJjjJAPUjH3SDTuhW0rAq0hg40UyHl
kciOVm6fzmI=
-----END CERTIFICATE-----
