Certificate:
    Data:
        Version: 3 (0x2)
        Serial Number:
            d8:d3:e3:a6:cb:e3:cd:63
        Signature Algorithm: sha256WithRSAEncryption
        Issuer: C=FI, L=Tuusula, O=w1.fi, CN=Root CA
        Validity
            Not Before: May  2 19:55:38 2020 GMT
            Not After : May  2 19:55:38 2021 GMT
        Subject: C=FI, O=w1.fi, CN=server-policies.w1.fi
        Subject Public Key Info:
            Public Key Algorithm: rsaEncryption
                RSA Public-Key: (3072 bit)
                Modulus:
                    00:d2:a6:ef:9b:bd:60:63:a1:75:ad:4b:d3:6f:59:
                    5e:84:fa:64:a0:64:24:0b:78:48:fc:8d:66:8b:2f:
                    6e:1d:44:2b:ae:c3:6d:94:ba:cb:a3:34:be:0b:4e:
                    47:8d:5b:d9:99:a6:a8:07:09:87:55:b2:37:7e:47:
                    67:5c:74:5f:2c:83:79:b2:08:47:b4:ec:4f:ef:75:
                    58:67:c6:58:4c:4f:68:c1:18:1a:84:4d:78:23:48:
                    9a:14:38:6e:5b:4a:12:eb:86:c4:f7:4c:38:ac:63:
                    a7:61:fa:b3:64:7c:89:0e:29:f7:9f:f8:75:c3:ef:
                    90:c2:71:96:a1:ab:69:d3:c2:74:13:cf:e8:f7:09:
                    98:ed:3a:79:d6:c4:46:49:93:78:3b:16:a5:a9:dd:
                    f0:eb:bd:44:a7:dc:4e:ce:f7:a7:c9:3f:78:08:8b:
                    05:c6:17:2e:ee:df:11:a0:f7:f5:58:80:76:c2:34:
                    ef:b9:78:be:c4:5c:be:5f:5e:d7:b7:cd:a3:12:c4:
                    e3:76:fc:64:85:64:65:6b:da:5c:c9:38:50:39:89:
                    72:e5:20:ef:b9:0b:cc:32:26:3c:79:5e:4a:8d:78:
                    8d:6a:dd:73:3a:c8:42:27:43:0d:dd:05:1f:bc:84:
                    df:56:2d:7e:98:50:9e:8b:78:b0:e7:fd:a8:39:07:
                    57:05:12:fc:00:ef:89:f0:3f:03:f6:93:5b:b0:44:
                    57:61:61:47:05:6c:c4:16:98:61:b8:93:32:45:39:
                    fb:bb:8e:3b:87:18:5f:3a:07:57:d1:98:89:1d:85:
                    b7:5e:ea:1b:51:79:94:5c:d8:fa:bd:ba:75:00:03:
                    e3:f4:03:cd:5c:db:16:a1:ac:b7:f4:93:7e:ec:9a:
                    b0:e6:9c:4e:5d:3c:ba:01:32:cc:70:ca:49:3c:92:
                    fe:d2:88:81:9d:db:f4:bb:80:fe:ef:89:50:ea:80:
                    95:bd:c4:fa:28:d8:c0:86:61:37:d7:99:2b:8e:b9:
                    06:78:9a:08:44:17:da:19:35:97
                Exponent: 65537 (0x10001)
        X509v3 extensions:
            X509v3 Basic Constraints: 
                CA:FALSE
            X509v3 Subject Key Identifier: 
                3E:AD:0D:4D:7E:FA:A2:4A:D5:F5:31:EA:B6:B4:BF:83:B1:55:7E:C7
            X509v3 Authority Key Identifier: 
                keyid:A4:FD:B9:39:1B:81:B3:AA:EB:88:1D:D4:81:A9:B5:11:70:CC:A7:E1

            Authority Information Access: 
                OCSP - URI:http://server.w1.fi:8888/

            X509v3 Subject Alternative Name: 
                DNS:server-policies.w1.fi
            X509v3 Certificate Policies: 
                Policy: 1.3.6.1.4.1.40808.1.3.1

            X509v3 Extended Key Usage: 
                TLS Web Server Authentication
    Signature Algorithm: sha256WithRSAEncryption
         b8:ef:8e:09:f5:67:a3:d6:5c:92:d2:55:f8:f2:52:e4:cd:ea:
         87:a6:aa:42:73:b2:b4:30:d8:80:3f:aa:d5:f2:65:32:b9:88:
         7d:f1:b2:c2:c1:fe:17:c7:76:7e:d9:7b:4b:1a:87:dc:1f:f6:
         57:0d:8b:5f:2a:5d:e2:7f:f4:8d:39:3a:a4:9e:9d:f3:c1:58:
         cf:04:fd:72:40:c2:9a:ef:98:b2:6a:67:86:27:2c:f6:e6:dd:
         b1:a0:20:b1:c0:cf:fb:00:43:1f:6f:ac:b2:3f:02:a6:87:80:
         18:74:6b:0b:26:07:d3:7a:72:1c:c7:1d:a7:dc:13:cb:70:ac:
         24:2e:45:9c:bf:53:de:ea:eb:50:4a:60:87:26:8a:28:4e:16:
         76:91:b1:b3:e2:4d:66:fd:12:60:ed:24:59:f4:f9:47:59:d1:
         4c:6e:d1:9d:55:d4:72:d8:c4:da:2f:b4:73:20:d3:7e:f7:9f:
         6e:99:b8:06:1d:5f:8c:18:ab:a3:a8:fa:50:52:50:e5:2b:c9:
         fa:1d:fe:f0:ce:33:19:d5:38:e6:ba:90:c9:5e:e6:67:60:e0:
         50:16:7c:4c:08:89:d2:e2:fe:bc:57:0f:ef:83:75:ec:1d:f3:
         10:07:ce:c2:d6:30:44:f2:ec:b9:78:71:c2:41:8d:78:e4:d6:
         67:42:d7:f5
-----BEGIN CERTIFICATE-----
MIIEWDCCA0CgAwIBAgIJANjT46bL481jMA0GCSqGSIb3DQEBCwUAMEExCzAJBgNV
BAYTAkZJMRAwDgYDVQQHDAdUdXVzdWxhMQ4wDAYDVQQKDAV3MS5maTEQMA4GA1UE
AwwHUm9vdCBDQTAeFw0yMDA1MDIxOTU1MzhaFw0yMTA1MDIxOTU1MzhaMD0xCzAJ
BgNVBAYTAkZJMQ4wDAYDVQQKDAV3MS5maTEeMBwGA1UEAwwVc2VydmVyLXBvbGlj
aWVzLncxLmZpMIIBojANBgkqhkiG9w0BAQEFAAOCAY8AMIIBigKCAYEA0qbvm71g
Y6F1rUvTb1lehPpkoGQkC3hI/I1miy9uHUQrrsNtlLrLozS+C05HjVvZmaaoBwmH
VbI3fkdnXHRfLIN5sghHtOxP73VYZ8ZYTE9owRgahE14I0iaFDhuW0oS64bE90w4
rGOnYfqzZHyJDin3n/h1w++QwnGWoatp08J0E8/o9wmY7Tp51sRGSZN4Oxalqd3w
671Ep9xOzvenyT94CIsFxhcu7t8RoPf1WIB2wjTvuXi+xFy+X17Xt82jEsTjdvxk
hWRla9pcyThQOYly5SDvuQvMMiY8eV5KjXiNat1zOshCJ0MN3QUfvITfVi1+mFCe
i3iw5/2oOQdXBRL8AO+J8D8D9pNbsERXYWFHBWzEFphhuJMyRTn7u447hxhfOgdX
0ZiJHYW3XuobUXmUXNj6vbp1AAPj9APNXNsWoay39JN+7Jqw5pxOXTy6ATLMcMpJ
PJL+0oiBndv0u4D+74lQ6oCVvcT6KNjAhmE315krjrkGeJoIRBfaGTWXAgMBAAGj
gdYwgdMwCQYDVR0TBAIwADAdBgNVHQ4EFgQUPq0NTX76okrV9THqtrS/g7FVfscw
HwYDVR0jBBgwFoAUpP25ORuBs6rriB3Ugam1EXDMp+EwNQYIKwYBBQUHAQEEKTAn
MCUGCCsGAQUFBzABhhlodHRwOi8vc2VydmVyLncxLmZpOjg4ODgvMCAGA1UdEQQZ
MBeCFXNlcnZlci1wb2xpY2llcy53MS5maTAYBgNVHSAEETAPMA0GCysGAQQBgr5o
AQMBMBMGA1UdJQQMMAoGCCsGAQUFBwMBMA0GCSqGSIb3DQEBCwUAA4IBAQC4744J
9Wej1lyS0lX48lLkzeqHpqpCc7K0MNiAP6rV8mUyuYh98bLCwf4Xx3Z+2XtLGofc
H/ZXDYtfKl3if/SNOTqknp3zwVjPBP1yQMKa75iyameGJyz25t2xoCCxwM/7AEMf
b6yyPwKmh4AYdGsLJgfTenIcxx2n3BPLcKwkLkWcv1Pe6utQSmCHJoooThZ2kbGz
4k1m/RJg7SRZ9PlHWdFMbtGdVdRy2MTaL7RzINN+959umbgGHV+MGKujqPpQUlDl
K8n6Hf7wzjMZ1TjmupDJXuZnYOBQFnxMCInS4v68Vw/vg3XsHfMQB87C1jBE8uy5
eHHCQY145NZnQtf1
-----END CERTIFICATE-----
