Certificate:
    Data:
        Version: 3 (0x2)
        Serial Number:
            d8:d3:e3:a6:cb:e3:cd:60
        Signature Algorithm: sha256WithRSAEncryption
        Issuer: C=FI, L=Tuusula, O=w1.fi, CN=Root CA
        Validity
            Not Before: May  2 19:55:38 2020 GMT
            Not After : May  2 19:55:38 2021 GMT
        Subject: C=FI, O=w1.fi, CN=server3.w1.fi
        Subject Public Key Info:
            Public Key Algorithm: rsaEncryption
                RSA Public-Key: (2048 bit)
                Modulus:
                    00:c2:eb:ad:04:6f:4c:eb:23:b8:92:4e:75:dc:00:
                    d0:0d:d9:ad:09:21:f8:12:4a:2d:cd:db:7d:63:a1:
                    32:12:8e:b8:e3:bd:df:95:39:3a:17:65:54:f8:20:
                    d6:71:37:7d:b7:b4:72:31:7a:7a:3d:ba:74:72:f3:
                    ac:9d:16:38:35:1b:7d:50:3b:ad:96:5d:a7:c0:76:
                    0b:bb:4c:06:a8:d0:f7:2d:3d:94:a5:14:26:1a:11:
                    d8:42:1b:2d:4e:6e:60:9d:6a:cf:22:db:36:65:e2:
                    17:35:bc:69:2e:ab:30:e5:cd:fc:9a:e4:4f:0f:d1:
                    01:c3:e6:33:71:31:cd:6f:da:8c:21:9d:f7:1b:d1:
                    ed:7e:39:7a:fd:69:a3:88:1c:e6:f6:d3:3b:1a:1e:
                    d3:70:c3:ad:35:2a:22:a4:de:60:90:37:5d:e7:e0:
                    ce:9b:7d:4c:b5:cb:41:1b:9c:96:51:df:58:4d:b7:
                    67:da:95:25:60:8a:ff:6c:62:84:da:d6:24:b9:65:
                    d9:7a:59:f8:c8:bd:03:be:f6:17:d8:0e:86:ae:9a:
                    4c:7d:53:f6:b1:0e:82:cd:06:61:77:dd:46:5c:fd:
                    45:6a:f2:e8:22:ca:63:8b:d3:1c:f6:4f:10:ec:ea:
                    1a:08:1e:38:3d:80:6c:a3:48:47:f2:16:2a:07:5b:
                    f7:89
                Exponent: 65537 (0x10001)
        X509v3 extensions:
            X509v3 Basic Constraints: 
                CA:FALSE
            X509v3 Subject Key Identifier: 
                5E:84:D6:31:98:17:71:F8:63:5C:32:5B:7D:33:C0:D4:FA:36:A7:6A
            X509v3 Authority Key Identifier: 
                keyid:A4:FD:B9:39:1B:81:B3:AA:EB:88:1D:D4:81:A9:B5:11:70:CC:A7:E1

            Authority Information Access: 
                OCSP - URI:http://server.w1.fi:8888/

            X509v3 Extended Key Usage: 
                TLS Web Server Authentication
    Signature Algorithm: sha256WithRSAEncryption
         47:5a:18:97:c2:3a:a5:4a:6c:f6:11:53:ac:d3:3f:d7:0c:7f:
         e5:cb:9c:7d:02:f3:b7:ab:0c:a6:8d:d9:77:6c:bd:2a:41:47:
         fb:70:7f:0d:09:53:fc:e4:a4:5e:0b:1c:4d:84:05:71:ab:f9:
         68:9a:df:4f:b6:73:20:fd:05:cc:e2:f1:8a:9d:20:7a:27:8a:
         60:a6:ed:0e:eb:cf:5f:13:32:1b:89:ec:f6:dc:eb:5f:42:f0:
         a8:f9:42:dd:e5:e6:19:28:82:61:df:07:24:7b:c6:c9:ce:a5:
         44:f0:d7:ba:4b:2b:9d:d7:97:1c:13:e9:da:0a:58:26:97:48:
         6e:33:ec:d5:d3:32:96:23:b6:40:01:a8:e0:88:ea:2a:73:82:
         d7:41:58:9b:b3:dc:6b:41:2f:ae:33:38:43:05:ed:04:ff:b9:
         63:b7:7e:9b:fa:85:ab:df:12:36:24:cf:ec:8d:f8:d5:1c:95:
         4e:a8:9c:e4:8a:90:ac:db:a0:4b:d8:14:e0:84:97:f7:cb:da:
         95:cd:02:11:65:23:8b:ad:f1:c3:46:2d:2d:20:4d:cb:63:ef:
         ae:be:ea:19:1d:2d:c5:35:c8:aa:b9:d3:8c:4f:cd:44:9c:fc:
         a4:37:f5:b8:80:06:af:5e:ce:bc:81:23:cd:6b:de:31:c2:4c:
         e8:e6:68:71
-----BEGIN CERTIFICATE-----
MIIDlDCCAnygAwIBAgIJANjT46bL481gMA0GCSqGSIb3DQEBCwUAMEExCzAJBgNV
BAYTAkZJMRAwDgYDVQQHDAdUdXVzdWxhMQ4wDAYDVQQKDAV3MS5maTEQMA4GA1UE
AwwHUm9vdCBDQTAeFw0yMDA1MDIxOTU1MzhaFw0yMTA1MDIxOTU1MzhaMDUxCzAJ
BgNVBAYTAkZJMQ4wDAYDVQQKDAV3MS5maTEWMBQGA1UEAwwNc2VydmVyMy53MS5m
aTCCASIwDQYJKoZIhvcNAQEBBQADggEPADCCAQoCggEBAMLrrQRvTOsjuJJOddwA
0A3ZrQkh+BJKLc3bfWOhMhKOuOO935U5OhdlVPgg1nE3fbe0cjF6ej26dHLzrJ0W
ODUbfVA7rZZdp8B2C7tMBqjQ9y09lKUUJhoR2EIbLU5uYJ1qzyLbNmXiFzW8aS6r
MOXN/JrkTw/RAcPmM3ExzW/ajCGd9xvR7X45ev1po4gc5vbTOxoe03DDrTUqIqTe
YJA3Xefgzpt9TLXLQRucllHfWE23Z9qVJWCK/2xihNrWJLll2XpZ+Mi9A772F9gO
hq6aTH1T9rEOgs0GYXfdRlz9RWry6CLKY4vTHPZPEOzqGggeOD2AbKNIR/IWKgdb
94kCAwEAAaOBmjCBlzAJBgNVHRMEAjAAMB0GA1UdDgQWBBRehNYxmBdx+GNcMlt9
M8DU+janajAfBgNVHSMEGDAWgBSk/bk5G4GzquuIHdSBqbURcMyn4TA1BggrBgEF
BQcBAQQpMCcwJQYIKwYBBQUHMAGGGWh0dHA6Ly9zZXJ2ZXIudzEuZmk6ODg4OC8w
EwYDVR0lBAwwCgYIKwYBBQUHAwEwDQYJKoZIhvcNAQELBQADggEBAEdaGJfCOqVK
bPYRU6zTP9cMf+XLnH0C87erDKaN2XdsvSpBR/twfw0JU/zkpF4LHE2EBXGr+Wia
30+2cyD9Bczi8YqdIHonimCm7Q7rz18TMhuJ7Pbc619C8Kj5Qt3l5hkogmHfByR7
xsnOpUTw17pLK53XlxwT6doKWCaXSG4z7NXTMpYjtkABqOCI6ipzgtdBWJuz3GtB
L64zOEMF7QT/uWO3fpv6havfEjYkz+yN+NUclU6onOSKkKzboEvYFOCEl/fL2pXN
AhFlI4ut8cNGLS0gTctj766+6hkdLcU1yKq504xPzUSc/KQ39biABq9ezryBI81r
3jHCTOjmaHE=
-----END CERTIFICATE-----
