Certificate:
    Data:
        Version: 3 (0x2)
        Serial Number:
            d8:d3:e3:a6:cb:e3:cd:5f
        Signature Algorithm: sha256WithRSAEncryption
        Issuer: C=FI, L=Tuusula, O=w1.fi, CN=Root CA
        Validity
            Not Before: May  2 19:55:38 2020 GMT
            Not After : May  2 19:55:38 2021 GMT
        Subject: C=FI, O=w1.fi, CN=server.w1.fi
        Subject Public Key Info:
            Public Key Algorithm: rsaEncryption
                RSA Public-Key: (2048 bit)
                Modulus:
                    00:fd:0e:5e:cd:19:2c:6a:41:83:d9:2c:0e:36:cd:
                    09:b0:8f:b2:c9:8c:c8:d2:03:38:6e:54:bc:43:ee:
                    ce:f8:59:b1:e9:3f:6d:d4:5e:e3:c5:73:19:3d:0b:
                    bc:29:d7:d0:6e:75:00:35:fc:f7:65:b1:b6:0f:cb:
                    06:49:cf:a9:4e:3d:c2:64:4b:18:24:0a:70:b8:6e:
                    54:dc:90:3f:6c:18:fd:b6:88:ab:37:dc:8b:4b:b5:
                    e1:ff:ed:bb:45:05:a3:f0:aa:51:2b:f1:79:06:7f:
                    2f:cd:5d:fc:e6:8a:af:1b:b9:7b:ca:43:75:01:1d:
                    8e:2d:d9:11:13:86:fb:3c:4b:60:a4:29:49:e3:d2:
                    20:20:cb:5c:0d:9c:d2:9c:30:21:11:bc:b3:74:df:
                    64:b0:b7:67:ee:6a:df:af:3d:18:02:b7:dc:e5:54:
                    75:b5:6c:40:c4:b0:8a:1b:c6:fd:ab:1e:b9:ef:d1:
                    83:09:0d:55:ba:17:88:4e:d0:bd:cf:73:36:7c:28:
                    4b:f6:aa:48:d4:e8:fb:25:d8:1d:af:c9:68:73:ac:
                    46:ae:cb:eb:79:36:57:ad:c3:70:02:15:6d:f0:a5:
                    43:73:ab:72:04:b1:16:60:74:0e:4a:c1:8f:52:28:
                    1a:95:7e:ab:d0:04:f6:fa:11:da:1b:d1:99:a4:4f:
                    9e:ed
                Exponent: 65537 (0x10001)
        X509v3 extensions:
            X509v3 Basic Constraints: 
                CA:FALSE
            X509v3 Subject Key Identifier: 
                71:26:7A:1F:72:81:97:24:11:AA:C0:75:FA:BF:31:10:69:49:D0:E7
            X509v3 Authority Key Identifier: 
                keyid:A4:FD:B9:39:1B:81:B3:AA:EB:88:1D:D4:81:A9:B5:11:70:CC:A7:E1

            Authority Information Access: 
                OCSP - URI:http://server.w1.fi:8888/

            X509v3 Subject Alternative Name: 
                DNS:server.w1.fi
            X509v3 Extended Key Usage: 
                TLS Web Server Authentication
    Signature Algorithm: sha256WithRSAEncryption
         62:10:9c:ed:50:98:34:2e:7c:ef:1a:11:93:a5:f0:ad:8d:03:
         71:9a:a1:be:c0:24:9a:4d:28:cd:28:ea:55:7e:7b:b3:9c:f4:
         ad:94:44:7b:9c:e2:0a:c0:35:7e:80:a6:aa:9c:ae:36:22:fd:
         4e:25:b3:1f:66:1d:2e:66:4b:d4:8c:ad:3e:0d:92:7d:3a:93:
         05:c6:51:e4:75:fc:b4:6c:24:cb:c4:79:06:2f:d1:b3:6c:0c:
         d8:82:76:08:cc:9a:c4:61:14:1b:3d:38:f4:a2:2c:49:0e:d5:
         82:58:46:52:3c:cd:12:d9:57:dd:58:25:34:0b:d7:7b:2a:2f:
         60:ce:da:9f:f2:98:e2:8e:0b:6c:69:42:1c:27:75:3a:7c:ae:
         a5:9a:19:bc:6c:67:fc:04:a9:f4:fd:2c:17:79:56:52:a3:3b:
         01:60:ae:ea:9b:ed:a4:30:53:fc:ef:57:bb:f1:fc:04:2a:5c:
         2b:74:d0:1f:0b:30:ec:0a:b2:8b:4d:4a:b4:33:0d:cd:dc:28:
         29:0a:d1:eb:36:09:bc:15:a7:c7:f0:f0:9c:7e:48:75:14:75:
         2d:ed:fb:7a:14:e4:69:4a:54:b9:ad:25:ba:bb:d9:c0:eb:a0:
         81:53:c7:07:ea:34:73:1f:9d:43:63:8e:f9:06:c9:4d:15:bf:
         68:f9:91:de
-----BEGIN CERTIFICATE-----
MIIDrDCCApSgAwIBAgIJANjT46bL481fMA0GCSqGSIb3DQEBCwUAMEExCzAJBgNV
BAYTAkZJMRAwDgYDVQQHDAdUdXVzdWxhMQ4wDAYDVQQKDAV3MS5maTEQMA4GA1UE
AwwHUm9vdCBDQTAeFw0yMDA1MDIxOTU1MzhaFw0yMTA1MDIxOTU1MzhaMDQxCzAJ
BgNVBAYTAkZJMQ4wDAYDVQQKDAV3MS5maTEVMBMGA1UEAwwMc2VydmVyLncxLmZp
MIIBIjANBgkqhkiG9w0BAQEFAAOCAQ8AMIIBCgKCAQEA/Q5ezRksakGD2SwONs0J
sI+yyYzI0gM4blS8Q+7O+Fmx6T9t1F7jxXMZPQu8KdfQbnUANfz3ZbG2D8sGSc+p
Tj3CZEsYJApwuG5U3JA/bBj9toirN9yLS7Xh/+27RQWj8KpRK/F5Bn8vzV385oqv
G7l7ykN1AR2OLdkRE4b7PEtgpClJ49IgIMtcDZzSnDAhEbyzdN9ksLdn7mrfrz0Y
Arfc5VR1tWxAxLCKG8b9qx6579GDCQ1VuheITtC9z3M2fChL9qpI1Oj7Jdgdr8lo
c6xGrsvreTZXrcNwAhVt8KVDc6tyBLEWYHQOSsGPUigalX6r0AT2+hHaG9GZpE+e
7QIDAQABo4GzMIGwMAkGA1UdEwQCMAAwHQYDVR0OBBYEFHEmeh9ygZckEarAdfq/
MRBpSdDnMB8GA1UdIwQYMBaAFKT9uTkbgbOq64gd1IGptRFwzKfhMDUGCCsGAQUF
BwEBBCkwJzAlBggrBgEFBQcwAYYZaHR0cDovL3NlcnZlci53MS5maTo4ODg4LzAX
BgNVHREEEDAOggxzZXJ2ZXIudzEuZmkwEwYDVR0lBAwwCgYIKwYBBQUHAwEwDQYJ
KoZIhvcNAQELBQADggEBAGIQnO1QmDQufO8aEZOl8K2NA3Gaob7AJJpNKM0o6lV+
e7Oc9K2URHuc4grANX6ApqqcrjYi/U4lsx9mHS5mS9SMrT4Nkn06kwXGUeR1/LRs
JMvEeQYv0bNsDNiCdgjMmsRhFBs9OPSiLEkO1YJYRlI8zRLZV91YJTQL13sqL2DO
2p/ymOKOC2xpQhwndTp8rqWaGbxsZ/wEqfT9LBd5VlKjOwFgruqb7aQwU/zvV7vx
/AQqXCt00B8LMOwKsotNSrQzDc3cKCkK0es2CbwVp8fw8Jx+SHUUdS3t+3oU5GlK
VLmtJbq72cDroIFTxwfqNHMfnUNjjvkGyU0Vv2j5kd4=
-----END CERTIFICATE-----
