Certificate:
    Data:
        Version: 3 (0x2)
        Serial Number:
            d8:d3:e3:a6:cb:e3:cd:6d
        Signature Algorithm: sha256WithRSAEncryption
        Issuer: C=FI, L=Tuusula, O=w1.fi, CN=Root CA
        Validity
            Not Before: May  3 17:02:53 2021 GMT
            Not After : May  3 17:02:53 2022 GMT
        Subject: C=FI, O=w1.fi, CN=server6.w1.fi
        Subject Public Key Info:
            Public Key Algorithm: rsaEncryption
                RSA Public-Key: (2048 bit)
                Modulus:
                    00:d0:23:f4:80:12:be:4a:64:4d:af:99:af:52:ef:
                    8d:f5:73:9a:1a:28:2b:92:e8:d4:90:25:3e:85:47:
                    9f:c9:c4:b9:7a:35:24:84:2f:1e:51:16:66:d3:ac:
                    31:ea:f1:63:a4:4c:ea:26:f0:fa:61:c7:9f:f2:74:
                    69:6a:78:09:c5:c9:89:74:db:6d:ba:c7:b6:b1:f0:
                    61:1f:ef:3a:1c:d5:c6:fc:95:5d:9b:37:d6:5b:cb:
                    37:93:59:ed:50:f2:6a:a2:01:5c:9e:22:af:3a:31:
                    d9:ee:eb:33:49:93:4e:46:ee:9d:7b:86:86:da:2b:
                    1d:f9:f3:a2:01:7d:0d:55:1c:3b:67:e9:c9:fb:bc:
                    a9:52:4c:4a:21:85:68:50:2f:e4:05:c1:3f:e0:b3:
                    a3:25:d4:6c:2e:61:7c:9d:d5:da:93:bb:19:fe:ea:
                    bf:f2:c8:f9:dc:de:48:54:e1:fe:d4:b5:94:5a:3f:
                    2c:2b:8c:b1:6c:ef:3a:b0:d2:0c:2c:13:75:61:db:
                    97:6b:fa:6b:f9:9d:f7:14:aa:35:72:d8:4c:0b:a1:
                    5c:08:c5:87:d4:e4:87:1d:6b:0a:50:1f:b5:0e:3f:
                    bb:36:8b:c6:e0:bd:1e:1a:e1:1c:f3:37:a4:91:65:
                    4c:43:b4:9e:cc:1b:61:68:09:bd:1e:ab:61:bd:c1:
                    91:71
                Exponent: 65537 (0x10001)
        X509v3 extensions:
            X509v3 Basic Constraints: 
                CA:FALSE
            X509v3 Subject Key Identifier: 
                AB:D2:88:CA:9C:44:26:89:2E:C0:B9:8D:46:DD:5C:69:02:9E:01:CB
            X509v3 Authority Key Identifier: 
                keyid:A4:FD:B9:39:1B:81:B3:AA:EB:88:1D:D4:81:A9:B5:11:70:CC:A7:E1

            Authority Information Access: 
                OCSP - URI:http://server.w1.fi:8888/

            X509v3 Extended Key Usage: 
                TLS Web Client Authentication, TLS Web Server Authentication
    Signature Algorithm: sha256WithRSAEncryption
         97:a5:19:d6:b9:1e:74:53:d4:38:5d:95:2a:8c:6f:88:10:c4:
         47:28:29:4e:08:65:51:8f:af:34:1e:17:7a:62:7c:8e:f4:c4:
         6d:ed:94:a9:fa:03:85:9d:7d:01:f8:e3:03:a4:a7:52:0c:6e:
         46:db:de:44:bc:ce:b3:5a:fc:72:01:a0:b2:49:b2:b2:ce:de:
         46:d4:68:d7:70:94:7b:48:b9:c9:6c:78:d3:68:3d:4f:66:15:
         7d:99:ac:65:70:0f:62:ed:b5:a5:b4:69:c4:bc:57:f5:ea:1d:
         3c:cd:99:36:6f:86:bc:57:69:76:58:fd:15:5d:8d:ed:0c:ca:
         d8:bb:8e:7d:72:39:ff:04:e9:35:88:88:fa:5c:d7:f5:10:f5:
         19:4f:2d:90:2f:f3:82:36:7f:4f:45:c5:98:97:f5:f0:61:86:
         64:ce:b7:24:98:85:f1:59:59:67:ee:51:d0:e7:37:fb:2f:a7:
         5d:a5:91:a3:f9:97:a8:54:4d:df:ec:22:d1:3e:0e:4d:5c:40:
         11:2a:43:7d:69:36:73:5e:be:c8:73:d4:74:99:5f:c8:87:c1:
         99:c0:e6:38:af:f2:8c:39:b7:65:90:a8:58:fa:a2:99:69:e6:
         ad:77:3e:94:fc:82:38:cf:5f:17:77:e8:4e:6a:8b:75:21:ce:
         9b:7f:6c:00
-----BEGIN CERTIFICATE-----
MIIDnjCCAoagAwIBAgIJANjT46bL481tMA0GCSqGSIb3DQEBCwUAMEExCzAJBgNV
BAYTAkZJMRAwDgYDVQQHDAdUdXVzdWxhMQ4wDAYDVQQKDAV3MS5maTEQMA4GA1UE
AwwHUm9vdCBDQTAeFw0yMTA1MDMxNzAyNTNaFw0yMjA1MDMxNzAyNTNaMDUxCzAJ
BgNVBAYTAkZJMQ4wDAYDVQQKDAV3MS5maTEWMBQGA1UEAwwNc2VydmVyNi53MS5m
aTCCASIwDQYJKoZIhvcNAQEBBQADggEPADCCAQoCggEBANAj9IASvkpkTa+Zr1Lv
jfVzmhooK5Lo1JAlPoVHn8nEuXo1JIQvHlEWZtOsMerxY6RM6ibw+mHHn/J0aWp4
CcXJiXTbbbrHtrHwYR/vOhzVxvyVXZs31lvLN5NZ7VDyaqIBXJ4irzox2e7rM0mT
TkbunXuGhtorHfnzogF9DVUcO2fpyfu8qVJMSiGFaFAv5AXBP+CzoyXUbC5hfJ3V
2pO7Gf7qv/LI+dzeSFTh/tS1lFo/LCuMsWzvOrDSDCwTdWHbl2v6a/md9xSqNXLY
TAuhXAjFh9Tkhx1rClAftQ4/uzaLxuC9HhrhHPM3pJFlTEO0nswbYWgJvR6rYb3B
kXECAwEAAaOBpDCBoTAJBgNVHRMEAjAAMB0GA1UdDgQWBBSr0ojKnEQmiS7AuY1G
3VxpAp4ByzAfBgNVHSMEGDAWgBSk/bk5G4GzquuIHdSBqbURcMyn4TA1BggrBgEF
BQcBAQQpMCcwJQYIKwYBBQUHMAGGGWh0dHA6Ly9zZXJ2ZXIudzEuZmk6ODg4OC8w
HQYDVR0lBBYwFAYIKwYBBQUHAwIGCCsGAQUFBwMBMA0GCSqGSIb3DQEBCwUAA4IB
AQCXpRnWuR50U9Q4XZUqjG+IEMRHKClOCGVRj680Hhd6YnyO9MRt7ZSp+gOFnX0B
+OMDpKdSDG5G295EvM6zWvxyAaCySbKyzt5G1GjXcJR7SLnJbHjTaD1PZhV9maxl
cA9i7bWltGnEvFf16h08zZk2b4a8V2l2WP0VXY3tDMrYu459cjn/BOk1iIj6XNf1
EPUZTy2QL/OCNn9PRcWYl/XwYYZkzrckmIXxWVln7lHQ5zf7L6ddpZGj+ZeoVE3f
7CLRPg5NXEARKkN9aTZzXr7Ic9R0mV/Ih8GZwOY4r/KMObdlkKhY+qKZaeatdz6U
/II4z18Xd+hOaot1Ic6bf2wA
-----END CERTIFICATE-----
