Certificate:
    Data:
        Version: 3 (0x2)
        Serial Number:
            d8:d3:e3:a6:cb:e3:cd:6a
        Signature Algorithm: sha256WithRSAEncryption
        Issuer: C=FI, L=Tuusula, O=w1.fi, CN=Root CA
        Validity
            Not Before: May  3 17:02:53 2021 GMT
            Not After : May  3 17:02:53 2022 GMT
        Subject: C=FI, O=w1.fi, CN=server3.w1.fi
        Subject Public Key Info:
            Public Key Algorithm: rsaEncryption
                RSA Public-Key: (2048 bit)
                Modulus:
                    00:c2:eb:ad:04:6f:4c:eb:23:b8:92:4e:75:dc:00:
                    d0:0d:d9:ad:09:21:f8:12:4a:2d:cd:db:7d:63:a1:
                    32:12:8e:b8:e3:bd:df:95:39:3a:17:65:54:f8:20:
                    d6:71:37:7d:b7:b4:72:31:7a:7a:3d:ba:74:72:f3:
                    ac:9d:16:38:35:1b:7d:50:3b:ad:96:5d:a7:c0:76:
                    0b:bb:4c:06:a8:d0:f7:2d:3d:94:a5:14:26:1a:11:
                    d8:42:1b:2d:4e:6e:60:9d:6a:cf:22:db:36:65:e2:
                    17:35:bc:69:2e:ab:30:e5:cd:fc:9a:e4:4f:0f:d1:
                    01:c3:e6:33:71:31:cd:6f:da:8c:21:9d:f7:1b:d1:
                    ed:7e:39:7a:fd:69:a3:88:1c:e6:f6:d3:3b:1a:1e:
                    d3:70:c3:ad:35:2a:22:a4:de:60:90:37:5d:e7:e0:
                    ce:9b:7d:4c:b5:cb:41:1b:9c:96:51:df:58:4d:b7:
                    67:da:95:25:60:8a:ff:6c:62:84:da:d6:24:b9:65:
                    d9:7a:59:f8:c8:bd:03:be:f6:17:d8:0e:86:ae:9a:
                    4c:7d:53:f6:b1:0e:82:cd:06:61:77:dd:46:5c:fd:
                    45:6a:f2:e8:22:ca:63:8b:d3:1c:f6:4f:10:ec:ea:
                    1a:08:1e:38:3d:80:6c:a3:48:47:f2:16:2a:07:5b:
                    f7:89
                Exponent: 65537 (0x10001)
        X509v3 extensions:
            X509v3 Basic Constraints: 
                CA:FALSE
            X509v3 Subject Key Identifier: 
                5E:84:D6:31:98:17:71:F8:63:5C:32:5B:7D:33:C0:D4:FA:36:A7:6A
            X509v3 Authority Key Identifier: 
                keyid:A4:FD:B9:39:1B:81:B3:AA:EB:88:1D:D4:81:A9:B5:11:70:CC:A7:E1

            Authority Information Access: 
                OCSP - URI:http://server.w1.fi:8888/

            X509v3 Extended Key Usage: 
                TLS Web Server Authentication
    Signature Algorithm: sha256WithRSAEncryption
         8a:b4:ef:15:b7:6f:b7:cd:e6:c0:3b:e2:bb:67:5e:d0:0a:81:
         53:84:60:b8:60:05:9b:c7:b9:b9:87:34:1f:33:a4:fb:db:ed:
         e9:0f:83:a4:3d:8b:4e:ff:aa:35:a8:f4:8c:35:78:a0:fb:e0:
         b3:a3:11:92:ce:76:b2:3a:06:4f:3f:bb:9c:ca:e3:95:ec:44:
         cb:72:1f:93:5d:df:d7:9e:76:41:4c:61:cb:70:03:5d:45:69:
         da:c6:f5:60:68:83:f9:c7:73:8e:fb:4c:47:28:8e:b7:c9:e4:
         cc:12:44:46:cc:97:77:6c:aa:02:57:d9:5a:f9:92:0c:a6:81:
         12:b3:e0:fd:e1:9b:46:83:c8:bc:b5:85:4e:bd:9a:1b:9b:a5:
         bd:cb:af:9b:dc:ce:62:3b:b3:ff:0f:85:e3:47:66:d0:dc:c6:
         c4:02:36:e0:01:42:4c:c5:1f:de:da:92:1f:09:f3:22:f5:37:
         ef:55:ca:7c:12:f7:2f:34:a1:ff:fe:b8:fc:32:34:ee:a4:ff:
         f1:ba:c5:f5:d3:9e:d2:f8:3d:d9:fa:81:8f:40:80:7f:67:b5:
         4d:0a:03:f7:f9:4e:3f:f8:74:29:f8:26:6d:5e:9e:dd:6d:f2:
         0a:1d:6a:41:0c:5b:c2:27:81:2b:c1:86:0e:24:64:37:92:2a:
         09:fb:ae:c7
-----BEGIN CERTIFICATE-----
MIIDlDCCAnygAwIBAgIJANjT46bL481qMA0GCSqGSIb3DQEBCwUAMEExCzAJBgNV
BAYTAkZJMRAwDgYDVQQHDAdUdXVzdWxhMQ4wDAYDVQQKDAV3MS5maTEQMA4GA1UE
AwwHUm9vdCBDQTAeFw0yMTA1MDMxNzAyNTNaFw0yMjA1MDMxNzAyNTNaMDUxCzAJ
BgNVBAYTAkZJMQ4wDAYDVQQKDAV3MS5maTEWMBQGA1UEAwwNc2VydmVyMy53MS5m
aTCCASIwDQYJKoZIhvcNAQEBBQADggEPADCCAQoCggEBAMLrrQRvTOsjuJJOddwA
0A3ZrQkh+BJKLc3bfWOhMhKOuOO935U5OhdlVPgg1nE3fbe0cjF6ej26dHLzrJ0W
ODUbfVA7rZZdp8B2C7tMBqjQ9y09lKUUJhoR2EIbLU5uYJ1qzyLbNmXiFzW8aS6r
MOXN/JrkTw/RAcPmM3ExzW/ajCGd9xvR7X45ev1po4gc5vbTOxoe03DDrTUqIqTe
YJA3Xefgzpt9TLXLQRucllHfWE23Z9qVJWCK/2xihNrWJLll2XpZ+Mi9A772F9gO
hq6aTH1T9rEOgs0GYXfdRlz9RWry6CLKY4vTHPZPEOzqGggeOD2AbKNIR/IWKgdb
94kCAwEAAaOBmjCBlzAJBgNVHRMEAjAAMB0GA1UdDgQWBBRehNYxmBdx+GNcMlt9
M8DU+janajAfBgNVHSMEGDAWgBSk/bk5G4GzquuIHdSBqbURcMyn4TA1BggrBgEF
BQcBAQQpMCcwJQYIKwYBBQUHMAGGGWh0dHA6Ly9zZXJ2ZXIudzEuZmk6ODg4OC8w
EwYDVR0lBAwwCgYIKwYBBQUHAwEwDQYJKoZIhvcNAQELBQADggEBAIq07xW3b7fN
5sA74rtnXtAKgVOEYLhgBZvHubmHNB8zpPvb7ekPg6Q9i07/qjWo9Iw1eKD74LOj
EZLOdrI6Bk8/u5zK45XsRMtyH5Nd39eedkFMYctwA11FadrG9WBog/nHc477TEco
jrfJ5MwSREbMl3dsqgJX2Vr5kgymgRKz4P3hm0aDyLy1hU69mhubpb3Lr5vczmI7
s/8PheNHZtDcxsQCNuABQkzFH97akh8J8yL1N+9VynwS9y80of/+uPwyNO6k//G6
xfXTntL4Pdn6gY9AgH9ntU0KA/f5Tj/4dCn4Jm1ent1t8godakEMW8IngSvBhg4k
ZDeSKgn7rsc=
-----END CERTIFICATE-----
