Certificate:
    Data:
        Version: 3 (0x2)
        Serial Number:
            d8:d3:e3:a6:cb:e3:cd:6f
        Signature Algorithm: sha256WithRSAEncryption
        Issuer: C=FI, L=Tuusula, O=w1.fi, CN=Root CA
        Validity
            Not Before: May  3 17:02:53 2021 GMT
            Not After : May  3 17:02:53 2022 GMT
        Subject: C=FI, O=w1.fi, CN=server-policies.w1.fi
        Subject Public Key Info:
            Public Key Algorithm: rsaEncryption
                RSA Public-Key: (3072 bit)
                Modulus:
                    00:d2:a6:ef:9b:bd:60:63:a1:75:ad:4b:d3:6f:59:
                    5e:84:fa:64:a0:64:24:0b:78:48:fc:8d:66:8b:2f:
                    6e:1d:44:2b:ae:c3:6d:94:ba:cb:a3:34:be:0b:4e:
                    47:8d:5b:d9:99:a6:a8:07:09:87:55:b2:37:7e:47:
                    67:5c:74:5f:2c:83:79:b2:08:47:b4:ec:4f:ef:75:
                    58:67:c6:58:4c:4f:68:c1:18:1a:84:4d:78:23:48:
                    9a:14:38:6e:5b:4a:12:eb:86:c4:f7:4c:38:ac:63:
                    a7:61:fa:b3:64:7c:89:0e:29:f7:9f:f8:75:c3:ef:
                    90:c2:71:96:a1:ab:69:d3:c2:74:13:cf:e8:f7:09:
                    98:ed:3a:79:d6:c4:46:49:93:78:3b:16:a5:a9:dd:
                    f0:eb:bd:44:a7:dc:4e:ce:f7:a7:c9:3f:78:08:8b:
                    05:c6:17:2e:ee:df:11:a0:f7:f5:58:80:76:c2:34:
                    ef:b9:78:be:c4:5c:be:5f:5e:d7:b7:cd:a3:12:c4:
                    e3:76:fc:64:85:64:65:6b:da:5c:c9:38:50:39:89:
                    72:e5:20:ef:b9:0b:cc:32:26:3c:79:5e:4a:8d:78:
                    8d:6a:dd:73:3a:c8:42:27:43:0d:dd:05:1f:bc:84:
                    df:56:2d:7e:98:50:9e:8b:78:b0:e7:fd:a8:39:07:
                    57:05:12:fc:00:ef:89:f0:3f:03:f6:93:5b:b0:44:
                    57:61:61:47:05:6c:c4:16:98:61:b8:93:32:45:39:
                    fb:bb:8e:3b:87:18:5f:3a:07:57:d1:98:89:1d:85:
                    b7:5e:ea:1b:51:79:94:5c:d8:fa:bd:ba:75:00:03:
                    e3:f4:03:cd:5c:db:16:a1:ac:b7:f4:93:7e:ec:9a:
                    b0:e6:9c:4e:5d:3c:ba:01:32:cc:70:ca:49:3c:92:
                    fe:d2:88:81:9d:db:f4:bb:80:fe:ef:89:50:ea:80:
                    95:bd:c4:fa:28:d8:c0:86:61:37:d7:99:2b:8e:b9:
                    06:78:9a:08:44:17:da:19:35:97
                Exponent: 65537 (0x10001)
        X509v3 extensions:
            X509v3 Basic Constraints: 
                CA:FALSE
            X509v3 Subject Key Identifier: 
                3E:AD:0D:4D:7E:FA:A2:4A:D5:F5:31:EA:B6:B4:BF:83:B1:55:7E:C7
            X509v3 Authority Key Identifier: 
                keyid:A4:FD:B9:39:1B:81:B3:AA:EB:88:1D:D4:81:A9:B5:11:70:CC:A7:E1

            Authority Information Access: 
                OCSP - URI:http://server.w1.fi:8888/

            X509v3 Subject Alternative Name: 
                DNS:server-policies.w1.fi
            X509v3 Certificate Policies: 
                Policy: 1.3.6.1.4.1.40808.1.3.1

            X509v3 Extended Key Usage: 
                TLS Web Server Authentication
    Signature Algorithm: sha256WithRSAEncryption
         ae:91:58:d8:0f:03:02:4e:84:da:cd:13:7d:5c:d0:52:04:08:
         7f:ea:12:73:5d:ad:a1:64:a2:0d:e6:83:ca:fa:35:7d:1e:35:
         bd:24:5d:19:b7:1b:f4:dd:75:a0:86:60:65:e0:73:69:55:ae:
         37:13:82:99:ad:8a:fb:de:73:51:45:b6:38:e0:3a:6c:b0:f1:
         e8:b3:09:10:f9:89:87:c9:64:be:ac:27:c2:cc:e9:1b:dc:0f:
         c4:37:8e:1e:a3:16:2c:42:ed:da:c9:27:c0:ee:fd:45:62:b1:
         e6:71:ca:a5:a3:3b:6b:62:03:fb:a3:aa:fd:b4:0e:e2:3f:d1:
         c1:27:92:54:e8:fa:34:01:d3:4f:22:6e:00:24:e7:34:7a:e6:
         ef:6e:d3:6b:ae:f2:a9:df:dd:79:1b:1f:ee:52:56:69:26:dc:
         0e:e8:48:9f:36:11:0e:c7:7c:48:ec:0a:c2:d6:ea:f7:9a:06:
         65:e1:6c:77:45:76:51:2d:74:2d:16:6a:0b:1b:76:d7:46:2f:
         e1:30:ea:59:c9:0f:da:43:c6:bf:4b:0e:31:9c:ae:80:0a:bb:
         86:d0:ee:91:0d:9a:72:3e:8d:c4:bc:08:43:d2:31:ba:06:2b:
         b6:27:ba:f1:bb:56:22:1a:f8:b4:46:32:da:bf:0a:1c:a6:1e:
         4b:03:23:c1
-----BEGIN CERTIFICATE-----
MIIEWDCCA0CgAwIBAgIJANjT46bL481vMA0GCSqGSIb3DQEBCwUAMEExCzAJBgNV
BAYTAkZJMRAwDgYDVQQHDAdUdXVzdWxhMQ4wDAYDVQQKDAV3MS5maTEQMA4GA1UE
AwwHUm9vdCBDQTAeFw0yMTA1MDMxNzAyNTNaFw0yMjA1MDMxNzAyNTNaMD0xCzAJ
BgNVBAYTAkZJMQ4wDAYDVQQKDAV3MS5maTEeMBwGA1UEAwwVc2VydmVyLXBvbGlj
aWVzLncxLmZpMIIBojANBgkqhkiG9w0BAQEFAAOCAY8AMIIBigKCAYEA0qbvm71g
Y6F1rUvTb1lehPpkoGQkC3hI/I1miy9uHUQrrsNtlLrLozS+C05HjVvZmaaoBwmH
VbI3fkdnXHRfLIN5sghHtOxP73VYZ8ZYTE9owRgahE14I0iaFDhuW0oS64bE90w4
rGOnYfqzZHyJDin3n/h1w++QwnGWoatp08J0E8/o9wmY7Tp51sRGSZN4Oxalqd3w
671Ep9xOzvenyT94CIsFxhcu7t8RoPf1WIB2wjTvuXi+xFy+X17Xt82jEsTjdvxk
hWRla9pcyThQOYly5SDvuQvMMiY8eV5KjXiNat1zOshCJ0MN3QUfvITfVi1+mFCe
i3iw5/2oOQdXBRL8AO+J8D8D9pNbsERXYWFHBWzEFphhuJMyRTn7u447hxhfOgdX
0ZiJHYW3XuobUXmUXNj6vbp1AAPj9APNXNsWoay39JN+7Jqw5pxOXTy6ATLMcMpJ
PJL+0oiBndv0u4D+74lQ6oCVvcT6KNjAhmE315krjrkGeJoIRBfaGTWXAgMBAAGj
gdYwgdMwCQYDVR0TBAIwADAdBgNVHQ4EFgQUPq0NTX76okrV9THqtrS/g7FVfscw
HwYDVR0jBBgwFoAUpP25ORuBs6rriB3Ugam1EXDMp+EwNQYIKwYBBQUHAQEEKTAn
MCUGCCsGAQUFBzABhhlodHRwOi8vc2VydmVyLncxLmZpOjg4ODgvMCAGA1UdEQQZ
MBeCFXNlcnZlci1wb2xpY2llcy53MS5maTAYBgNVHSAEETAPMA0GCysGAQQBgr5o
AQMBMBMGA1UdJQQMMAoGCCsGAQUFBwMBMA0GCSqGSIb3DQEBCwUAA4IBAQCukVjY
DwMCToTazRN9XNBSBAh/6hJzXa2hZKIN5oPK+jV9HjW9JF0Ztxv03XWghmBl4HNp
Va43E4KZrYr73nNRRbY44DpssPHoswkQ+YmHyWS+rCfCzOkb3A/EN44eoxYsQu3a
ySfA7v1FYrHmccqloztrYgP7o6r9tA7iP9HBJ5JU6Po0AdNPIm4AJOc0eubvbtNr
rvKp3915Gx/uUlZpJtwO6EifNhEOx3xI7ArC1ur3mgZl4Wx3RXZRLXQtFmoLG3bX
Ri/hMOpZyQ/aQ8a/Sw4xnK6ACruG0O6RDZpyPo3EvAhD0jG6Biu2J7rxu1YiGvi0
RjLavwocph5LAyPB
-----END CERTIFICATE-----
