Certificate:
    Data:
        Version: 3 (0x2)
        Serial Number: 14110776913249282218 (0xc3d38cd72b01a8aa)
    Signature Algorithm: sha384WithRSAEncryption
        Issuer: C=FI, L=Helsinki, O=w1.fi, CN=SHA384 and SHA512 Root CA
        Validity
            Not Before: Nov 29 22:33:25 2015 GMT
            Not After : Nov 26 22:33:25 2025 GMT
        Subject: C=FI, O=w1.fi, CN=sha384.server.w1.fi
        Subject Public Key Info:
            Public Key Algorithm: rsaEncryption
                Public-Key: (3072 bit)
                Modulus:
                    00:e6:f7:58:c1:4d:d6:73:97:bf:69:e1:93:e4:95:
                    c2:b9:12:83:8c:be:3d:fe:f9:07:59:fb:ba:45:2a:
                    60:c5:1d:7f:2a:a9:f9:3a:1d:7c:f8:7e:41:57:31:
                    8a:24:57:6a:45:bd:18:7e:8b:ec:2f:6c:03:dc:38:
                    b2:3a:73:14:92:4b:3d:36:ca:ca:51:91:c3:75:84:
                    39:44:45:f8:c8:ac:ca:c9:ab:93:39:1a:0a:13:d4:
                    5d:b3:43:45:9c:fa:29:d7:0d:eb:60:20:6d:50:39:
                    bf:aa:a1:04:77:9b:13:02:40:ba:61:a2:1b:fc:9f:
                    62:64:5b:af:8b:99:db:7d:ce:cc:7d:b4:e4:16:8c:
                    54:81:dd:81:5d:71:be:32:84:63:f9:b0:9e:27:f0:
                    46:a7:a4:d7:51:93:43:5b:74:a7:df:7a:10:c3:c5:
                    75:2d:6f:83:b5:53:a8:bf:1f:53:45:03:4f:e5:fe:
                    83:74:22:e8:70:5e:47:64:bf:c8:a4:76:93:e4:7b:
                    e1:6a:0a:9f:07:e8:26:4c:bd:9a:c2:dc:8b:49:a4:
                    89:be:93:f7:97:23:20:2f:5b:88:5a:83:fe:f9:19:
                    f1:9e:57:b6:f8:32:75:5e:81:cc:a5:5a:d6:9c:16:
                    96:83:46:c9:25:7c:04:ad:31:77:79:10:e8:82:e1:
                    c9:80:34:86:2e:a6:86:70:7e:24:9a:76:d8:64:f4:
                    16:c1:ab:34:40:72:9b:c5:96:38:05:79:47:91:e4:
                    df:12:b7:80:75:9e:83:f0:6a:da:0c:b8:cc:e1:58:
                    6d:bc:22:ff:e1:36:bf:11:8f:fb:f3:5b:39:ce:d3:
                    1a:77:94:f7:24:64:f5:47:ce:b9:74:f1:4d:50:48:
                    7f:63:e9:2a:ac:98:63:18:d5:8e:2b:89:11:b3:36:
                    45:1f:a3:b7:95:f4:60:7c:90:aa:7a:a1:63:3a:4c:
                    2b:b2:45:b3:21:4b:42:c1:fd:33:47:df:af:36:a0:
                    12:4c:11:fb:4a:e4:70:62:4d:ff
                Exponent: 65537 (0x10001)
        X509v3 extensions:
            X509v3 Basic Constraints: critical
                CA:FALSE
            X509v3 Subject Key Identifier: 
                C8:A6:E4:81:75:69:7C:09:1D:A1:E6:14:CE:62:65:4E:56:D8:92:79
            X509v3 Authority Key Identifier: 
                keyid:0E:74:B5:09:EC:FB:FA:E7:BA:6B:1A:F6:2B:28:7E:A9:70:DA:D7:18

            X509v3 Subject Alternative Name: critical
                DNS:sha384.server.w1.fi
            X509v3 Extended Key Usage: critical
                TLS Web Server Authentication
            X509v3 Key Usage: 
                Digital Signature, Key Encipherment
    Signature Algorithm: sha384WithRSAEncryption
         04:da:fd:8c:4d:ae:05:1a:bc:39:7d:b4:6e:b1:fa:9e:6c:39:
         a1:58:24:49:59:0b:2a:d9:2c:c3:64:93:07:72:b0:37:3e:24:
         9d:b0:b4:6e:d7:4c:75:57:74:1a:4a:f1:34:4f:83:3d:eb:b3:
         77:a0:b3:1a:90:f2:6b:57:7b:46:a2:cb:f4:31:d8:9f:e8:1f:
         5c:3f:b3:ac:ff:2d:c8:d5:f2:1b:dd:7c:9b:b8:7f:61:13:3a:
         b1:14:82:4d:52:cf:d0:dc:6f:20:e7:94:06:6b:9f:6d:49:dc:
         41:9b:9e:66:41:d6:45:15:af:92:00:6d:75:5f:95:93:ec:29:
         7d:f9:a8:57:1a:16:a4:f9:9e:ac:e1:86:f2:d3:38:25:16:e3:
         a1:f2:9f:3b:7e:a7:9b:b9:e7:24:0f:f3:da:66:c4:de:34:3c:
         75:58:b2:64:e2:d1:2e:6d:ac:f8:03:d9:d2:a9:b6:67:d9:98:
         51:76:b5:1f:a8:a0:5f:73:65:dd:52:04:88:f4:e6:d7:cb:94:
         83:ac:08:29:25:c5:aa:8a:44:6d:73:14:cf:9a:48:24:ab:46:
         d1:85:ee:29:81:e6:23:03:82:57:34:2c:f8:e1:5f:03:53:79:
         f7:ca:b3:58:2c:60:8f:52:d1:20:6e:f0:5a:f4:7e:52:fa:a8:
         fa:4d:6c:a8:67:d6:da:a5:da:9c:54:c6:34:3a:ca:06:32:a8:
         45:3b:41:95:6e:81:07:9b:f4:fb:6a:4b:7c:ee:d5:7f:30:7e:
         c2:39:8d:88:b4:c9:62:5f:14:3a:1c:48:9d:b6:06:d8:8e:12:
         1c:99:e0:d6:7a:a6:e4:0a:b4:23:33:98:3a:00:5b:2d:d2:0a:
         05:b8:9c:1f:9d:f0:1e:a0:d4:88:35:0e:47:bc:59:f3:f2:08:
         5e:f6:11:b2:53:b3:b4:80:c9:3b:18:e4:51:45:43:9b:7b:8f:
         7d:23:0b:2e:66:da:29:b9:0c:98:16:7a:2b:b5:a7:37:e1:f6:
         20:cc:06:56:50:7c:36:6b:f3:c8:00:08:7b:bb:df:4d:94:e1:
         04:49:7b:e7:c7:77:66:c1:42:59:f3:40:91:eb:c7:98:14:cc:
         3f:26:0d:7c:8a:c9:9e:ce:2e:82:99:5b:b3:9a:39:a4:56:8d:
         46:13:fa:dc:6e:a0:6d:43:68:05:53:78:c9:d7:dd:45:ca:b1:
         0f:ca:ef:e5:5f:54:8e:52:94:ee:4b:ab:0d:dd:02:81:e5:92:
         d9:b8:6a:58:7f:14:f4:a7:9a:18:9c:51:4f:ec:5f:7e:6e:b1:
         4a:46:bf:5d:c7:4f:19:16:f5:df:0c:fc:92:4b:d8:23:e9:7b:
         43:38:82:5e:82:f7:04:e1
-----BEGIN CERTIFICATE-----
MIIFLDCCAxSgAwIBAgIJAMPTjNcrAaiqMA0GCSqGSIb3DQEBDAUAMFQxCzAJBgNV
BAYTAkZJMREwDwYDVQQHDAhIZWxzaW5raTEOMAwGA1UECgwFdzEuZmkxIjAgBgNV
BAMMGVNIQTM4NCBhbmQgU0hBNTEyIFJvb3QgQ0EwHhcNMTUxMTI5MjIzMzI1WhcN
MjUxMTI2MjIzMzI1WjA7MQswCQYDVQQGEwJGSTEOMAwGA1UECgwFdzEuZmkxHDAa
BgNVBAMME3NoYTM4NC5zZXJ2ZXIudzEuZmkwggGiMA0GCSqGSIb3DQEBAQUAA4IB
jwAwggGKAoIBgQDm91jBTdZzl79p4ZPklcK5EoOMvj3++QdZ+7pFKmDFHX8qqfk6
HXz4fkFXMYokV2pFvRh+i+wvbAPcOLI6cxSSSz02yspRkcN1hDlERfjIrMrJq5M5
GgoT1F2zQ0Wc+inXDetgIG1QOb+qoQR3mxMCQLphohv8n2JkW6+Lmdt9zsx9tOQW
jFSB3YFdcb4yhGP5sJ4n8EanpNdRk0NbdKffehDDxXUtb4O1U6i/H1NFA0/l/oN0
IuhwXkdkv8ikdpPke+FqCp8H6CZMvZrC3ItJpIm+k/eXIyAvW4hag/75GfGeV7b4
MnVegcylWtacFpaDRsklfAStMXd5EOiC4cmANIYupoZwfiSadthk9BbBqzRAcpvF
ljgFeUeR5N8St4B1noPwatoMuMzhWG28Iv/hNr8Rj/vzWznO0xp3lPckZPVHzrl0
8U1QSH9j6SqsmGMY1Y4riRGzNkUfo7eV9GB8kKp6oWM6TCuyRbMhS0LB/TNH3682
oBJMEftK5HBiTf8CAwEAAaOBmTCBljAMBgNVHRMBAf8EAjAAMB0GA1UdDgQWBBTI
puSBdWl8CR2h5hTOYmVOVtiSeTAfBgNVHSMEGDAWgBQOdLUJ7Pv657prGvYrKH6p
cNrXGDAhBgNVHREBAf8EFzAVghNzaGEzODQuc2VydmVyLncxLmZpMBYGA1UdJQEB
/wQMMAoGCCsGAQUFBwMBMAsGA1UdDwQEAwIFoDANBgkqhkiG9w0BAQwFAAOCAgEA
BNr9jE2uBRq8OX20brH6nmw5oVgkSVkLKtksw2STB3KwNz4knbC0btdMdVd0Gkrx
NE+DPeuzd6CzGpDya1d7RqLL9DHYn+gfXD+zrP8tyNXyG918m7h/YRM6sRSCTVLP
0NxvIOeUBmufbUncQZueZkHWRRWvkgBtdV+Vk+wpffmoVxoWpPmerOGG8tM4JRbj
ofKfO36nm7nnJA/z2mbE3jQ8dViyZOLRLm2s+APZ0qm2Z9mYUXa1H6igX3Nl3VIE
iPTm18uUg6wIKSXFqopEbXMUz5pIJKtG0YXuKYHmIwOCVzQs+OFfA1N598qzWCxg
j1LRIG7wWvR+Uvqo+k1sqGfW2qXanFTGNDrKBjKoRTtBlW6BB5v0+2pLfO7VfzB+
wjmNiLTJYl8UOhxInbYG2I4SHJng1nqm5Aq0IzOYOgBbLdIKBbicH53wHqDUiDUO
R7xZ8/IIXvYRslOztIDJOxjkUUVDm3uPfSMLLmbaKbkMmBZ6K7WnN+H2IMwGVlB8
NmvzyAAIe7vfTZThBEl758d3ZsFCWfNAkevHmBTMPyYNfIrJns4ugplbs5o5pFaN
RhP63G6gbUNoBVN4ydfdRcqxD8rv5V9UjlKU7kurDd0CgeWS2bhqWH8U9KeaGJxR
T+xffm6xSka/XcdPGRb13wz8kkvYI+l7QziCXoL3BOE=
-----END CERTIFICATE-----
