Certificate:
    Data:
        Version: 3 (0x2)
        Serial Number:
            d8:d3:e3:a6:cb:e3:cd:65
        Signature Algorithm: sha256WithRSAEncryption
        Issuer: C=FI, L=Tuusula, O=w1.fi, CN=Root CA
        Validity
            Not Before: May  2 19:55:38 2020 GMT
            Not After : May  2 19:55:38 2021 GMT
        Subject: C=FI, O=w1.fi, CN=Test User
        Subject Public Key Info:
            Public Key Algorithm: rsaEncryption
                RSA Public-Key: (2048 bit)
                Modulus:
                    00:bc:24:08:d9:07:6d:19:0e:94:5c:6b:d9:8a:84:
                    1b:03:22:e2:1a:06:42:d3:0b:60:8d:5f:31:04:06:
                    fa:a2:40:6a:0c:24:29:58:cd:83:bf:3a:9d:7f:37:
                    0d:4d:27:5d:d5:57:57:1c:f3:be:75:3f:3a:4c:44:
                    6f:02:2f:5b:8b:2c:b0:5c:47:29:19:31:08:d1:28:
                    f5:1e:9c:5b:9c:b7:e7:6b:40:35:10:3e:7f:66:67:
                    16:a1:4e:68:8a:71:cc:32:58:e3:08:87:a2:2a:07:
                    2d:7f:73:f6:43:e5:7f:f4:f6:74:ae:27:e8:d2:5c:
                    ae:9b:82:d9:a5:2a:72:76:84:2f:e3:62:aa:41:1e:
                    de:33:b7:64:f8:79:6f:fa:09:b5:bc:b0:8c:cd:34:
                    82:2d:c4:10:55:89:ea:6c:38:92:fe:61:d6:64:84:
                    04:d4:0a:37:32:37:8d:c3:55:d1:fc:ab:b8:55:06:
                    a9:00:4f:31:e2:42:f1:e7:b4:2e:9c:45:0d:dc:a9:
                    f9:ad:b2:77:c1:f0:b1:c3:a2:5a:26:90:bd:19:2f:
                    46:1d:a5:21:3d:f0:35:62:94:c8:cf:33:3f:d8:a2:
                    5d:df:cc:58:00:08:8d:ed:b1:04:c5:2b:3f:1a:15:
                    f6:92:08:d4:f1:42:cd:6c:db:f2:ff:e0:6e:69:84:
                    d8:8b
                Exponent: 65537 (0x10001)
        X509v3 extensions:
            X509v3 Basic Constraints: 
                CA:FALSE
            X509v3 Subject Key Identifier: 
                FB:85:00:A8:DF:D6:0C:0E:A7:E3:39:61:D9:BE:CE:2A:EF:6D:28:D8
            X509v3 Authority Key Identifier: 
                keyid:A4:FD:B9:39:1B:81:B3:AA:EB:88:1D:D4:81:A9:B5:11:70:CC:A7:E1

            Authority Information Access: 
                OCSP - URI:http://server.w1.fi:8888/

            X509v3 Extended Key Usage: 
                TLS Web Client Authentication
    Signature Algorithm: sha256WithRSAEncryption
         94:10:ec:75:db:4d:98:80:bd:b7:b2:b1:4d:b8:99:0a:ba:e1:
         47:d4:ef:50:48:5b:89:97:8b:ee:ee:56:2e:e6:ba:2d:0c:90:
         59:29:a1:c9:10:08:9a:c7:e9:57:42:5a:f6:7e:72:cd:d9:ff:
         8b:b2:13:6f:6e:e1:49:04:a5:82:cd:10:59:37:a5:9a:b2:2c:
         6e:a7:9e:ba:1f:e3:b7:79:79:37:65:a8:9b:49:39:c2:13:7d:
         6d:a8:37:23:c4:10:c9:73:25:67:1f:78:fb:b6:86:00:c1:1a:
         60:d7:5e:b9:63:c6:43:41:dd:37:0f:39:c9:fa:ff:8a:f9:62:
         59:00:e6:91:cd:79:28:82:db:30:88:c5:b8:79:8e:63:4c:65:
         50:3d:d2:65:b3:45:62:e5:d1:6f:1c:c1:1f:c2:b5:1a:0f:31:
         75:62:b3:7d:0b:8d:36:f9:43:eb:26:59:59:29:39:ad:37:0c:
         4f:95:7e:86:05:f5:70:fa:45:de:3c:f5:7e:e1:29:bc:82:d3:
         a0:63:73:a3:e1:25:f3:5a:14:2d:c7:78:da:aa:e2:8a:df:08:
         c5:be:1f:d3:9f:70:0b:7d:ea:5b:f4:2d:22:94:e6:95:92:50:
         e2:55:72:13:c5:a1:3a:44:c4:25:18:9d:9d:a9:c8:c0:ea:7a:
         d6:76:91:4e
-----BEGIN CERTIFICATE-----
MIIDkDCCAnigAwIBAgIJANjT46bL481lMA0GCSqGSIb3DQEBCwUAMEExCzAJBgNV
BAYTAkZJMRAwDgYDVQQHDAdUdXVzdWxhMQ4wDAYDVQQKDAV3MS5maTEQMA4GA1UE
AwwHUm9vdCBDQTAeFw0yMDA1MDIxOTU1MzhaFw0yMTA1MDIxOTU1MzhaMDExCzAJ
BgNVBAYTAkZJMQ4wDAYDVQQKDAV3MS5maTESMBAGA1UEAwwJVGVzdCBVc2VyMIIB
IjANBgkqhkiG9w0BAQEFAAOCAQ8AMIIBCgKCAQEAvCQI2QdtGQ6UXGvZioQbAyLi
GgZC0wtgjV8xBAb6okBqDCQpWM2DvzqdfzcNTSdd1VdXHPO+dT86TERvAi9biyyw
XEcpGTEI0Sj1HpxbnLfna0A1ED5/ZmcWoU5oinHMMljjCIeiKgctf3P2Q+V/9PZ0
rifo0lyum4LZpSpydoQv42KqQR7eM7dk+Hlv+gm1vLCMzTSCLcQQVYnqbDiS/mHW
ZIQE1Ao3MjeNw1XR/Ku4VQapAE8x4kLx57QunEUN3Kn5rbJ3wfCxw6JaJpC9GS9G
HaUhPfA1YpTIzzM/2KJd38xYAAiN7bEExSs/GhX2kgjU8ULNbNvy/+BuaYTYiwID
AQABo4GaMIGXMAkGA1UdEwQCMAAwHQYDVR0OBBYEFPuFAKjf1gwOp+M5Ydm+zirv
bSjYMB8GA1UdIwQYMBaAFKT9uTkbgbOq64gd1IGptRFwzKfhMDUGCCsGAQUFBwEB
BCkwJzAlBggrBgEFBQcwAYYZaHR0cDovL3NlcnZlci53MS5maTo4ODg4LzATBgNV
HSUEDDAKBggrBgEFBQcDAjANBgkqhkiG9w0BAQsFAAOCAQEAlBDsddtNmIC9t7Kx
TbiZCrrhR9TvUEhbiZeL7u5WLua6LQyQWSmhyRAImsfpV0Ja9n5yzdn/i7ITb27h
SQSlgs0QWTelmrIsbqeeuh/jt3l5N2Wom0k5whN9bag3I8QQyXMlZx94+7aGAMEa
YNdeuWPGQ0HdNw85yfr/ivliWQDmkc15KILbMIjFuHmOY0xlUD3SZbNFYuXRbxzB
H8K1Gg8xdWKzfQuNNvlD6yZZWSk5rTcMT5V+hgX1cPpF3jz1fuEpvILToGNzo+El
81oULcd42qriit8Ixb4f059wC33qW/QtIpTmlZJQ4lVyE8WhOkTEJRidnanIwOp6
1naRTg==
-----END CERTIFICATE-----
