Certificate:
    Data:
        Version: 3 (0x2)
        Serial Number:
            d8:d3:e3:a6:cb:e3:cd:71
        Signature Algorithm: sha256WithRSAEncryption
        Issuer: C=FI, L=Tuusula, O=w1.fi, CN=Root CA
        Validity
            Not Before: May  3 17:02:53 2021 GMT
            Not After : May  3 17:02:53 2022 GMT
        Subject: C=FI, O=w1.fi, CN=Test User
        Subject Public Key Info:
            Public Key Algorithm: rsaEncryption
                RSA Public-Key: (2048 bit)
                Modulus:
                    00:bc:24:08:d9:07:6d:19:0e:94:5c:6b:d9:8a:84:
                    1b:03:22:e2:1a:06:42:d3:0b:60:8d:5f:31:04:06:
                    fa:a2:40:6a:0c:24:29:58:cd:83:bf:3a:9d:7f:37:
                    0d:4d:27:5d:d5:57:57:1c:f3:be:75:3f:3a:4c:44:
                    6f:02:2f:5b:8b:2c:b0:5c:47:29:19:31:08:d1:28:
                    f5:1e:9c:5b:9c:b7:e7:6b:40:35:10:3e:7f:66:67:
                    16:a1:4e:68:8a:71:cc:32:58:e3:08:87:a2:2a:07:
                    2d:7f:73:f6:43:e5:7f:f4:f6:74:ae:27:e8:d2:5c:
                    ae:9b:82:d9:a5:2a:72:76:84:2f:e3:62:aa:41:1e:
                    de:33:b7:64:f8:79:6f:fa:09:b5:bc:b0:8c:cd:34:
                    82:2d:c4:10:55:89:ea:6c:38:92:fe:61:d6:64:84:
                    04:d4:0a:37:32:37:8d:c3:55:d1:fc:ab:b8:55:06:
                    a9:00:4f:31:e2:42:f1:e7:b4:2e:9c:45:0d:dc:a9:
                    f9:ad:b2:77:c1:f0:b1:c3:a2:5a:26:90:bd:19:2f:
                    46:1d:a5:21:3d:f0:35:62:94:c8:cf:33:3f:d8:a2:
                    5d:df:cc:58:00:08:8d:ed:b1:04:c5:2b:3f:1a:15:
                    f6:92:08:d4:f1:42:cd:6c:db:f2:ff:e0:6e:69:84:
                    d8:8b
                Exponent: 65537 (0x10001)
        X509v3 extensions:
            X509v3 Basic Constraints: 
                CA:FALSE
            X509v3 Subject Key Identifier: 
                FB:85:00:A8:DF:D6:0C:0E:A7:E3:39:61:D9:BE:CE:2A:EF:6D:28:D8
            X509v3 Authority Key Identifier: 
                keyid:A4:FD:B9:39:1B:81:B3:AA:EB:88:1D:D4:81:A9:B5:11:70:CC:A7:E1

            Authority Information Access: 
                OCSP - URI:http://server.w1.fi:8888/

            X509v3 Extended Key Usage: 
                TLS Web Client Authentication
    Signature Algorithm: sha256WithRSAEncryption
         a1:96:48:41:04:5c:06:bd:0b:34:59:c0:49:fa:d6:08:e4:30:
         79:cf:0d:42:36:10:a1:4a:8d:41:f9:c4:91:1b:8c:cf:36:24:
         21:e8:cc:d8:7e:ac:cc:ca:79:fd:49:fa:6d:0b:20:3f:cc:1e:
         0b:df:bc:ac:3d:f6:19:c6:99:f9:5f:86:17:ce:00:63:8a:95:
         42:4c:92:5e:d7:5c:6d:1c:3a:13:b9:3e:d1:dd:d0:78:0d:7e:
         b4:13:19:95:4b:e0:7f:11:97:41:c2:92:de:f0:43:0f:8b:36:
         53:0f:5d:d9:12:16:85:22:bf:8f:e6:b1:95:94:0b:dc:ff:3a:
         a3:ce:27:f9:1d:58:20:bc:0c:45:d7:96:fc:76:de:26:57:58:
         d0:e2:57:d3:32:e1:c5:1b:37:0c:54:36:ed:5b:0d:d4:ef:cc:
         43:c6:a6:66:0f:ce:33:4f:96:b9:22:6d:1d:1d:3f:4c:6c:05:
         68:8d:48:2b:12:37:2a:d5:05:33:e0:b5:12:8f:00:73:43:64:
         0e:28:75:04:b8:6f:29:da:22:e7:2c:78:97:f8:b0:37:8e:f6:
         0d:04:98:e1:2f:6e:fd:40:97:54:50:2c:ca:cf:68:16:55:ca:
         c0:37:bd:d5:3c:5e:50:64:4b:dd:3c:d3:b4:88:25:a9:11:d3:
         60:bc:a7:88
-----BEGIN CERTIFICATE-----
MIIDkDCCAnigAwIBAgIJANjT46bL481xMA0GCSqGSIb3DQEBCwUAMEExCzAJBgNV
BAYTAkZJMRAwDgYDVQQHDAdUdXVzdWxhMQ4wDAYDVQQKDAV3MS5maTEQMA4GA1UE
AwwHUm9vdCBDQTAeFw0yMTA1MDMxNzAyNTNaFw0yMjA1MDMxNzAyNTNaMDExCzAJ
BgNVBAYTAkZJMQ4wDAYDVQQKDAV3MS5maTESMBAGA1UEAwwJVGVzdCBVc2VyMIIB
IjANBgkqhkiG9w0BAQEFAAOCAQ8AMIIBCgKCAQEAvCQI2QdtGQ6UXGvZioQbAyLi
GgZC0wtgjV8xBAb6okBqDCQpWM2DvzqdfzcNTSdd1VdXHPO+dT86TERvAi9biyyw
XEcpGTEI0Sj1HpxbnLfna0A1ED5/ZmcWoU5oinHMMljjCIeiKgctf3P2Q+V/9PZ0
rifo0lyum4LZpSpydoQv42KqQR7eM7dk+Hlv+gm1vLCMzTSCLcQQVYnqbDiS/mHW
ZIQE1Ao3MjeNw1XR/Ku4VQapAE8x4kLx57QunEUN3Kn5rbJ3wfCxw6JaJpC9GS9G
HaUhPfA1YpTIzzM/2KJd38xYAAiN7bEExSs/GhX2kgjU8ULNbNvy/+BuaYTYiwID
AQABo4GaMIGXMAkGA1UdEwQCMAAwHQYDVR0OBBYEFPuFAKjf1gwOp+M5Ydm+zirv
bSjYMB8GA1UdIwQYMBaAFKT9uTkbgbOq64gd1IGptRFwzKfhMDUGCCsGAQUFBwEB
BCkwJzAlBggrBgEFBQcwAYYZaHR0cDovL3NlcnZlci53MS5maTo4ODg4LzATBgNV
HSUEDDAKBggrBgEFBQcDAjANBgkqhkiG9w0BAQsFAAOCAQEAoZZIQQRcBr0LNFnA
SfrWCOQwec8NQjYQoUqNQfnEkRuMzzYkIejM2H6szMp5/Un6bQsgP8weC9+8rD32
GcaZ+V+GF84AY4qVQkySXtdcbRw6E7k+0d3QeA1+tBMZlUvgfxGXQcKS3vBDD4s2
Uw9d2RIWhSK/j+axlZQL3P86o84n+R1YILwMRdeW/HbeJldY0OJX0zLhxRs3DFQ2
7VsN1O/MQ8amZg/OM0+WuSJtHR0/TGwFaI1IKxI3KtUFM+C1Eo8Ac0NkDih1BLhv
Kdoi5yx4l/iwN472DQSY4S9u/UCXVFAsys9oFlXKwDe91TxeUGRL3TzTtIglqRHT
YLyniA==
-----END CERTIFICATE-----
