Certificate:
    Data:
        Version: 3 (0x2)
        Serial Number:
            59:db:b0:44:3b:5a:59:c8:8e:2b:14:38:c4:3b:60:b6:1f:a5:fe:38
        Signature Algorithm: sha256WithRSAEncryption
        Issuer: C = FI, L = Tuusula, O = w1.fi, CN = TEST - Incorrect Root CA
        Validity
            Not Before: May  2 19:49:48 2020 GMT
            Not After : Apr 30 19:49:48 2030 GMT
        Subject: C = FI, L = Tuusula, O = w1.fi, CN = TEST - Incorrect Root CA
        Subject Public Key Info:
            Public Key Algorithm: rsaEncryption
                RSA Public-Key: (2048 bit)
                Modulus:
                    00:a8:ae:44:f3:8e:27:4c:9a:95:0d:1b:bf:16:e8:
                    70:c4:ac:d0:61:02:06:55:5f:a8:2b:cd:7f:af:d6:
                    5f:58:c7:35:22:b6:9c:20:40:fd:f5:f4:f9:4c:74:
                    71:83:b5:8e:c4:d6:1d:24:c2:5a:e6:89:fb:00:ea:
                    9e:84:8e:4d:68:e0:16:33:2e:76:6d:70:2f:e7:86:
                    ef:33:8f:20:9a:90:38:60:be:9c:1b:cc:be:66:e9:
                    3c:15:b0:91:f2:02:15:2c:99:da:4e:64:e1:47:ff:
                    25:58:ce:09:8d:d6:39:ca:8b:b3:13:9c:45:20:5d:
                    a7:ed:b3:96:49:f7:ec:9f:d6:3b:b5:1b:fa:4c:ca:
                    76:69:71:ac:a5:9f:67:df:31:a8:80:cf:b6:06:6d:
                    e7:e3:18:b2:9e:92:38:0e:5f:cd:94:7d:9a:aa:be:
                    43:2e:e9:be:6e:fa:14:91:45:17:b1:0c:4a:ac:41:
                    9c:4e:4f:f5:fc:88:ee:15:2f:ab:56:bb:c2:d5:53:
                    e3:c9:f9:b2:92:88:87:d6:a0:d8:2a:a7:30:1d:76:
                    bb:f4:90:05:b9:f6:ef:11:0a:32:3f:7b:25:dc:7b:
                    2c:2c:09:c1:10:d9:5d:89:c2:32:fb:a7:83:a2:97:
                    8c:b2:cb:11:c7:02:2e:67:99:0e:d9:db:6e:54:b3:
                    37:09
                Exponent: 65537 (0x10001)
        X509v3 extensions:
            X509v3 Subject Key Identifier: 
                0B:56:70:D1:C5:1C:DE:A7:F3:27:07:62:EA:F9:32:BD:C6:95:DD:51
            X509v3 Authority Key Identifier: 
                keyid:0B:56:70:D1:C5:1C:DE:A7:F3:27:07:62:EA:F9:32:BD:C6:95:DD:51

            X509v3 Basic Constraints: 
                CA:TRUE
    Signature Algorithm: sha256WithRSAEncryption
         9f:dd:16:ec:26:65:db:7b:49:82:83:f7:72:49:84:44:9e:b7:
         ec:fa:35:53:f9:7c:fd:e1:1e:b0:ec:bc:44:45:6e:47:26:9a:
         d4:03:91:e5:72:25:3d:86:93:e0:9a:9a:e2:95:f2:e9:3d:57:
         26:d4:7e:0a:36:9f:db:f0:76:09:51:98:9c:e9:96:cc:64:5e:
         c6:c7:d1:59:46:da:4d:03:5a:4f:64:f6:b0:2b:f8:12:f2:a1:
         0a:f2:a4:b9:df:0e:5f:b4:f3:18:26:0e:ab:18:29:33:5c:40:
         54:48:f6:c2:37:ea:62:45:ae:d6:39:fe:75:f0:61:ff:3d:65:
         3e:65:38:e9:07:08:2f:ea:d0:80:8a:4d:0a:62:9c:ae:22:45:
         aa:7e:09:be:43:ce:bd:fc:f7:8c:b4:ba:e2:52:f1:1d:79:7c:
         ad:2f:09:29:82:6d:0d:64:d1:25:a3:9b:36:eb:1b:e0:f0:04:
         18:c4:29:d3:2e:c7:67:12:fa:3d:1f:81:e3:2c:5b:25:63:8c:
         c8:1c:9b:bd:e6:c1:22:c8:34:17:fd:64:3a:3f:30:75:36:18:
         e2:2d:49:16:07:ad:ba:ce:28:c7:df:06:81:57:55:cd:34:7b:
         81:fd:5e:97:5d:c5:d1:dd:f1:61:2d:f5:ce:06:7f:4d:2e:a4:
         5e:77:9b:d1
-----BEGIN CERTIFICATE-----
MIIDgjCCAmqgAwIBAgIUWduwRDtaWciOKxQ4xDtgth+l/jgwDQYJKoZIhvcNAQEL
BQAwUjELMAkGA1UEBhMCRkkxEDAOBgNVBAcMB1R1dXN1bGExDjAMBgNVBAoMBXcx
LmZpMSEwHwYDVQQDDBhURVNUIC0gSW5jb3JyZWN0IFJvb3QgQ0EwHhcNMjAwNTAy
MTk0OTQ4WhcNMzAwNDMwMTk0OTQ4WjBSMQswCQYDVQQGEwJGSTEQMA4GA1UEBwwH
VHV1c3VsYTEOMAwGA1UECgwFdzEuZmkxITAfBgNVBAMMGFRFU1QgLSBJbmNvcnJl
Y3QgUm9vdCBDQTCCASIwDQYJKoZIhvcNAQEBBQADggEPADCCAQoCggEBAKiuRPOO
J0yalQ0bvxbocMSs0GECBlVfqCvNf6/WX1jHNSK2nCBA/fX0+Ux0cYO1jsTWHSTC
WuaJ+wDqnoSOTWjgFjMudm1wL+eG7zOPIJqQOGC+nBvMvmbpPBWwkfICFSyZ2k5k
4Uf/JVjOCY3WOcqLsxOcRSBdp+2zlkn37J/WO7Ub+kzKdmlxrKWfZ98xqIDPtgZt
5+MYsp6SOA5fzZR9mqq+Qy7pvm76FJFFF7EMSqxBnE5P9fyI7hUvq1a7wtVT48n5
spKIh9ag2CqnMB12u/SQBbn27xEKMj97Jdx7LCwJwRDZXYnCMvung6KXjLLLEccC
LmeZDtnbblSzNwkCAwEAAaNQME4wHQYDVR0OBBYEFAtWcNHFHN6n8ycHYur5Mr3G
ld1RMB8GA1UdIwQYMBaAFAtWcNHFHN6n8ycHYur5Mr3Gld1RMAwGA1UdEwQFMAMB
Af8wDQYJKoZIhvcNAQELBQADggEBAJ/dFuwmZdt7SYKD93JJhESet+z6NVP5fP3h
HrDsvERFbkcmmtQDkeVyJT2Gk+CamuKV8uk9VybUfgo2n9vwdglRmJzplsxkXsbH
0VlG2k0DWk9k9rAr+BLyoQrypLnfDl+08xgmDqsYKTNcQFRI9sI36mJFrtY5/nXw
Yf89ZT5lOOkHCC/q0ICKTQpinK4iRap+Cb5Dzr3894y0uuJS8R15fK0vCSmCbQ1k
0SWjmzbrG+DwBBjEKdMux2cS+j0fgeMsWyVjjMgcm73mwSLINBf9ZDo/MHU2GOIt
SRYHrbrOKMffBoFXVc00e4H9XpddxdHd8WEt9c4Gf00upF53m9E=
-----END CERTIFICATE-----
