Certificate:
    Data:
        Version: 3 (0x2)
        Serial Number: 11095559361558864825 (0x99fb5873d9f9e3b9)
    Signature Algorithm: ecdsa-with-SHA256
        Issuer: C=FI, L=Helsinki, O=w1.fi, CN=Suite B 128-bit Root CA
        Validity
            Not Before: Feb  1 09:25:23 2016 GMT
            Not After : Jan 29 09:25:23 2026 GMT
        Subject: C=FI, O=w1.fi, CN=server.w1.fi
        Subject Public Key Info:
            Public Key Algorithm: id-ecPublicKey
                Public-Key: (256 bit)
                pub: 
                    04:26:ed:4c:6a:18:ad:d5:97:28:89:26:98:c1:ec:
                    35:ba:07:24:c6:94:86:56:f6:eb:65:45:5f:fc:81:
                    75:de:48:96:f8:90:4c:72:0a:d7:a2:e9:12:24:ec:
                    36:2d:5b:4b:2c:91:1f:db:86:07:45:24:fc:0f:0e:
                    ca:a7:3a:fe:6d
                ASN1 OID: prime256v1
        X509v3 extensions:
            X509v3 Basic Constraints: critical
                CA:FALSE
            X509v3 Subject Key Identifier: 
                A4:A4:2C:68:89:C6:74:44:B4:BF:9A:BF:5F:D6:02:2C:DC:FE:4F:5A
            X509v3 Authority Key Identifier: 
                keyid:73:2A:DC:08:8C:66:E6:05:53:B2:29:92:1C:DD:8A:9B:C0:26:CB:F8

            X509v3 Subject Alternative Name: critical
                DNS:server.w1.fi
            X509v3 Extended Key Usage: critical
                TLS Web Server Authentication
            X509v3 Key Usage: 
                Digital Signature, Key Encipherment
    Signature Algorithm: ecdsa-with-SHA256
         30:45:02:20:25:ec:c6:e5:a2:66:e9:3a:f5:fa:b0:4a:dd:24:
         89:fa:d0:e3:78:a6:2e:a5:da:39:8b:96:7a:ac:ae:17:1f:ef:
         02:21:00:a8:2a:d1:f1:54:73:b9:8e:b9:8b:48:63:54:01:b3:
         a3:cd:02:05:ba:d0:53:63:0b:d0:9c:f2:13:74:60:7a:a2
-----BEGIN CERTIFICATE-----
MIICEDCCAbagAwIBAgIJAJn7WHPZ+eO5MAoGCCqGSM49BAMCMFIxCzAJBgNVBAYT
AkZJMREwDwYDVQQHDAhIZWxzaW5raTEOMAwGA1UECgwFdzEuZmkxIDAeBgNVBAMM
F1N1aXRlIEIgMTI4LWJpdCBSb290IENBMB4XDTE2MDIwMTA5MjUyM1oXDTI2MDEy
OTA5MjUyM1owNDELMAkGA1UEBhMCRkkxDjAMBgNVBAoMBXcxLmZpMRUwEwYDVQQD
DAxzZXJ2ZXIudzEuZmkwWTATBgcqhkjOPQIBBggqhkjOPQMBBwNCAAQm7UxqGK3V
lyiJJpjB7DW6ByTGlIZW9utlRV/8gXXeSJb4kExyCtei6RIk7DYtW0sskR/bhgdF
JPwPDsqnOv5to4GSMIGPMAwGA1UdEwEB/wQCMAAwHQYDVR0OBBYEFKSkLGiJxnRE
tL+av1/WAizc/k9aMB8GA1UdIwQYMBaAFHMq3AiMZuYFU7IpkhzdipvAJsv4MBoG
A1UdEQEB/wQQMA6CDHNlcnZlci53MS5maTAWBgNVHSUBAf8EDDAKBggrBgEFBQcD
ATALBgNVHQ8EBAMCBaAwCgYIKoZIzj0EAwIDSAAwRQIgJezG5aJm6Tr1+rBK3SSJ
+tDjeKYupdo5i5Z6rK4XH+8CIQCoKtHxVHO5jrmLSGNUAbOjzQIFutBTYwvQnPIT
dGB6og==
-----END CERTIFICATE-----
