Certificate:
    Data:
        Version: 3 (0x2)
        Serial Number: 11095559361558864826 (0x99fb5873d9f9e3ba)
    Signature Algorithm: ecdsa-with-SHA256
        Issuer: C=FI, L=Helsinki, O=w1.fi, CN=Suite B 128-bit Root CA
        Validity
            Not Before: Feb  1 09:25:23 2016 GMT
            Not After : Jan 29 09:25:23 2026 GMT
        Subject: C=FI, O=w1.fi, CN=user
        Subject Public Key Info:
            Public Key Algorithm: id-ecPublicKey
                Public-Key: (256 bit)
                pub: 
                    04:0d:b0:28:87:67:db:cb:f8:64:c6:61:7d:1e:6f:
                    1f:cb:30:47:0a:96:83:cc:5b:80:c8:6f:92:62:64:
                    c1:aa:97:1c:c5:35:d7:7d:23:49:79:84:17:32:83:
                    d3:9b:5e:01:5d:68:22:4d:fe:d4:f7:f0:b7:14:7a:
                    25:23:9a:01:35
                ASN1 OID: prime256v1
        X509v3 extensions:
            X509v3 Basic Constraints: 
                CA:FALSE
            X509v3 Subject Key Identifier: 
                0E:0F:F9:64:AC:F9:DB:7C:45:22:9A:DF:E0:DB:1E:25:9D:8F:4D:C3
            X509v3 Authority Key Identifier: 
                keyid:73:2A:DC:08:8C:66:E6:05:53:B2:29:92:1C:DD:8A:9B:C0:26:CB:F8

            X509v3 Subject Alternative Name: 
                email:user@w1.fi
            X509v3 Extended Key Usage: 
                TLS Web Client Authentication
            X509v3 Key Usage: 
                Digital Signature, Key Encipherment
    Signature Algorithm: ecdsa-with-SHA256
         30:44:02:20:12:a1:d9:30:43:fb:12:3d:67:72:a2:12:24:7c:
         cb:1e:ce:f7:e6:fe:b6:79:b4:af:d8:85:72:49:2d:e9:de:01:
         02:20:18:f3:6a:65:5d:c0:04:df:28:5a:44:b1:5f:75:25:eb:
         a8:56:e9:5d:35:3c:9e:8d:63:cc:47:7f:22:a1:c0:27
-----BEGIN CERTIFICATE-----
MIIB/DCCAaOgAwIBAgIJAJn7WHPZ+eO6MAoGCCqGSM49BAMCMFIxCzAJBgNVBAYT
AkZJMREwDwYDVQQHDAhIZWxzaW5raTEOMAwGA1UECgwFdzEuZmkxIDAeBgNVBAMM
F1N1aXRlIEIgMTI4LWJpdCBSb290IENBMB4XDTE2MDIwMTA5MjUyM1oXDTI2MDEy
OTA5MjUyM1owLDELMAkGA1UEBhMCRkkxDjAMBgNVBAoMBXcxLmZpMQ0wCwYDVQQD
DAR1c2VyMFkwEwYHKoZIzj0CAQYIKoZIzj0DAQcDQgAEDbAoh2fby/hkxmF9Hm8f
yzBHCpaDzFuAyG+SYmTBqpccxTXXfSNJeYQXMoPTm14BXWgiTf7U9/C3FHolI5oB
NaOBhzCBhDAJBgNVHRMEAjAAMB0GA1UdDgQWBBQOD/lkrPnbfEUimt/g2x4lnY9N
wzAfBgNVHSMEGDAWgBRzKtwIjGbmBVOyKZIc3YqbwCbL+DAVBgNVHREEDjAMgQp1
c2VyQHcxLmZpMBMGA1UdJQQMMAoGCCsGAQUFBwMCMAsGA1UdDwQEAwIFoDAKBggq
hkjOPQQDAgNHADBEAiASodkwQ/sSPWdyohIkfMsezvfm/rZ5tK/YhXJJLeneAQIg
GPNqZV3ABN8oWkSxX3Ul66hW6V01PJ6NY8xHfyKhwCc=
-----END CERTIFICATE-----
