Certificate:
    Data:
        Version: 3 (0x2)
        Serial Number: 11652367451091730034 (0xa1b58675baa57e72)
    Signature Algorithm: ecdsa-with-SHA384
        Issuer: C=FI, L=Helsinki, O=w1.fi, CN=Suite B 192-bit Root CA
        Validity
            Not Before: Feb  1 09:26:24 2016 GMT
            Not After : Jan 29 09:26:24 2026 GMT
        Subject: C=FI, O=w1.fi, CN=user
        Subject Public Key Info:
            Public Key Algorithm: id-ecPublicKey
                Public-Key: (384 bit)
                pub: 
                    04:ee:07:a8:98:ad:39:f3:51:7b:2d:9b:02:61:9c:
                    c0:69:53:74:81:e8:7c:1a:f7:69:de:4b:75:5a:0c:
                    6d:87:1a:37:5f:04:25:79:25:41:d7:b7:8a:38:25:
                    3b:64:9e:3b:a6:fd:c2:91:ff:df:71:43:aa:6f:05:
                    e9:96:42:31:1c:c9:e0:32:2b:5f:33:21:0a:cf:29:
                    c7:b9:30:21:84:70:9f:1c:e4:6c:0a:57:05:58:94:
                    13:f3:af:ce:48:70:18
                ASN1 OID: secp384r1
        X509v3 extensions:
            X509v3 Basic Constraints: 
                CA:FALSE
            X509v3 Subject Key Identifier: 
                63:19:63:3E:D9:CB:7F:DC:C9:E0:DD:4D:75:A4:34:63:18:16:C3:EF
            X509v3 Authority Key Identifier: 
                keyid:B8:97:C9:BE:63:12:AB:F6:A0:8C:B6:5E:FB:97:6E:10:8E:DC:48:F5

            X509v3 Subject Alternative Name: 
                email:user@w1.fi
            X509v3 Extended Key Usage: 
                TLS Web Client Authentication
            X509v3 Key Usage: 
                Digital Signature, Key Encipherment
    Signature Algorithm: ecdsa-with-SHA384
         30:66:02:31:00:91:55:b8:e4:26:b6:19:10:b3:f5:47:fb:a0:
         dc:6a:a1:1b:c6:53:28:be:bd:9e:94:48:34:45:cc:87:41:64:
         14:2d:d0:bb:dd:75:0a:c3:47:3a:05:7f:35:5c:1c:be:51:02:
         31:00:ce:4e:8d:cb:05:73:0d:f5:03:74:c5:b1:11:14:a8:0b:
         e7:d8:26:36:bc:3b:90:60:5a:0e:bf:06:df:27:a3:59:79:52:
         7b:8e:7c:06:57:70:46:4c:dd:6f:dc:13:95:94
-----BEGIN CERTIFICATE-----
MIICOzCCAcCgAwIBAgIJAKG1hnW6pX5yMAoGCCqGSM49BAMDMFIxCzAJBgNVBAYT
AkZJMREwDwYDVQQHDAhIZWxzaW5raTEOMAwGA1UECgwFdzEuZmkxIDAeBgNVBAMM
F1N1aXRlIEIgMTkyLWJpdCBSb290IENBMB4XDTE2MDIwMTA5MjYyNFoXDTI2MDEy
OTA5MjYyNFowLDELMAkGA1UEBhMCRkkxDjAMBgNVBAoMBXcxLmZpMQ0wCwYDVQQD
DAR1c2VyMHYwEAYHKoZIzj0CAQYFK4EEACIDYgAE7geomK0581F7LZsCYZzAaVN0
geh8Gvdp3kt1Wgxthxo3XwQleSVB17eKOCU7ZJ47pv3Ckf/fcUOqbwXplkIxHMng
MitfMyEKzynHuTAhhHCfHORsClcFWJQT86/OSHAYo4GHMIGEMAkGA1UdEwQCMAAw
HQYDVR0OBBYEFGMZYz7Zy3/cyeDdTXWkNGMYFsPvMB8GA1UdIwQYMBaAFLiXyb5j
Eqv2oIy2XvuXbhCO3Ej1MBUGA1UdEQQOMAyBCnVzZXJAdzEuZmkwEwYDVR0lBAww
CgYIKwYBBQUHAwIwCwYDVR0PBAQDAgWgMAoGCCqGSM49BAMDA2kAMGYCMQCRVbjk
JrYZELP1R/ug3GqhG8ZTKL69npRINEXMh0FkFC3Qu911CsNHOgV/NVwcvlECMQDO
To3LBXMN9QN0xbERFKgL59gmNrw7kGBaDr8G3yejWXlSe458BldwRkzdb9wTlZQ=
-----END CERTIFICATE-----
