Certificate:
    Data:
        Version: 3 (0x2)
        Serial Number:
            d8:d3:e3:a6:cb:e3:cd:67
        Signature Algorithm: sha256WithRSAEncryption
        Issuer: C=FI, L=Tuusula, O=w1.fi, CN=Root CA
        Validity
            Not Before: May  3 14:01:18 2020 GMT
            Not After : May  3 14:01:18 2021 GMT
        Subject: C=FI, O=w1.fi, CN=ocsp.w1.fi
        Subject Public Key Info:
            Public Key Algorithm: rsaEncryption
                RSA Public-Key: (2048 bit)
                Modulus:
                    00:a7:22:85:5d:bb:3b:1c:02:9a:01:73:aa:88:63:
                    6e:a1:43:33:b5:fd:02:fe:1f:c8:23:04:8b:8c:51:
                    52:5b:e0:cc:62:60:2a:aa:ba:88:4f:41:39:6b:fb:
                    34:c0:a2:7a:77:2e:e1:56:9e:ef:ca:ae:67:d5:f9:
                    8b:5f:ab:ae:87:e1:b0:14:23:03:ad:69:4b:df:2b:
                    91:70:75:cd:bf:65:40:12:d0:eb:2f:89:f0:41:15:
                    1b:ed:4c:0d:3a:92:96:91:f8:cd:54:38:15:eb:6b:
                    45:9f:52:85:7e:4e:15:ab:4e:4b:eb:22:c2:5d:be:
                    ff:36:6f:42:27:d8:4b:c6:e1:be:f8:08:cf:ac:fd:
                    51:30:a2:e8:80:13:00:05:b6:05:55:42:0b:fa:1e:
                    40:84:50:09:8c:25:35:54:25:45:39:9f:4e:7c:0a:
                    d9:c4:4a:0c:16:4e:3e:68:7f:1b:ad:c9:53:08:5c:
                    b8:04:d4:d6:93:62:fd:af:f9:b4:1d:f4:96:3e:9b:
                    9d:14:6d:1c:6c:23:ae:3d:c7:b4:cf:31:90:20:6a:
                    80:99:62:7e:5c:e9:d5:d5:bd:59:4d:a3:d9:dc:e9:
                    fb:e8:7b:65:87:d5:f9:49:9e:be:0e:f3:a9:21:de:
                    94:e8:54:fc:80:cf:da:e3:8f:9a:c6:4c:76:18:0e:
                    fe:ab
                Exponent: 65537 (0x10001)
        X509v3 extensions:
            X509v3 Basic Constraints: 
                CA:FALSE
            X509v3 Key Usage: 
                Digital Signature, Non Repudiation, Key Encipherment
            X509v3 Extended Key Usage: 
                OCSP Signing
    Signature Algorithm: sha256WithRSAEncryption
         5d:f3:28:20:86:b7:cd:da:e2:e8:15:7a:97:52:79:63:69:0b:
         92:96:53:89:69:a5:79:19:d1:7e:75:71:9c:e4:33:26:99:cc:
         b9:fe:28:1a:40:a7:5f:83:ee:51:cd:fc:e4:cf:71:45:90:ba:
         36:25:51:37:4c:19:9f:0e:fc:36:d5:64:05:8e:10:20:aa:53:
         1e:e5:49:64:ae:54:7d:f3:51:a1:31:af:5f:30:46:5c:d0:db:
         6d:fc:07:68:7e:63:26:24:82:52:cd:e0:3e:d1:fd:9b:e8:00:
         93:e7:94:8c:d6:14:51:23:82:3b:51:ac:39:3d:6f:81:c7:ff:
         fb:7a:92:eb:ec:c4:7e:0b:e6:16:5c:31:5f:a1:84:28:b3:ad:
         75:8c:c3:c6:0c:b2:1a:23:4d:6c:a5:c7:e4:47:aa:5c:0d:ab:
         75:40:a2:bd:9a:76:cb:50:ff:18:8c:c1:c0:bd:02:dd:51:1d:
         d3:64:43:2c:a6:a8:40:42:c5:90:59:4c:76:56:a8:28:4d:df:
         2d:8f:99:c3:2a:a9:f2:cc:5a:90:fc:29:6b:8e:f0:8e:89:79:
         c1:b1:70:8b:2e:cb:98:d6:cf:46:ed:1a:c4:f7:32:78:5d:ca:
         b1:0c:5a:05:99:45:f1:1a:80:48:1d:4f:83:7f:30:e9:ca:8f:
         83:ff:f3:0b
-----BEGIN CERTIFICATE-----
MIIDJTCCAg2gAwIBAgIJANjT46bL481nMA0GCSqGSIb3DQEBCwUAMEExCzAJBgNV
BAYTAkZJMRAwDgYDVQQHDAdUdXVzdWxhMQ4wDAYDVQQKDAV3MS5maTEQMA4GA1UE
AwwHUm9vdCBDQTAeFw0yMDA1MDMxNDAxMThaFw0yMTA1MDMxNDAxMThaMDIxCzAJ
BgNVBAYTAkZJMQ4wDAYDVQQKDAV3MS5maTETMBEGA1UEAwwKb2NzcC53MS5maTCC
ASIwDQYJKoZIhvcNAQEBBQADggEPADCCAQoCggEBAKcihV27OxwCmgFzqohjbqFD
M7X9Av4fyCMEi4xRUlvgzGJgKqq6iE9BOWv7NMCiencu4Vae78quZ9X5i1+rrofh
sBQjA61pS98rkXB1zb9lQBLQ6y+J8EEVG+1MDTqSlpH4zVQ4FetrRZ9ShX5OFatO
S+siwl2+/zZvQifYS8bhvvgIz6z9UTCi6IATAAW2BVVCC/oeQIRQCYwlNVQlRTmf
TnwK2cRKDBZOPmh/G63JUwhcuATU1pNi/a/5tB30lj6bnRRtHGwjrj3HtM8xkCBq
gJliflzp1dW9WU2j2dzp++h7ZYfV+Umevg7zqSHelOhU/IDP2uOPmsZMdhgO/qsC
AwEAAaMvMC0wCQYDVR0TBAIwADALBgNVHQ8EBAMCBeAwEwYDVR0lBAwwCgYIKwYB
BQUHAwkwDQYJKoZIhvcNAQELBQADggEBAF3zKCCGt83a4ugVepdSeWNpC5KWU4lp
pXkZ0X51cZzkMyaZzLn+KBpAp1+D7lHN/OTPcUWQujYlUTdMGZ8O/DbVZAWOECCq
Ux7lSWSuVH3zUaExr18wRlzQ2238B2h+YyYkglLN4D7R/ZvoAJPnlIzWFFEjgjtR
rDk9b4HH//t6kuvsxH4L5hZcMV+hhCizrXWMw8YMshojTWylx+RHqlwNq3VAor2a
dstQ/xiMwcC9At1RHdNkQyymqEBCxZBZTHZWqChN3y2PmcMqqfLMWpD8KWuO8I6J
ecGxcIsuy5jWz0btGsT3MnhdyrEMWgWZRfEagEgdT4N/MOnKj4P/8ws=
-----END CERTIFICATE-----
