Certificate:
    Data:
        Version: 3 (0x2)
        Serial Number:
            ad:8c:09:e8:fb:a2:88:cd
        Signature Algorithm: sha384WithRSAEncryption
        Issuer: C=FI, L=Helsinki, O=w1.fi, CN=Suite B RSA 3k Root CA
        Validity
            Not Before: Aug 16 13:19:41 2019 GMT
            Not After : Aug 15 13:19:41 2021 GMT
        Subject: C=FI, O=w1.fi, CN=user-rsa3072-rsa2048
        Subject Public Key Info:
            Public Key Algorithm: rsaEncryption
                RSA Public-Key: (2048 bit)
                Modulus:
                    00:db:66:ff:8b:95:66:96:2e:4a:74:02:80:43:fc:
                    09:fa:b6:41:78:09:f8:e9:bf:6b:41:fd:5b:bf:cc:
                    66:d8:07:c3:0d:ec:48:97:8d:2c:4f:58:f5:b5:27:
                    07:ee:48:7c:6b:98:a2:76:e8:8b:94:11:77:68:36:
                    43:1f:2c:88:9f:d6:40:df:ec:27:16:63:ae:34:1c:
                    d5:ec:26:c5:d9:ad:77:a9:73:14:86:a3:a4:2e:67:
                    63:fd:e8:d7:dd:c7:18:67:0a:d3:af:bf:7d:20:9a:
                    67:fd:5c:c0:7c:6e:cc:d8:ab:3d:2b:8e:ae:09:0c:
                    b5:23:d9:b4:f9:fb:e2:69:e3:69:05:28:5d:ee:37:
                    1b:c7:c0:ba:83:ce:e1:30:62:1f:a9:dd:ab:9e:d4:
                    dd:8c:e4:a4:e0:1f:a5:dc:95:48:02:a0:9f:f4:a5:
                    a8:71:c8:8f:06:be:4c:4e:41:8c:7f:91:47:a8:06:
                    6d:46:c3:49:b8:af:c5:27:46:41:e2:2c:b6:6d:68:
                    66:da:c0:0c:84:be:df:61:ca:49:47:f7:19:66:36:
                    09:05:1b:27:9b:80:43:f0:55:41:b4:4e:0f:25:71:
                    e5:ba:b8:dc:72:b0:b5:49:a8:95:02:49:a8:67:2a:
                    78:f3:b4:0e:ab:69:05:e9:d9:30:ad:b0:bd:26:f0:
                    8d:33
                Exponent: 65537 (0x10001)
        X509v3 extensions:
            X509v3 Basic Constraints: 
                CA:FALSE
            X509v3 Subject Key Identifier: 
                CC:85:AA:3D:E4:37:51:3E:70:46:96:8E:00:65:C3:81:20:E0:E4:87
            X509v3 Authority Key Identifier: 
                keyid:21:F7:EF:DA:C3:34:3A:ED:CD:D5:50:C0:B3:BA:09:EE:3F:80:D7:70

            X509v3 Subject Alternative Name: 
                email:user-rsa3072-rsa2048@w1.fi
            X509v3 Extended Key Usage: 
                TLS Web Client Authentication
            X509v3 Key Usage: 
                Digital Signature, Key Encipherment
    Signature Algorithm: sha384WithRSAEncryption
         56:58:31:e4:90:41:01:ca:19:97:06:e0:5a:74:a4:a6:1d:1d:
         e4:71:bf:dc:cd:94:99:5c:20:24:73:7f:42:6e:1e:d0:4b:89:
         6f:e3:1e:fa:16:7d:1e:b6:92:5f:e2:f8:66:3f:9f:fe:4b:0c:
         39:c0:c1:bf:e3:8b:e9:cd:25:39:f6:50:4f:2a:a0:8c:1d:0c:
         26:6a:3a:65:42:ee:4e:2a:23:5d:54:79:ca:9e:57:9b:c0:c0:
         04:55:d4:ad:4f:06:88:71:f7:d8:6f:cd:7d:8e:92:a9:85:aa:
         a0:3c:0d:47:af:f9:cd:db:d6:41:f7:e1:a2:2d:b6:4d:70:78:
         9f:08:07:dd:9b:27:bf:cb:85:07:55:0d:bc:55:1c:84:04:84:
         98:9e:62:80:ca:93:b8:16:5b:74:fe:a1:cf:d7:59:99:be:23:
         f4:e3:a3:5f:2b:22:a5:38:09:c0:04:89:2e:f4:64:fe:b9:90:
         17:38:02:2c:6b:ae:ca:36:f1:3a:e0:e1:db:47:99:78:59:ed:
         98:b7:95:f9:06:5a:37:03:9f:96:bd:87:cd:8d:f9:5c:3b:22:
         b2:ca:f6:b0:e6:b9:70:4e:70:ea:ab:25:bd:f7:4f:1a:5d:7b:
         d2:36:aa:30:c1:95:cb:e5:71:3a:51:6e:e5:b4:b6:e2:19:55:
         05:50:e5:4d:88:8d:fd:0e:0e:e3:5b:86:61:cf:10:b7:dd:7f:
         12:01:b8:bf:2c:a6:86:7b:86:ff:b3:cc:b0:c7:ca:2a:c6:33:
         2e:81:f8:bc:19:e0:da:b4:d5:6a:69:dd:cb:c6:5d:41:7b:d0:
         d1:02:67:7f:c0:39:e2:7c:60:9a:8b:ce:c9:1f:2a:0c:69:04:
         22:36:4d:50:20:bc:cd:6a:fa:5e:c2:96:ef:d0:82:55:ea:2c:
         64:87:59:36:f3:db:06:80:41:1b:8d:75:6e:db:bc:66:d5:15:
         a3:72:89:d0:ee:ed:e4:37:b1:68:40:7c:9e:da:5d:01:12:91:
         f3:bb:39:45:57:26
-----BEGIN CERTIFICATE-----
MIIEKDCCApCgAwIBAgIJAK2MCej7oojNMA0GCSqGSIb3DQEBDAUAMFExCzAJBgNV
BAYTAkZJMREwDwYDVQQHDAhIZWxzaW5raTEOMAwGA1UECgwFdzEuZmkxHzAdBgNV
BAMMFlN1aXRlIEIgUlNBIDNrIFJvb3QgQ0EwHhcNMTkwODE2MTMxOTQxWhcNMjEw
ODE1MTMxOTQxWjA8MQswCQYDVQQGEwJGSTEOMAwGA1UECgwFdzEuZmkxHTAbBgNV
BAMMFHVzZXItcnNhMzA3Mi1yc2EyMDQ4MIIBIjANBgkqhkiG9w0BAQEFAAOCAQ8A
MIIBCgKCAQEA22b/i5Vmli5KdAKAQ/wJ+rZBeAn46b9rQf1bv8xm2AfDDexIl40s
T1j1tScH7kh8a5iiduiLlBF3aDZDHyyIn9ZA3+wnFmOuNBzV7CbF2a13qXMUhqOk
Lmdj/ejX3ccYZwrTr799IJpn/VzAfG7M2Ks9K46uCQy1I9m0+fviaeNpBShd7jcb
x8C6g87hMGIfqd2rntTdjOSk4B+l3JVIAqCf9KWocciPBr5MTkGMf5FHqAZtRsNJ
uK/FJ0ZB4iy2bWhm2sAMhL7fYcpJR/cZZjYJBRsnm4BD8FVBtE4PJXHlurjccrC1
SaiVAkmoZyp487QOq2kF6dkwrbC9JvCNMwIDAQABo4GXMIGUMAkGA1UdEwQCMAAw
HQYDVR0OBBYEFMyFqj3kN1E+cEaWjgBlw4Eg4OSHMB8GA1UdIwQYMBaAFCH379rD
NDrtzdVQwLO6Ce4/gNdwMCUGA1UdEQQeMByBGnVzZXItcnNhMzA3Mi1yc2EyMDQ4
QHcxLmZpMBMGA1UdJQQMMAoGCCsGAQUFBwMCMAsGA1UdDwQEAwIFoDANBgkqhkiG
9w0BAQwFAAOCAYEAVlgx5JBBAcoZlwbgWnSkph0d5HG/3M2UmVwgJHN/Qm4e0EuJ
b+Me+hZ9HraSX+L4Zj+f/ksMOcDBv+OL6c0lOfZQTyqgjB0MJmo6ZULuTiojXVR5
yp5Xm8DABFXUrU8GiHH32G/NfY6SqYWqoDwNR6/5zdvWQffhoi22TXB4nwgH3Zsn
v8uFB1UNvFUchASEmJ5igMqTuBZbdP6hz9dZmb4j9OOjXysipTgJwASJLvRk/rmQ
FzgCLGuuyjbxOuDh20eZeFntmLeV+QZaNwOflr2HzY35XDsissr2sOa5cE5w6qsl
vfdPGl170jaqMMGVy+VxOlFu5bS24hlVBVDlTYiN/Q4O41uGYc8Qt91/EgG4vyym
hnuG/7PMsMfKKsYzLoH4vBng2rTVamndy8ZdQXvQ0QJnf8A54nxgmovOyR8qDGkE
IjZNUCC8zWr6XsKW79CCVeosZIdZNvPbBoBBG411btu8ZtUVo3KJ0O7t5DexaEB8
ntpdARKR87s5RVcm
-----END CERTIFICATE-----
