Certificate:
    Data:
        Version: 3 (0x2)
        Serial Number:
            ad:8c:09:e8:fb:a2:88:cc
        Signature Algorithm: sha384WithRSAEncryption
        Issuer: C=FI, L=Helsinki, O=w1.fi, CN=Suite B RSA 3k Root CA
        Validity
            Not Before: Aug 16 13:19:41 2019 GMT
            Not After : Aug 15 13:19:41 2021 GMT
        Subject: C=FI, O=w1.fi, CN=user-rsa3072
        Subject Public Key Info:
            Public Key Algorithm: rsaEncryption
                RSA Public-Key: (3072 bit)
                Modulus:
                    00:92:77:67:8e:44:34:83:a8:37:f9:a9:c4:72:5c:
                    71:72:9d:35:1d:3d:8c:34:22:5c:24:f8:87:81:de:
                    de:ac:a5:93:77:c5:38:a4:82:9c:8c:06:9b:14:8b:
                    52:09:32:4c:31:c5:f8:e9:2f:64:8a:39:0a:70:9e:
                    4e:8a:9c:bc:a5:ab:78:18:52:44:75:fe:c3:00:61:
                    e7:1f:45:c0:12:72:e4:38:9e:28:9d:f6:76:60:70:
                    b3:7b:11:ca:90:98:2a:ea:26:c0:5c:ae:a9:12:cc:
                    52:11:a6:02:ac:e8:59:56:7a:a8:93:ec:fd:06:ee:
                    ac:e8:af:17:68:57:4f:39:ca:d4:48:49:8a:b4:8d:
                    3e:21:51:a3:96:e7:9f:24:e5:f5:10:e7:36:fe:8e:
                    33:b2:7d:22:66:8f:42:65:cf:0f:4f:cc:a3:24:0f:
                    e3:ba:98:89:35:a7:54:99:ec:81:47:c4:2f:b2:3b:
                    3b:b2:4c:ce:a4:a8:5a:66:10:40:8e:0d:7d:67:d8:
                    ed:1a:fd:e5:61:16:db:f5:4c:73:40:39:e3:7d:6f:
                    27:26:08:68:18:02:df:3b:5a:04:0a:08:c5:53:bb:
                    1d:00:91:6c:f6:38:2a:f0:aa:9f:2b:36:6e:95:24:
                    a7:1a:84:d8:5c:6a:f8:d5:3f:62:0f:20:4b:b7:96:
                    c6:c2:1b:f8:81:64:13:15:7a:9b:5d:98:ee:0f:d9:
                    73:37:d5:3c:9f:35:52:93:df:72:9d:89:d4:9f:20:
                    f2:13:85:12:00:7c:23:27:ce:f9:dd:e2:b7:82:09:
                    a2:fa:26:54:22:c7:fd:b4:fa:1a:d3:6d:29:8f:1b:
                    67:13:2f:d8:e2:f0:5c:75:9e:aa:79:fc:c1:b7:48:
                    5d:08:12:01:37:78:13:f9:53:37:3a:a8:21:38:e7:
                    5f:74:fb:85:53:6b:21:6b:82:c9:a5:41:2c:a3:39:
                    74:14:a0:5c:03:c8:13:17:55:a6:15:45:52:3c:b9:
                    b9:3f:fe:d9:a8:14:6f:20:c5:21
                Exponent: 65537 (0x10001)
        X509v3 extensions:
            X509v3 Basic Constraints: 
                CA:FALSE
            X509v3 Subject Key Identifier: 
                B1:4F:36:17:24:40:AD:6B:05:33:87:C4:AD:4F:4A:53:AF:F5:D6:23
            X509v3 Authority Key Identifier: 
                keyid:21:F7:EF:DA:C3:34:3A:ED:CD:D5:50:C0:B3:BA:09:EE:3F:80:D7:70

            X509v3 Subject Alternative Name: 
                email:user-rsa3072@w1.fi
            X509v3 Extended Key Usage: 
                TLS Web Client Authentication
            X509v3 Key Usage: 
                Digital Signature, Key Encipherment
    Signature Algorithm: sha384WithRSAEncryption
         b8:51:21:70:fc:ce:a2:a6:43:db:b1:54:c6:51:ee:a9:77:dd:
         ad:3f:75:fc:23:0c:be:a5:e7:ec:f4:2d:33:04:08:48:45:58:
         5d:1f:83:57:57:43:b0:be:81:69:d7:51:65:f8:24:97:8e:3c:
         01:60:a3:b3:0a:11:43:94:2c:68:f0:a1:28:63:e4:ce:a8:27:
         2d:74:6f:8f:e4:10:8e:9a:56:91:72:61:fd:85:82:8a:48:dd:
         d6:f3:40:97:de:6d:8b:51:ef:e8:a0:a5:65:45:96:aa:85:d1:
         b6:86:8e:53:68:2d:d0:c3:6b:11:ba:8e:15:3c:a4:b7:38:fe:
         9f:1c:57:b8:58:a3:f6:ff:31:e4:95:f9:d8:52:80:66:b1:c4:
         f9:ce:95:01:30:89:7b:e7:ec:86:b5:c6:95:46:55:5f:ce:36:
         43:8f:9c:ca:48:86:20:d0:60:89:c8:03:d0:25:1e:38:25:bb:
         d8:b1:e1:72:9a:f5:f3:97:e6:76:41:80:0e:00:47:06:59:46:
         2b:37:57:07:77:e4:5e:9c:38:0e:80:81:61:ab:89:ef:43:99:
         7a:2c:24:b5:60:c2:5e:a8:2b:59:03:1d:e3:ab:b9:0b:02:3f:
         16:90:57:70:56:d7:40:42:70:0e:de:27:9e:f1:27:30:e0:2c:
         56:5c:bf:56:43:db:fb:a6:14:ba:0a:ef:87:d5:a4:00:73:59:
         8b:a0:10:1d:b1:8a:31:a8:ef:ae:c7:c5:25:65:b5:05:a0:df:
         16:63:0e:58:f4:0e:5f:9c:e8:95:ea:b5:18:63:6e:ae:5a:dc:
         c5:d5:95:c7:f9:23:46:76:96:d6:d2:ec:a0:63:01:3c:63:f1:
         99:6e:b1:f2:3c:e7:08:ff:67:53:dd:b7:6e:83:91:cb:32:e9:
         5e:64:8b:5f:46:6c:80:02:a8:37:3c:a3:17:ad:33:5f:dc:75:
         e6:41:dc:db:19:26:c0:34:76:5d:19:a5:10:89:ad:59:5e:5d:
         69:41:2d:3f:64:d0
-----BEGIN CERTIFICATE-----
MIIEmDCCAwCgAwIBAgIJAK2MCej7oojMMA0GCSqGSIb3DQEBDAUAMFExCzAJBgNV
BAYTAkZJMREwDwYDVQQHDAhIZWxzaW5raTEOMAwGA1UECgwFdzEuZmkxHzAdBgNV
BAMMFlN1aXRlIEIgUlNBIDNrIFJvb3QgQ0EwHhcNMTkwODE2MTMxOTQxWhcNMjEw
ODE1MTMxOTQxWjA0MQswCQYDVQQGEwJGSTEOMAwGA1UECgwFdzEuZmkxFTATBgNV
BAMMDHVzZXItcnNhMzA3MjCCAaIwDQYJKoZIhvcNAQEBBQADggGPADCCAYoCggGB
AJJ3Z45ENIOoN/mpxHJccXKdNR09jDQiXCT4h4He3qylk3fFOKSCnIwGmxSLUgky
TDHF+OkvZIo5CnCeToqcvKWreBhSRHX+wwBh5x9FwBJy5DieKJ32dmBws3sRypCY
KuomwFyuqRLMUhGmAqzoWVZ6qJPs/QburOivF2hXTznK1EhJirSNPiFRo5bnnyTl
9RDnNv6OM7J9ImaPQmXPD0/MoyQP47qYiTWnVJnsgUfEL7I7O7JMzqSoWmYQQI4N
fWfY7Rr95WEW2/VMc0A5431vJyYIaBgC3ztaBAoIxVO7HQCRbPY4KvCqnys2bpUk
pxqE2Fxq+NU/Yg8gS7eWxsIb+IFkExV6m12Y7g/ZczfVPJ81UpPfcp2J1J8g8hOF
EgB8IyfO+d3it4IJovomVCLH/bT6GtNtKY8bZxMv2OLwXHWeqnn8wbdIXQgSATd4
E/lTNzqoITjnX3T7hVNrIWuCyaVBLKM5dBSgXAPIExdVphVFUjy5uT/+2agUbyDF
IQIDAQABo4GPMIGMMAkGA1UdEwQCMAAwHQYDVR0OBBYEFLFPNhckQK1rBTOHxK1P
SlOv9dYjMB8GA1UdIwQYMBaAFCH379rDNDrtzdVQwLO6Ce4/gNdwMB0GA1UdEQQW
MBSBEnVzZXItcnNhMzA3MkB3MS5maTATBgNVHSUEDDAKBggrBgEFBQcDAjALBgNV
HQ8EBAMCBaAwDQYJKoZIhvcNAQEMBQADggGBALhRIXD8zqKmQ9uxVMZR7ql33a0/
dfwjDL6l5+z0LTMECEhFWF0fg1dXQ7C+gWnXUWX4JJeOPAFgo7MKEUOULGjwoShj
5M6oJy10b4/kEI6aVpFyYf2FgopI3dbzQJfebYtR7+igpWVFlqqF0baGjlNoLdDD
axG6jhU8pLc4/p8cV7hYo/b/MeSV+dhSgGaxxPnOlQEwiXvn7Ia1xpVGVV/ONkOP
nMpIhiDQYInIA9AlHjglu9ix4XKa9fOX5nZBgA4ARwZZRis3Vwd35F6cOA6AgWGr
ie9DmXosJLVgwl6oK1kDHeOruQsCPxaQV3BW10BCcA7eJ57xJzDgLFZcv1ZD2/um
FLoK74fVpABzWYugEB2xijGo767HxSVltQWg3xZjDlj0Dl+c6JXqtRhjbq5a3MXV
lcf5I0Z2ltbS7KBjATxj8ZlusfI85wj/Z1Pdt26Dkcsy6V5ki19GbIACqDc8oxet
M1/cdeZB3NsZJsA0dl0ZpRCJrVleXWlBLT9k0A==
-----END CERTIFICATE-----
