Certificate:
    Data:
        Version: 3 (0x2)
        Serial Number:
            d8:d3:e3:a6:cb:e3:cd:66
        Signature Algorithm: sha256WithRSAEncryption
        Issuer: C=FI, L=Tuusula, O=w1.fi, CN=Root CA
        Validity
            Not Before: Jan  1 00:00:00 2020 GMT
            Not After : Jan  2 00:00:00 2020 GMT
        Subject: C=FI, O=w1.fi, CN=server4.w1.fi
        Subject Public Key Info:
            Public Key Algorithm: rsaEncryption
                RSA Public-Key: (2048 bit)
                Modulus:
                    00:b0:77:f1:3e:66:e7:fc:0b:51:f9:d8:a3:ae:2f:
                    f6:4a:75:38:3e:d4:47:7b:d6:24:32:b4:c8:d9:e0:
                    d0:a5:12:f4:89:a7:89:01:d9:54:43:ce:81:4a:bd:
                    ed:16:f3:7c:c1:67:36:8b:73:4d:21:91:e7:4b:7e:
                    74:c5:3b:15:b8:c6:46:7e:a9:a2:91:c3:f5:90:b3:
                    cf:f9:0c:eb:ba:6f:ee:b9:ab:77:3d:03:9e:9d:77:
                    07:bf:97:6a:d4:4d:b6:da:fd:36:54:25:e3:09:26:
                    89:7f:a1:11:c1:f6:dc:be:5c:57:a8:e6:45:57:3d:
                    98:14:06:72:ac:e9:c8:81:06:38:9c:cf:cd:0a:0e:
                    78:4e:9e:7b:10:c2:61:a5:43:ef:34:16:df:3c:e0:
                    a3:44:77:48:cd:be:e4:79:cb:31:39:9f:53:dd:a3:
                    0e:76:5a:6c:24:5e:56:35:9b:a2:7d:b3:9e:42:f1:
                    61:9c:e8:9e:1c:b8:9a:10:1e:32:29:21:cb:30:16:
                    e0:03:11:f9:88:f2:8f:04:a5:e6:a7:9c:73:e1:93:
                    d8:51:2d:bb:45:83:8f:b6:93:41:39:41:84:5f:4b:
                    ad:00:25:91:3d:16:0a:eb:f0:b8:92:e0:5c:75:65:
                    85:17:d2:80:e6:5e:66:a2:a4:df:c7:08:76:33:49:
                    cf:1d
                Exponent: 65537 (0x10001)
        X509v3 extensions:
            X509v3 Basic Constraints: 
                CA:FALSE
            X509v3 Subject Key Identifier: 
                21:B0:31:C6:14:D4:BD:5C:DF:70:24:51:34:9E:93:F5:18:B3:1C:A1
            X509v3 Authority Key Identifier: 
                keyid:A4:FD:B9:39:1B:81:B3:AA:EB:88:1D:D4:81:A9:B5:11:70:CC:A7:E1

            Authority Information Access: 
                OCSP - URI:http://server.w1.fi:8888/

            X509v3 Extended Key Usage: 
                TLS Web Server Authentication
    Signature Algorithm: sha256WithRSAEncryption
         89:4d:ee:04:3e:50:fc:a2:6e:4c:3e:4a:9e:3b:9c:2e:74:29:
         06:86:1b:bb:96:01:70:f7:46:21:b4:ef:6f:73:93:31:bd:58:
         f5:2f:40:61:f1:53:86:20:75:cf:0e:75:70:2c:94:b8:c5:4e:
         ec:24:0f:42:d6:8b:80:b9:fa:b5:48:83:d6:cf:c8:47:3d:09:
         50:11:4a:5d:83:c5:41:8b:4b:4e:1e:ff:96:95:f0:14:7a:7e:
         cd:a6:4f:ce:0b:37:e8:f2:27:a2:72:e2:6b:18:d7:f8:86:f0:
         14:db:4c:c5:8a:76:9b:fc:55:15:49:3f:eb:df:5c:c7:7a:64:
         86:70:44:97:7e:ba:83:39:25:3b:23:8e:dc:b3:9e:59:cb:e0:
         a2:ac:7e:9f:d2:60:91:a7:de:a9:a9:30:e1:97:81:e3:13:91:
         75:68:08:11:e0:ca:f9:eb:39:28:72:ab:8c:18:d2:3c:2c:cc:
         38:e5:73:1a:4e:7f:e6:74:25:8b:a2:40:45:59:28:b4:ec:ec:
         5f:c9:f5:6f:ab:02:03:70:0d:11:9b:62:df:73:7b:e0:c6:c1:
         c1:ee:da:69:9a:91:a3:6b:2b:15:d6:fb:e4:35:38:86:fe:ac:
         ad:77:a5:a3:03:a5:9f:f4:e7:34:91:83:9e:5b:1e:88:e1:48:
         5f:15:d8:de
-----BEGIN CERTIFICATE-----
MIIDlDCCAnygAwIBAgIJANjT46bL481mMA0GCSqGSIb3DQEBCwUAMEExCzAJBgNV
BAYTAkZJMRAwDgYDVQQHDAdUdXVzdWxhMQ4wDAYDVQQKDAV3MS5maTEQMA4GA1UE
AwwHUm9vdCBDQTAeFw0yMDAxMDEwMDAwMDBaFw0yMDAxMDIwMDAwMDBaMDUxCzAJ
BgNVBAYTAkZJMQ4wDAYDVQQKDAV3MS5maTEWMBQGA1UEAwwNc2VydmVyNC53MS5m
aTCCASIwDQYJKoZIhvcNAQEBBQADggEPADCCAQoCggEBALB38T5m5/wLUfnYo64v
9kp1OD7UR3vWJDK0yNng0KUS9ImniQHZVEPOgUq97RbzfMFnNotzTSGR50t+dMU7
FbjGRn6popHD9ZCzz/kM67pv7rmrdz0Dnp13B7+XatRNttr9NlQl4wkmiX+hEcH2
3L5cV6jmRVc9mBQGcqzpyIEGOJzPzQoOeE6eexDCYaVD7zQW3zzgo0R3SM2+5HnL
MTmfU92jDnZabCReVjWbon2znkLxYZzonhy4mhAeMikhyzAW4AMR+YjyjwSl5qec
c+GT2FEtu0WDj7aTQTlBhF9LrQAlkT0WCuvwuJLgXHVlhRfSgOZeZqKk38cIdjNJ
zx0CAwEAAaOBmjCBlzAJBgNVHRMEAjAAMB0GA1UdDgQWBBQhsDHGFNS9XN9wJFE0
npP1GLMcoTAfBgNVHSMEGDAWgBSk/bk5G4GzquuIHdSBqbURcMyn4TA1BggrBgEF
BQcBAQQpMCcwJQYIKwYBBQUHMAGGGWh0dHA6Ly9zZXJ2ZXIudzEuZmk6ODg4OC8w
EwYDVR0lBAwwCgYIKwYBBQUHAwEwDQYJKoZIhvcNAQELBQADggEBAIlN7gQ+UPyi
bkw+Sp47nC50KQaGG7uWAXD3RiG0729zkzG9WPUvQGHxU4Ygdc8OdXAslLjFTuwk
D0LWi4C5+rVIg9bPyEc9CVARSl2DxUGLS04e/5aV8BR6fs2mT84LN+jyJ6Jy4msY
1/iG8BTbTMWKdpv8VRVJP+vfXMd6ZIZwRJd+uoM5JTsjjtyznlnL4KKsfp/SYJGn
3qmpMOGXgeMTkXVoCBHgyvnrOShyq4wY0jwszDjlcxpOf+Z0JYuiQEVZKLTs7F/J
9W+rAgNwDRGbYt9ze+DGwcHu2mmakaNrKxXW++Q1OIb+rK13paMDpZ/05zSRg55b
HojhSF8V2N4=
-----END CERTIFICATE-----
