Certificate:
    Data:
        Version: 3 (0x2)
        Serial Number:
            d8:d3:e3:a6:cb:e3:cd:64
        Signature Algorithm: sha256WithRSAEncryption
        Issuer: C=FI, L=Tuusula, O=w1.fi, CN=Root CA
        Validity
            Not Before: May  2 19:55:38 2020 GMT
            Not After : May  2 19:55:38 2021 GMT
        Subject: C=FI, O=w1.fi, CN=server-policies2.w1.fi
        Subject Public Key Info:
            Public Key Algorithm: rsaEncryption
                RSA Public-Key: (3072 bit)
                Modulus:
                    00:e6:50:d1:28:05:27:6c:d4:42:d3:42:c7:cc:53:
                    a9:6b:c2:a3:ab:20:6f:17:34:9d:e4:1d:31:d0:c4:
                    68:65:42:d5:e8:bd:aa:b8:e4:e9:f6:ee:2e:75:cd:
                    6a:8c:f6:8e:aa:af:6c:7c:eb:35:50:55:b1:c2:b3:
                    f8:a7:d0:1e:a3:33:26:68:40:20:13:74:08:87:ef:
                    b6:3a:f1:7f:3e:f5:7f:93:44:74:37:8b:c3:89:a7:
                    ba:5f:42:39:4a:22:20:40:66:c6:6f:77:cf:54:3f:
                    05:61:de:ab:71:fa:9f:78:6d:97:4a:e8:60:a0:11:
                    aa:6c:ba:9d:44:65:18:e8:e0:8f:d1:df:da:95:ab:
                    41:2c:63:65:f6:42:42:e6:1f:42:a4:1c:74:20:49:
                    f4:d4:92:0e:e3:be:3b:55:fd:38:68:74:3a:e4:df:
                    9a:2b:95:bf:e9:d1:38:8b:16:24:20:35:db:b8:d0:
                    15:30:2e:2f:6a:24:b9:e1:e9:e7:b6:b5:bd:e6:0f:
                    59:dd:df:95:9c:ab:03:b4:c5:42:81:48:61:cc:3c:
                    06:17:85:63:6e:28:cb:d7:88:d1:ce:40:c7:ff:61:
                    51:ac:bb:ba:23:c9:42:a7:7d:27:0d:1e:53:90:cf:
                    22:3f:57:f5:ff:1a:05:0c:9c:7a:1b:fb:e2:47:5f:
                    45:cb:ee:88:a5:a0:54:71:83:f7:d3:d3:c5:bc:b2:
                    7e:85:a7:b1:1a:cf:91:cb:8b:39:ba:7c:2c:9d:b2:
                    c5:79:c3:e0:80:73:06:30:4f:5d:81:52:e2:bf:43:
                    55:85:5d:64:c4:97:ac:e9:2d:7e:30:b5:e1:52:50:
                    53:0c:ac:24:8e:7b:a2:57:8d:ff:b1:05:ba:23:33:
                    a6:08:a3:b4:38:42:f6:5c:d9:bc:5d:75:95:82:ff:
                    4d:9a:db:56:2f:1b:38:d2:51:05:2c:90:62:f1:8e:
                    4c:ee:ea:1b:ae:aa:53:74:85:ba:c6:c3:c2:4b:30:
                    bd:e0:2e:c8:ac:7e:25:cc:32:5f
                Exponent: 65537 (0x10001)
        X509v3 extensions:
            X509v3 Basic Constraints: 
                CA:FALSE
            X509v3 Subject Key Identifier: 
                4E:01:8B:7E:C2:77:94:E1:68:B3:C4:29:35:24:05:0B:DE:84:4A:89
            X509v3 Authority Key Identifier: 
                keyid:A4:FD:B9:39:1B:81:B3:AA:EB:88:1D:D4:81:A9:B5:11:70:CC:A7:E1

            Authority Information Access: 
                OCSP - URI:http://server.w1.fi:8888/

            X509v3 Subject Alternative Name: 
                DNS:server-policies2.w1.fi
            X509v3 Certificate Policies: 
                Policy: 1.3.6.1.4.1.40808.1.3.2

            X509v3 Extended Key Usage: 
                TLS Web Server Authentication
    Signature Algorithm: sha256WithRSAEncryption
         7d:38:98:e6:21:03:e4:1a:44:08:91:ca:21:31:5c:97:66:74:
         4c:0a:84:21:83:92:22:63:53:8d:06:1f:48:62:c1:e3:ce:e9:
         74:2a:63:0b:2b:f9:b5:d0:63:37:39:4c:b4:29:9e:98:49:48:
         1f:cd:bc:28:5f:81:56:ee:d9:d9:f7:51:6b:31:62:3a:a4:59:
         98:f3:18:3d:f9:c1:d8:71:6d:85:e1:67:0e:d6:cc:ab:61:22:
         46:f1:38:11:53:74:41:44:22:63:ac:e7:6b:12:b6:39:20:7f:
         fe:e2:c7:aa:e6:80:64:d7:24:92:4e:79:fa:9d:41:75:45:30:
         4b:2b:ce:d9:b0:38:25:79:81:b3:c4:4b:60:a1:24:9f:ad:c7:
         37:b9:44:d5:02:7c:2a:05:7f:d3:f1:76:21:6a:67:d7:a9:ab:
         e0:3e:4c:90:30:28:8a:75:58:ae:6a:98:39:b6:6c:f6:eb:9f:
         c8:24:11:a3:33:0f:aa:30:05:23:ab:1f:4f:f4:55:f3:b8:6b:
         c5:dc:dc:32:15:58:fd:cc:cf:ba:f5:9a:1b:4e:58:68:85:b7:
         eb:b0:db:e9:a9:87:f9:b0:4e:c9:43:79:26:97:75:ff:d4:55:
         01:f7:c6:f5:21:56:8b:f7:f3:80:a2:f4:3f:50:2a:e3:60:52:
         b6:5c:83:14
-----BEGIN CERTIFICATE-----
MIIEWjCCA0KgAwIBAgIJANjT46bL481kMA0GCSqGSIb3DQEBCwUAMEExCzAJBgNV
BAYTAkZJMRAwDgYDVQQHDAdUdXVzdWxhMQ4wDAYDVQQKDAV3MS5maTEQMA4GA1UE
AwwHUm9vdCBDQTAeFw0yMDA1MDIxOTU1MzhaFw0yMTA1MDIxOTU1MzhaMD4xCzAJ
BgNVBAYTAkZJMQ4wDAYDVQQKDAV3MS5maTEfMB0GA1UEAwwWc2VydmVyLXBvbGlj
aWVzMi53MS5maTCCAaIwDQYJKoZIhvcNAQEBBQADggGPADCCAYoCggGBAOZQ0SgF
J2zUQtNCx8xTqWvCo6sgbxc0neQdMdDEaGVC1ei9qrjk6fbuLnXNaoz2jqqvbHzr
NVBVscKz+KfQHqMzJmhAIBN0CIfvtjrxfz71f5NEdDeLw4mnul9COUoiIEBmxm93
z1Q/BWHeq3H6n3htl0roYKARqmy6nURlGOjgj9Hf2pWrQSxjZfZCQuYfQqQcdCBJ
9NSSDuO+O1X9OGh0OuTfmiuVv+nROIsWJCA127jQFTAuL2okueHp57a1veYPWd3f
lZyrA7TFQoFIYcw8BheFY24oy9eI0c5Ax/9hUay7uiPJQqd9Jw0eU5DPIj9X9f8a
BQycehv74kdfRcvuiKWgVHGD99PTxbyyfoWnsRrPkcuLObp8LJ2yxXnD4IBzBjBP
XYFS4r9DVYVdZMSXrOktfjC14VJQUwysJI57oleN/7EFuiMzpgijtDhC9lzZvF11
lYL/TZrbVi8bONJRBSyQYvGOTO7qG66qU3SFusbDwkswveAuyKx+JcwyXwIDAQAB
o4HXMIHUMAkGA1UdEwQCMAAwHQYDVR0OBBYEFE4Bi37Cd5ThaLPEKTUkBQvehEqJ
MB8GA1UdIwQYMBaAFKT9uTkbgbOq64gd1IGptRFwzKfhMDUGCCsGAQUFBwEBBCkw
JzAlBggrBgEFBQcwAYYZaHR0cDovL3NlcnZlci53MS5maTo4ODg4LzAhBgNVHREE
GjAYghZzZXJ2ZXItcG9saWNpZXMyLncxLmZpMBgGA1UdIAQRMA8wDQYLKwYBBAGC
vmgBAwIwEwYDVR0lBAwwCgYIKwYBBQUHAwEwDQYJKoZIhvcNAQELBQADggEBAH04
mOYhA+QaRAiRyiExXJdmdEwKhCGDkiJjU40GH0hiwePO6XQqYwsr+bXQYzc5TLQp
nphJSB/NvChfgVbu2dn3UWsxYjqkWZjzGD35wdhxbYXhZw7WzKthIkbxOBFTdEFE
ImOs52sStjkgf/7ix6rmgGTXJJJOefqdQXVFMEsrztmwOCV5gbPES2ChJJ+txze5
RNUCfCoFf9PxdiFqZ9epq+A+TJAwKIp1WK5qmDm2bPbrn8gkEaMzD6owBSOrH0/0
VfO4a8Xc3DIVWP3Mz7r1mhtOWGiFt+uw2+mph/mwTslDeSaXdf/UVQH3xvUhVov3
84Ci9D9QKuNgUrZcgxQ=
-----END CERTIFICATE-----
