Certificate:
    Data:
        Version: 3 (0x2)
        Serial Number:
            d8:d3:e3:a6:cb:e3:cd:61
        Signature Algorithm: sha256WithRSAEncryption
        Issuer: C=FI, L=Tuusula, O=w1.fi, CN=Root CA
        Validity
            Not Before: May  2 19:55:38 2020 GMT
            Not After : May  2 19:55:38 2021 GMT
        Subject: C=FI, O=w1.fi, CN=server5.w1.fi
        Subject Public Key Info:
            Public Key Algorithm: rsaEncryption
                RSA Public-Key: (2048 bit)
                Modulus:
                    00:a5:94:60:80:b8:c8:61:18:8c:02:9d:dc:cc:c4:
                    74:d1:17:b5:3b:47:9c:38:0f:3b:92:74:fb:ea:27:
                    45:44:8a:9a:2a:4d:10:25:8e:77:ce:1a:09:c9:73:
                    19:fe:dc:70:36:5e:8c:fa:8f:4c:84:bb:f7:72:e4:
                    94:4f:fc:47:2a:7d:89:92:a3:2b:5a:69:9c:c8:5a:
                    10:39:32:61:7d:0a:78:19:b4:36:eb:ac:4c:d6:af:
                    75:00:14:4e:15:2f:5f:83:ee:62:f5:ac:7b:0c:81:
                    ba:a2:08:36:7b:f0:ef:63:31:62:fb:86:a6:cf:da:
                    36:83:44:8d:75:28:b6:e4:10:f3:32:dd:8a:6c:5b:
                    ee:4f:f1:1e:53:0b:13:7c:c7:bc:f7:9e:32:80:1e:
                    63:3e:92:75:2f:c5:21:5e:f0:2a:ac:e2:34:e4:17:
                    b2:34:f7:e8:2a:12:8a:21:b8:03:e7:b6:d8:f8:32:
                    b5:fe:71:45:52:98:de:b9:3d:41:f5:90:a5:76:83:
                    c1:18:ca:50:5d:2c:52:8b:6e:4f:a7:5b:bb:d8:e3:
                    14:25:70:de:d1:c7:9d:59:cf:24:46:c7:f5:6e:6f:
                    83:66:ed:1b:1d:3e:51:04:94:67:64:df:51:22:3c:
                    c0:e1:24:0a:37:6a:dc:6a:8b:fd:45:5b:96:2d:03:
                    ac:63
                Exponent: 65537 (0x10001)
        X509v3 extensions:
            X509v3 Basic Constraints: 
                CA:FALSE
            X509v3 Subject Key Identifier: 
                32:9F:9F:30:24:73:73:CB:8D:53:3A:80:23:EB:5B:5D:4C:DD:06:01
            X509v3 Authority Key Identifier: 
                keyid:A4:FD:B9:39:1B:81:B3:AA:EB:88:1D:D4:81:A9:B5:11:70:CC:A7:E1

            Authority Information Access: 
                OCSP - URI:http://server.w1.fi:8888/

            X509v3 Extended Key Usage: 
                TLS Web Client Authentication
    Signature Algorithm: sha256WithRSAEncryption
         22:02:38:3d:90:2f:5d:54:b9:36:61:fd:29:40:c0:88:5d:eb:
         63:ec:b3:6d:9b:55:8f:10:6b:b7:4b:8a:3f:89:79:fa:52:87:
         8d:91:3b:2e:ee:84:ae:f8:2d:8e:1d:35:72:cd:b8:7d:9d:98:
         d3:88:9d:05:c7:85:e7:1a:29:4d:cb:00:da:a3:21:a0:f5:f3:
         52:f5:80:88:cb:2a:4f:d9:9b:56:c0:37:13:61:74:64:61:fb:
         8c:25:18:9c:96:e2:f8:bb:e2:48:60:e3:12:d8:a9:d9:9e:93:
         e8:cd:46:f5:eb:b3:17:62:66:d1:5d:ea:c2:09:d1:7a:34:d2:
         e0:88:1d:7f:6f:71:25:70:50:d8:51:93:61:8e:70:da:c2:ba:
         f0:44:81:be:81:54:d6:3c:da:a6:54:62:40:bd:d1:2e:ce:1c:
         dd:29:49:ba:b5:12:7e:42:64:54:b2:99:93:60:67:6e:1a:63:
         4b:da:b4:96:28:90:81:c4:28:05:28:64:ff:c6:7a:b3:8c:68:
         12:e3:28:64:00:82:88:bc:75:46:d2:e7:f9:0a:93:4c:5d:c8:
         99:27:4c:40:65:0d:ec:b2:86:ea:76:e2:28:c5:77:6b:3d:fc:
         91:30:89:0a:0b:e0:d4:59:cf:30:de:5f:f6:50:15:5a:40:01:
         e2:a5:39:cf
-----BEGIN CERTIFICATE-----
MIIDlDCCAnygAwIBAgIJANjT46bL481hMA0GCSqGSIb3DQEBCwUAMEExCzAJBgNV
BAYTAkZJMRAwDgYDVQQHDAdUdXVzdWxhMQ4wDAYDVQQKDAV3MS5maTEQMA4GA1UE
AwwHUm9vdCBDQTAeFw0yMDA1MDIxOTU1MzhaFw0yMTA1MDIxOTU1MzhaMDUxCzAJ
BgNVBAYTAkZJMQ4wDAYDVQQKDAV3MS5maTEWMBQGA1UEAwwNc2VydmVyNS53MS5m
aTCCASIwDQYJKoZIhvcNAQEBBQADggEPADCCAQoCggEBAKWUYIC4yGEYjAKd3MzE
dNEXtTtHnDgPO5J0++onRUSKmipNECWOd84aCclzGf7ccDZejPqPTIS793LklE/8
Ryp9iZKjK1ppnMhaEDkyYX0KeBm0NuusTNavdQAUThUvX4PuYvWsewyBuqIINnvw
72MxYvuGps/aNoNEjXUotuQQ8zLdimxb7k/xHlMLE3zHvPeeMoAeYz6SdS/FIV7w
KqziNOQXsjT36CoSiiG4A+e22Pgytf5xRVKY3rk9QfWQpXaDwRjKUF0sUotuT6db
u9jjFCVw3tHHnVnPJEbH9W5vg2btGx0+UQSUZ2TfUSI8wOEkCjdq3GqL/UVbli0D
rGMCAwEAAaOBmjCBlzAJBgNVHRMEAjAAMB0GA1UdDgQWBBQyn58wJHNzy41TOoAj
61tdTN0GATAfBgNVHSMEGDAWgBSk/bk5G4GzquuIHdSBqbURcMyn4TA1BggrBgEF
BQcBAQQpMCcwJQYIKwYBBQUHMAGGGWh0dHA6Ly9zZXJ2ZXIudzEuZmk6ODg4OC8w
EwYDVR0lBAwwCgYIKwYBBQUHAwIwDQYJKoZIhvcNAQELBQADggEBACICOD2QL11U
uTZh/SlAwIhd62Pss22bVY8Qa7dLij+JefpSh42ROy7uhK74LY4dNXLNuH2dmNOI
nQXHhecaKU3LANqjIaD181L1gIjLKk/Zm1bANxNhdGRh+4wlGJyW4vi74khg4xLY
qdmek+jNRvXrsxdiZtFd6sIJ0Xo00uCIHX9vcSVwUNhRk2GOcNrCuvBEgb6BVNY8
2qZUYkC90S7OHN0pSbq1En5CZFSymZNgZ24aY0vatJYokIHEKAUoZP/GerOMaBLj
KGQAgoi8dUbS5/kKk0xdyJknTEBlDeyyhup24ijFd2s9/JEwiQoL4NRZzzDeX/ZQ
FVpAAeKlOc8=
-----END CERTIFICATE-----
