Certificate:
    Data:
        Version: 3 (0x2)
        Serial Number: 14110776913249282220 (0xc3d38cd72b01a8ac)
    Signature Algorithm: sha384WithRSAEncryption
        Issuer: C=FI, L=Helsinki, O=w1.fi, CN=SHA384 and SHA512 Root CA
        Validity
            Not Before: Nov 29 22:33:25 2015 GMT
            Not After : Nov 26 22:33:25 2025 GMT
        Subject: C=FI, O=w1.fi, CN=user-sha384
        Subject Public Key Info:
            Public Key Algorithm: rsaEncryption
                Public-Key: (2900 bit)
                Modulus:
                    0d:47:b8:29:74:c9:d8:5b:f6:ad:04:7a:95:44:36:
                    2f:86:a7:b7:a4:b0:73:2a:d9:1c:7d:ed:3d:bd:0c:
                    3c:05:7b:c8:e9:56:55:56:27:56:f4:a0:aa:bd:eb:
                    ea:3a:45:2c:d8:b6:9d:54:1a:18:12:09:78:b0:64:
                    f6:60:ad:59:99:02:72:49:25:4f:49:71:ea:09:0e:
                    5d:cf:22:19:03:29:f0:29:2b:1c:fd:2e:fa:e6:6a:
                    3a:1c:46:27:b3:66:86:93:20:a8:f7:d5:44:4a:00:
                    b6:9e:21:df:da:63:ff:80:0a:80:41:c4:87:99:a0:
                    7e:60:f3:33:c3:22:0e:23:10:f4:09:f2:e9:77:58:
                    c7:ca:63:de:af:16:77:b5:48:68:eb:8b:98:b0:8f:
                    bd:91:57:ef:6d:3e:2f:e3:80:d4:84:c2:01:6f:50:
                    8a:7f:9b:14:7d:6d:3e:04:99:f7:57:c0:58:43:52:
                    57:db:ed:84:40:e3:97:f3:7b:07:2e:6a:5c:50:13:
                    53:fe:2d:7e:fd:d7:d8:b9:9b:3e:33:1f:e3:90:16:
                    f1:51:b7:1e:95:c0:75:6a:f4:77:9a:d8:8c:74:93:
                    7f:f4:25:49:75:6a:b4:9b:13:c8:77:27:96:8e:df:
                    be:f0:0d:42:bd:0c:37:e3:15:cf:2d:a9:5e:12:d6:
                    b6:5a:26:8d:86:c3:ef:ac:2e:78:b6:f0:70:63:e2:
                    2c:3d:a8:eb:8b:4e:15:51:b9:90:35:b8:38:81:bd:
                    b6:a9:f5:57:09:8a:20:f2:e9:12:b2:c8:4d:57:63:
                    6d:f4:5b:a6:d7:38:62:9b:73:0e:21:d5:00:cb:a0:
                    33:8c:c4:32:53:5e:c5:4e:cc:4a:c2:13:a0:5e:f0:
                    af:52:be:2c:16:14:8a:5d:17:7c:4b:d6:2f:9d:74:
                    a8:62:75:df:ca:a7:9f:67:89:11:07:e2:ab:e0:eb:
                    c4:d4:ad
                Exponent: 65537 (0x10001)
        X509v3 extensions:
            X509v3 Basic Constraints: 
                CA:FALSE
            X509v3 Subject Key Identifier: 
                85:5F:26:C0:68:70:33:79:E3:BA:57:A3:5F:52:94:38:F0:6E:53:05
            X509v3 Authority Key Identifier: 
                keyid:0E:74:B5:09:EC:FB:FA:E7:BA:6B:1A:F6:2B:28:7E:A9:70:DA:D7:18

            X509v3 Subject Alternative Name: 
                email:user-sha384@w1.fi
            X509v3 Extended Key Usage: 
                TLS Web Client Authentication
            X509v3 Key Usage: 
                Digital Signature, Key Encipherment
    Signature Algorithm: sha384WithRSAEncryption
         81:95:03:32:e7:e5:e3:0e:22:0e:cc:a5:b5:96:3e:15:a8:6c:
         f5:e2:1f:32:b9:09:71:b5:fa:f4:84:ae:e1:8c:d4:cb:ef:e3:
         b4:58:aa:bd:bc:df:6a:9c:91:9b:5a:d4:e1:b0:1c:dc:dc:e9:
         b6:68:71:83:e1:7e:1c:81:fd:a6:3b:14:67:1a:67:64:ed:a8:
         3c:43:2f:cf:e1:63:51:f0:9d:1d:e7:0c:0f:58:bc:bd:bf:af:
         ee:55:f8:1f:5a:9e:1f:c2:74:f0:8a:e4:5f:b2:19:e3:e8:c2:
         5c:1c:39:f4:24:51:ae:d2:21:da:b8:12:97:ff:2a:d9:ff:61:
         02:31:1f:87:3b:14:0b:7b:9a:77:11:a8:83:25:38:6a:1d:89:
         fc:48:75:8c:2f:38:a7:66:ee:a9:65:2c:d9:f8:bf:e0:12:d6:
         b7:11:07:d0:72:a8:76:53:32:94:39:47:be:74:69:f6:6b:13:
         2f:eb:e1:a2:8e:32:43:0a:cc:13:ea:00:29:cc:99:7b:eb:5c:
         06:d5:4d:ef:6e:2a:96:6b:33:a3:6f:53:0c:59:4e:89:9b:56:
         f6:a3:94:0d:7b:21:df:0e:af:b7:df:cf:56:98:81:02:9d:e2:
         f1:29:90:2e:7f:be:4d:24:6f:46:8d:af:ff:f9:30:7b:40:48:
         1c:1b:68:6e:9f:ec:e2:33:51:7c:ed:ee:12:bb:3a:97:ce:85:
         fe:d9:c3:0b:1a:a6:1b:12:bb:db:4f:f3:b1:e5:80:25:b9:62:
         7a:e9:8e:17:44:97:cc:54:bf:8e:c3:aa:37:b2:74:e9:58:9b:
         d7:53:00:4d:82:c2:42:ba:c1:c2:7f:00:fa:da:06:dc:98:04:
         68:35:d6:3c:14:4e:dc:4d:e4:d8:b9:b5:e2:17:79:91:3b:d7:
         c7:f1:ff:e7:a3:25:68:c4:96:29:c6:b9:45:e3:3d:1c:29:22:
         2f:0b:c7:8c:8e:b6:0a:0a:82:20:0b:50:ca:e6:c6:de:01:38:
         f9:3b:31:e0:1c:85:11:bd:a9:9e:bf:8c:f7:f2:64:03:ca:60:
         16:2d:26:94:eb:9f:8a:d0:5e:1c:eb:3c:26:7e:03:84:d2:f0:
         5a:b3:8a:7b:86:86:67:ce:1e:c9:c8:ad:3b:0f:08:7f:3e:54:
         fa:ad:e4:5e:3f:c1:cb:50:3a:dd:ba:b1:0e:d2:9b:88:46:17:
         bb:67:cf:5c:11:f3:a3:f7:0b:95:ae:25:ce:3c:e9:ca:aa:46:
         f8:a9:8c:cf:a9:cb:bc:00:94:a1:c7:02:98:1e:e5:b1:c7:e7:
         51:50:f7:5e:a5:c8:e9:ff:e0:50:17:cc:10:c5:f8:0a:68:ba:
         ca:78:f8:1a:6c:ac:f2:10
-----BEGIN CERTIFICATE-----
MIIFAzCCAuugAwIBAgIJAMPTjNcrAaisMA0GCSqGSIb3DQEBDAUAMFQxCzAJBgNV
BAYTAkZJMREwDwYDVQQHDAhIZWxzaW5raTEOMAwGA1UECgwFdzEuZmkxIjAgBgNV
BAMMGVNIQTM4NCBhbmQgU0hBNTEyIFJvb3QgQ0EwHhcNMTUxMTI5MjIzMzI1WhcN
MjUxMTI2MjIzMzI1WjAzMQswCQYDVQQGEwJGSTEOMAwGA1UECgwFdzEuZmkxFDAS
BgNVBAMMC3VzZXItc2hhMzg0MIIBjDANBgkqhkiG9w0BAQEFAAOCAXkAMIIBdAKC
AWsNR7gpdMnYW/atBHqVRDYvhqe3pLBzKtkcfe09vQw8BXvI6VZVVidW9KCqvevq
OkUs2LadVBoYEgl4sGT2YK1ZmQJySSVPSXHqCQ5dzyIZAynwKSsc/S765mo6HEYn
s2aGkyCo99VESgC2niHf2mP/gAqAQcSHmaB+YPMzwyIOIxD0CfLpd1jHymPerxZ3
tUho64uYsI+9kVfvbT4v44DUhMIBb1CKf5sUfW0+BJn3V8BYQ1JX2+2EQOOX83sH
LmpcUBNT/i1+/dfYuZs+Mx/jkBbxUbcelcB1avR3mtiMdJN/9CVJdWq0mxPIdyeW
jt++8A1CvQw34xXPLaleEta2WiaNhsPvrC54tvBwY+IsPajri04VUbmQNbg4gb22
qfVXCYog8ukSsshNV2Nt9Fum1zhim3MOIdUAy6AzjMQyU17FTsxKwhOgXvCvUr4s
FhSKXRd8S9YvnXSoYnXfyqefZ4kRB+Kr4OvE1K0CAwEAAaOBjjCBizAJBgNVHRME
AjAAMB0GA1UdDgQWBBSFXybAaHAzeeO6V6NfUpQ48G5TBTAfBgNVHSMEGDAWgBQO
dLUJ7Pv657prGvYrKH6pcNrXGDAcBgNVHREEFTATgRF1c2VyLXNoYTM4NEB3MS5m
aTATBgNVHSUEDDAKBggrBgEFBQcDAjALBgNVHQ8EBAMCBaAwDQYJKoZIhvcNAQEM
BQADggIBAIGVAzLn5eMOIg7MpbWWPhWobPXiHzK5CXG1+vSEruGM1Mvv47RYqr28
32qckZta1OGwHNzc6bZocYPhfhyB/aY7FGcaZ2TtqDxDL8/hY1HwnR3nDA9YvL2/
r+5V+B9anh/CdPCK5F+yGePowlwcOfQkUa7SIdq4Epf/Ktn/YQIxH4c7FAt7mncR
qIMlOGodifxIdYwvOKdm7qllLNn4v+AS1rcRB9ByqHZTMpQ5R750afZrEy/r4aKO
MkMKzBPqACnMmXvrXAbVTe9uKpZrM6NvUwxZTombVvajlA17Id8Or7ffz1aYgQKd
4vEpkC5/vk0kb0aNr//5MHtASBwbaG6f7OIzUXzt7hK7OpfOhf7ZwwsaphsSu9tP
87HlgCW5YnrpjhdEl8xUv47DqjeydOlYm9dTAE2CwkK6wcJ/APraBtyYBGg11jwU
TtxN5Ni5teIXeZE718fx/+ejJWjElinGuUXjPRwpIi8Lx4yOtgoKgiALUMrmxt4B
OPk7MeAchRG9qZ6/jPfyZAPKYBYtJpTrn4rQXhzrPCZ+A4TS8FqzinuGhmfOHsnI
rTsPCH8+VPqt5F4/wctQOt26sQ7Sm4hGF7tnz1wR86P3C5WuJc486cqqRvipjM+p
y7wAlKHHApge5bHH51FQ916lyOn/4FAXzBDF+Apousp4+BpsrPIQ
-----END CERTIFICATE-----
