Certificate:
    Data:
        Version: 3 (0x2)
        Serial Number: 14110776913249282219 (0xc3d38cd72b01a8ab)
    Signature Algorithm: sha512WithRSAEncryption
        Issuer: C=FI, L=Helsinki, O=w1.fi, CN=SHA384 and SHA512 Root CA
        Validity
            Not Before: Nov 29 22:33:25 2015 GMT
            Not After : Nov 26 22:33:25 2025 GMT
        Subject: C=FI, O=w1.fi, CN=user-sha512
        Subject Public Key Info:
            Public Key Algorithm: rsaEncryption
                Public-Key: (3400 bit)
                Modulus:
                    00:c4:56:ad:df:ab:22:bc:b1:71:c3:f5:e7:8b:01:
                    ac:64:58:57:97:f4:fa:02:f2:b2:f1:fe:4b:8c:06:
                    e1:33:fc:8b:98:d7:f2:70:90:f3:de:39:45:17:9f:
                    f7:c3:35:00:af:4b:5d:9a:1a:da:32:c4:11:c4:b9:
                    c0:45:ea:3e:a8:8f:3f:ad:19:2f:3c:49:fc:ef:a7:
                    e5:53:8d:b2:1d:af:2c:9d:fa:83:19:a2:77:4e:e0:
                    62:1f:97:10:93:9d:8d:06:13:e6:6e:51:e9:6d:0f:
                    d9:97:1e:41:84:17:09:75:25:ff:5c:07:78:94:5f:
                    3e:97:e6:64:d7:49:e5:e5:98:a1:cb:e2:0d:f8:c0:
                    33:2d:73:eb:21:68:83:4c:e4:6d:20:24:45:a5:ee:
                    a7:9b:ae:e0:a9:14:55:69:1a:49:23:cb:e4:33:32:
                    98:e7:c1:26:09:49:a0:b7:d5:8f:f0:f5:04:e3:14:
                    44:5d:7f:2d:13:c2:60:13:27:ee:e6:3d:b8:6c:43:
                    a4:68:6f:9a:25:c9:90:6d:e9:ae:29:5d:d8:db:26:
                    6f:fb:44:05:b8:a2:fd:75:35:5d:1a:0a:11:f3:02:
                    4b:f5:84:2e:b6:1a:6a:79:d4:f6:a6:16:ee:d5:af:
                    1a:d9:f5:39:73:34:64:27:26:27:9d:22:aa:6e:2b:
                    40:bf:79:aa:7b:ce:3b:65:6e:c8:24:90:ec:24:29:
                    98:87:59:fe:e5:fe:8a:49:f3:25:97:e7:6e:12:4f:
                    37:7e:7a:40:39:12:85:2b:ed:80:dd:d0:88:35:51:
                    89:31:bc:8b:0b:23:36:bb:fa:13:b2:ab:ab:a0:70:
                    d7:99:ba:ea:c2:38:4e:0e:1b:e1:86:4c:b1:52:a6:
                    ef:85:a8:17:d2:fc:3a:a9:b5:9d:f1:c5:02:0d:2a:
                    e8:08:83:db:2b:13:5b:1c:a0:ff:19:bc:ac:9c:94:
                    78:2a:2d:93:d7:25:93:34:7d:99:e4:3c:4c:cd:f4:
                    42:bc:e2:f3:c7:ec:3d:fc:ed:c5:f6:2c:c0:4e:ff:
                    ab:ee:74:bf:c5:55:30:f0:74:b4:9b:bc:ac:3d:97:
                    0b:27:34:fe:e1:8b:2f:0b:50:8a:a4:fb:7b:e1:0a:
                    55:b3:b4:dc:1d:e1
                Exponent: 65537 (0x10001)
        X509v3 extensions:
            X509v3 Basic Constraints: 
                CA:FALSE
            X509v3 Subject Key Identifier: 
                2F:60:49:97:43:3C:7A:7E:22:C1:44:0B:43:78:D4:9D:7C:DF:A6:12
            X509v3 Authority Key Identifier: 
                keyid:0E:74:B5:09:EC:FB:FA:E7:BA:6B:1A:F6:2B:28:7E:A9:70:DA:D7:18

            X509v3 Subject Alternative Name: 
                email:user-sha512@w1.fi
            X509v3 Extended Key Usage: 
                TLS Web Client Authentication
            X509v3 Key Usage: 
                Digital Signature, Key Encipherment
    Signature Algorithm: sha512WithRSAEncryption
         9d:58:98:97:95:49:c5:bc:be:f2:1d:01:65:ff:2b:5c:24:81:
         71:87:05:3e:11:1d:2f:f2:16:12:d3:0e:36:72:af:87:6b:81:
         c1:7c:aa:c8:be:be:a7:90:2c:7b:35:7c:0f:8b:67:e2:9c:da:
         26:ad:09:fc:56:28:78:3b:3a:00:91:8d:f9:d1:39:a2:c5:3f:
         e4:97:42:70:5c:93:93:23:5f:01:67:37:b7:d9:12:0c:14:dd:
         9d:73:be:9e:46:47:90:21:26:6d:0e:4c:af:0b:80:41:06:94:
         86:ef:49:66:1c:70:83:9c:1b:71:83:16:38:22:f5:a0:47:09:
         bd:69:0f:9f:5b:19:1b:d4:44:f5:15:65:d5:6c:2b:d1:8c:c7:
         3a:f4:a7:22:b0:53:e0:27:ff:06:c6:37:a7:cf:a6:25:2a:d4:
         24:90:3e:46:59:6a:9b:dd:57:71:d1:79:3a:e2:6c:b5:22:19:
         0f:dd:e6:d4:04:eb:fc:65:98:da:fd:e3:7c:04:d6:a0:2a:9e:
         19:d8:aa:44:a7:8e:c6:7d:35:00:e5:ac:24:2f:ec:53:0a:7b:
         3d:bc:67:f3:23:95:fd:98:8b:ba:ac:e0:25:90:b2:38:e1:bb:
         62:a3:0c:39:bb:3b:79:40:53:91:20:10:86:88:f3:ae:ba:5a:
         7a:eb:61:72:4d:3b:cc:fc:1c:ff:86:fb:6a:83:b8:ca:9a:34:
         dc:66:46:e7:d9:39:59:a1:91:a9:d2:b9:38:c7:84:b9:23:10:
         a6:21:e3:de:a1:56:90:bd:63:48:c7:10:d6:2d:2d:e0:90:ba:
         19:3a:57:c4:ea:e4:d8:62:f3:84:c4:dd:a9:e9:fe:07:33:dc:
         ed:7e:27:9d:4a:9e:d4:3d:12:35:84:f0:df:cf:d3:8d:7c:f8:
         2d:cd:2b:24:70:92:40:b1:9f:38:b5:b1:34:b5:47:1b:19:6c:
         5a:a2:ce:04:5a:e6:ce:a4:18:11:88:2c:d6:53:80:3d:87:88:
         5b:89:63:47:0e:ed:52:7b:49:7f:0b:31:66:9c:54:5f:08:7d:
         d7:e3:6e:6c:d6:12:a0:a8:cf:d9:69:6a:53:10:bf:67:d6:0c:
         2e:8e:6a:9a:35:c6:0a:bd:ee:28:2b:9f:d9:af:89:0f:19:5f:
         23:d2:f8:ce:04:69:78:a8:a3:33:3d:dc:d7:09:77:cb:51:8c:
         80:0e:aa:07:60:34:32:b1:b7:e6:04:1c:5d:8e:53:1f:be:fe:
         49:8a:21:a2:d8:f0:f8:ce:70:a4:b7:6e:90:ec:9d:68:f7:33:
         08:67:59:d7:ff:f6:20:00:f5:51:79:66:e6:35:bd:29:85:62:
         d3:e1:3a:1c:b3:8c:ef:8d
-----BEGIN CERTIFICATE-----
MIIFQjCCAyqgAwIBAgIJAMPTjNcrAairMA0GCSqGSIb3DQEBDQUAMFQxCzAJBgNV
BAYTAkZJMREwDwYDVQQHDAhIZWxzaW5raTEOMAwGA1UECgwFdzEuZmkxIjAgBgNV
BAMMGVNIQTM4NCBhbmQgU0hBNTEyIFJvb3QgQ0EwHhcNMTUxMTI5MjIzMzI1WhcN
MjUxMTI2MjIzMzI1WjAzMQswCQYDVQQGEwJGSTEOMAwGA1UECgwFdzEuZmkxFDAS
BgNVBAMMC3VzZXItc2hhNTEyMIIByzANBgkqhkiG9w0BAQEFAAOCAbgAMIIBswKC
AaoAxFat36sivLFxw/XniwGsZFhXl/T6AvKy8f5LjAbhM/yLmNfycJDz3jlFF5/3
wzUAr0tdmhraMsQRxLnAReo+qI8/rRkvPEn876flU42yHa8snfqDGaJ3TuBiH5cQ
k52NBhPmblHpbQ/Zlx5BhBcJdSX/XAd4lF8+l+Zk10nl5Zihy+IN+MAzLXPrIWiD
TORtICRFpe6nm67gqRRVaRpJI8vkMzKY58EmCUmgt9WP8PUE4xREXX8tE8JgEyfu
5j24bEOkaG+aJcmQbemuKV3Y2yZv+0QFuKL9dTVdGgoR8wJL9YQuthpqedT2phbu
1a8a2fU5czRkJyYnnSKqbitAv3mqe847ZW7IJJDsJCmYh1n+5f6KSfMll+duEk83
fnpAORKFK+2A3dCINVGJMbyLCyM2u/oTsquroHDXmbrqwjhODhvhhkyxUqbvhagX
0vw6qbWd8cUCDSroCIPbKxNbHKD/GbysnJR4Ki2T1yWTNH2Z5DxMzfRCvOLzx+w9
/O3F9izATv+r7nS/xVUw8HS0m7ysPZcLJzT+4YsvC1CKpPt74QpVs7TcHeECAwEA
AaOBjjCBizAJBgNVHRMEAjAAMB0GA1UdDgQWBBQvYEmXQzx6fiLBRAtDeNSdfN+m
EjAfBgNVHSMEGDAWgBQOdLUJ7Pv657prGvYrKH6pcNrXGDAcBgNVHREEFTATgRF1
c2VyLXNoYTUxMkB3MS5maTATBgNVHSUEDDAKBggrBgEFBQcDAjALBgNVHQ8EBAMC
BaAwDQYJKoZIhvcNAQENBQADggIBAJ1YmJeVScW8vvIdAWX/K1wkgXGHBT4RHS/y
FhLTDjZyr4drgcF8qsi+vqeQLHs1fA+LZ+Kc2iatCfxWKHg7OgCRjfnROaLFP+SX
QnBck5MjXwFnN7fZEgwU3Z1zvp5GR5AhJm0OTK8LgEEGlIbvSWYccIOcG3GDFjgi
9aBHCb1pD59bGRvURPUVZdVsK9GMxzr0pyKwU+An/wbGN6fPpiUq1CSQPkZZapvd
V3HReTribLUiGQ/d5tQE6/xlmNr943wE1qAqnhnYqkSnjsZ9NQDlrCQv7FMKez28
Z/Mjlf2Yi7qs4CWQsjjhu2KjDDm7O3lAU5EgEIaI8666WnrrYXJNO8z8HP+G+2qD
uMqaNNxmRufZOVmhkanSuTjHhLkjEKYh496hVpC9Y0jHENYtLeCQuhk6V8Tq5Nhi
84TE3anp/gcz3O1+J51KntQ9EjWE8N/P0418+C3NKyRwkkCxnzi1sTS1RxsZbFqi
zgRa5s6kGBGILNZTgD2HiFuJY0cO7VJ7SX8LMWacVF8IfdfjbmzWEqCoz9lpalMQ
v2fWDC6Oapo1xgq97igrn9mviQ8ZXyPS+M4EaXioozM93NcJd8tRjIAOqgdgNDKx
t+YEHF2OUx++/kmKIaLY8PjOcKS3bpDsnWj3MwhnWdf/9iAA9VF5ZuY1vSmFYtPh
OhyzjO+N
-----END CERTIFICATE-----
