Certificate:
    Data:
        Version: 3 (0x2)
        Serial Number: 14110776913249282217 (0xc3d38cd72b01a8a9)
    Signature Algorithm: sha512WithRSAEncryption
        Issuer: C=FI, L=Helsinki, O=w1.fi, CN=SHA384 and SHA512 Root CA
        Validity
            Not Before: Nov 29 22:33:25 2015 GMT
            Not After : Nov 26 22:33:25 2025 GMT
        Subject: C=FI, O=w1.fi, CN=sha512.server.w1.fi
        Subject Public Key Info:
            Public Key Algorithm: rsaEncryption
                Public-Key: (3500 bit)
                Modulus:
                    0c:94:ad:ce:43:61:28:34:5f:d7:de:c5:a5:eb:36:
                    36:25:77:19:fb:a5:9b:0e:bb:ed:6e:d9:10:1b:70:
                    d3:4a:14:fb:3e:5c:50:a2:84:b3:2e:fd:09:cd:c4:
                    ab:f9:fa:7e:e7:8e:e8:33:50:8a:01:83:42:39:3b:
                    27:68:8b:fa:e6:5c:60:86:e8:d0:56:5a:79:bc:2a:
                    ca:a9:0b:f5:89:d5:a3:25:76:c1:71:8b:8a:32:2a:
                    27:81:8b:31:a8:f9:a9:6c:62:00:29:cd:6a:7c:2c:
                    cc:03:34:77:5f:93:e7:f2:1a:8c:a7:78:9a:30:29:
                    d1:95:3b:60:6b:89:d0:f4:69:b1:82:7c:17:73:b5:
                    2b:5a:ef:a6:ec:7b:c7:9b:e3:0a:3c:4c:41:98:ad:
                    b4:a4:05:30:55:60:59:a9:0d:1c:39:b4:b4:f3:70:
                    fc:b7:d3:47:e6:44:3f:8f:3e:6e:d0:31:8e:85:ee:
                    2f:2c:f5:9d:86:c1:82:77:11:cd:f4:15:a8:78:2a:
                    18:9d:b6:2c:1f:96:51:d6:3c:b6:2e:f4:e3:65:d4:
                    9f:4e:92:e6:55:18:e2:3e:6e:1e:c5:3d:5d:75:21:
                    2c:7a:af:ca:fe:0b:3d:18:96:4c:86:f2:a7:f8:6d:
                    b3:0f:0d:cb:f7:45:86:bf:88:21:55:f4:1c:cc:a7:
                    ef:b2:49:13:42:ce:95:74:fa:64:b0:e4:ff:38:da:
                    14:ef:5c:10:70:0a:a8:30:4f:22:f8:f9:56:a8:f4:
                    f7:1f:e9:31:88:4a:7d:ed:11:27:89:49:e7:06:a6:
                    5a:d3:27:dc:60:7b:2d:91:5a:48:11:3f:e0:a3:d2:
                    bd:89:af:c8:a3:84:a0:27:b5:89:98:fd:3c:58:f4:
                    a8:db:81:7b:ba:08:0b:d5:5f:30:7c:ea:19:d5:77:
                    df:85:fa:c4:f4:eb:47:ff:70:65:d9:d1:91:79:10:
                    a7:1b:11:ca:ae:d8:df:bd:f1:f1:54:d9:0d:8b:78:
                    1c:60:cd:9e:63:04:05:86:60:ab:19:e7:cf:dd:cf:
                    ea:3d:0d:ff:81:17:8b:74:5b:85:a9:e4:93:ca:74:
                    86:e4:4c:44:d4:0b:06:8d:06:d3:35:4e:f7:ad:2a:
                    f6:77:d0:76:5c:fc:3c:63:2e:fd:3f:42:41:36:72:
                    d6:78:3f
                Exponent: 65537 (0x10001)
        X509v3 extensions:
            X509v3 Basic Constraints: critical
                CA:FALSE
            X509v3 Subject Key Identifier: 
                39:3B:83:DB:3C:59:8F:5C:66:D8:86:6A:22:F9:F6:6C:B4:29:37:A3
            X509v3 Authority Key Identifier: 
                keyid:0E:74:B5:09:EC:FB:FA:E7:BA:6B:1A:F6:2B:28:7E:A9:70:DA:D7:18

            X509v3 Subject Alternative Name: critical
                DNS:sha512.server.w1.fi
            X509v3 Extended Key Usage: critical
                TLS Web Server Authentication
            X509v3 Key Usage: 
                Digital Signature, Key Encipherment
    Signature Algorithm: sha512WithRSAEncryption
         8f:42:08:a0:bc:c1:eb:50:ef:6a:26:b7:3e:54:a6:7a:ad:b0:
         66:d3:1d:4c:d4:bc:63:9f:f9:b8:58:ec:33:82:9a:7e:60:28:
         e8:2b:ee:a6:51:46:7f:bf:c4:39:71:8e:a4:d8:11:88:2e:89:
         60:82:4a:d7:e9:a5:6e:cb:ec:4b:79:d4:48:3f:e3:fd:1f:e2:
         6f:7e:43:bf:63:ff:e3:ec:d3:82:7f:bd:2a:3a:66:45:50:d5:
         f7:ea:5b:28:4c:b0:f8:89:8a:03:e3:22:6a:eb:ee:09:46:6a:
         8a:c6:c9:a7:62:41:ae:ea:42:5a:7c:16:0a:b3:33:51:5c:b7:
         26:51:68:cb:ec:7e:6e:7c:cd:1b:24:be:c9:91:53:0f:dc:d2:
         e0:d3:df:18:05:ca:f6:98:bf:d2:d6:c2:88:8f:93:91:2d:7b:
         6d:3c:56:c2:0d:90:11:93:29:67:5e:c5:b7:c5:0f:e0:b3:09:
         d6:60:ca:b5:d5:8d:ff:fd:57:6b:fb:05:23:62:8f:4e:bf:03:
         bc:da:ba:81:a3:7f:53:f4:8f:d1:49:1c:e0:32:47:b6:b9:71:
         d4:85:5e:a8:44:63:47:1d:9d:6b:34:eb:c5:da:02:2a:5a:07:
         5b:3f:0c:47:f2:a3:54:5d:e0:3a:0c:eb:77:3b:d5:fd:03:1e:
         01:f6:c5:68:3f:d6:ed:cb:f9:4c:03:06:65:a9:9a:39:6b:20:
         d7:11:eb:62:c7:09:0d:b0:51:b4:49:ff:3e:02:7d:e4:a1:6b:
         36:bf:f3:04:33:1f:7e:b2:69:af:7d:bb:a8:ef:7f:7e:0b:d3:
         33:4f:8e:61:09:fa:a3:b9:d5:97:8c:0b:90:17:ce:72:52:2a:
         de:b8:96:4d:36:c0:b8:d7:7d:9e:56:e0:38:6b:a7:02:a0:90:
         6f:e8:ee:4f:f2:26:f3:6b:a4:75:80:8f:b0:c4:1b:d4:37:49:
         75:4b:d9:ed:2b:11:3c:ed:a8:dd:4b:8f:01:60:4d:26:f4:2d:
         6b:74:d5:75:79:88:2f:18:5e:76:6c:80:2c:eb:da:e2:cc:46:
         a1:67:89:f5:f6:29:35:ae:b2:f6:79:a8:c3:43:f6:6a:a3:39:
         d7:64:65:b7:bd:a6:c9:2d:60:70:4b:d9:60:1b:a9:a6:5e:b0:
         cd:88:02:ae:28:57:b0:46:44:1a:ad:dc:1f:bb:e3:90:db:3c:
         07:a1:bf:a9:31:1c:0d:97:37:78:80:8a:7f:f8:7a:60:0b:0f:
         fe:d1:bc:38:ff:b3:72:72:80:e0:65:1d:86:90:b0:f6:7a:38:
         1b:7b:05:b7:d9:f9:44:3e:4a:1c:2b:d4:3a:cc:db:75:20:eb:
         6d:bf:22:4b:83:1c:4f:39
-----BEGIN CERTIFICATE-----
MIIFYTCCA0mgAwIBAgIJAMPTjNcrAaipMA0GCSqGSIb3DQEBDQUAMFQxCzAJBgNV
BAYTAkZJMREwDwYDVQQHDAhIZWxzaW5raTEOMAwGA1UECgwFdzEuZmkxIjAgBgNV
BAMMGVNIQTM4NCBhbmQgU0hBNTEyIFJvb3QgQ0EwHhcNMTUxMTI5MjIzMzI1WhcN
MjUxMTI2MjIzMzI1WjA7MQswCQYDVQQGEwJGSTEOMAwGA1UECgwFdzEuZmkxHDAa
BgNVBAMME3NoYTUxMi5zZXJ2ZXIudzEuZmkwggHXMA0GCSqGSIb3DQEBAQUAA4IB
xAAwggG/AoIBtgyUrc5DYSg0X9fexaXrNjYldxn7pZsOu+1u2RAbcNNKFPs+XFCi
hLMu/QnNxKv5+n7njugzUIoBg0I5Oydoi/rmXGCG6NBWWnm8KsqpC/WJ1aMldsFx
i4oyKieBizGo+alsYgApzWp8LMwDNHdfk+fyGoyneJowKdGVO2BridD0abGCfBdz
tSta76bse8eb4wo8TEGYrbSkBTBVYFmpDRw5tLTzcPy300fmRD+PPm7QMY6F7i8s
9Z2GwYJ3Ec30Fah4KhidtiwfllHWPLYu9ONl1J9OkuZVGOI+bh7FPV11ISx6r8r+
Cz0YlkyG8qf4bbMPDcv3RYa/iCFV9BzMp++ySRNCzpV0+mSw5P842hTvXBBwCqgw
TyL4+Vao9Pcf6TGISn3tESeJSecGplrTJ9xgey2RWkgRP+Cj0r2Jr8ijhKAntYmY
/TxY9KjbgXu6CAvVXzB86hnVd9+F+sT060f/cGXZ0ZF5EKcbEcqu2N+98fFU2Q2L
eBxgzZ5jBAWGYKsZ58/dz+o9Df+BF4t0W4Wp5JPKdIbkTETUCwaNBtM1TvetKvZ3
0HZc/DxjLv0/QkE2ctZ4PwIDAQABo4GZMIGWMAwGA1UdEwEB/wQCMAAwHQYDVR0O
BBYEFDk7g9s8WY9cZtiGaiL59my0KTejMB8GA1UdIwQYMBaAFA50tQns+/rnumsa
9isofqlw2tcYMCEGA1UdEQEB/wQXMBWCE3NoYTUxMi5zZXJ2ZXIudzEuZmkwFgYD
VR0lAQH/BAwwCgYIKwYBBQUHAwEwCwYDVR0PBAQDAgWgMA0GCSqGSIb3DQEBDQUA
A4ICAQCPQgigvMHrUO9qJrc+VKZ6rbBm0x1M1Lxjn/m4WOwzgpp+YCjoK+6mUUZ/
v8Q5cY6k2BGILolggkrX6aVuy+xLedRIP+P9H+JvfkO/Y//j7NOCf70qOmZFUNX3
6lsoTLD4iYoD4yJq6+4JRmqKxsmnYkGu6kJafBYKszNRXLcmUWjL7H5ufM0bJL7J
kVMP3NLg098YBcr2mL/S1sKIj5ORLXttPFbCDZARkylnXsW3xQ/gswnWYMq11Y3/
/Vdr+wUjYo9OvwO82rqBo39T9I/RSRzgMke2uXHUhV6oRGNHHZ1rNOvF2gIqWgdb
PwxH8qNUXeA6DOt3O9X9Ax4B9sVoP9bty/lMAwZlqZo5ayDXEetixwkNsFG0Sf8+
An3koWs2v/MEMx9+smmvfbuo739+C9MzT45hCfqjudWXjAuQF85yUireuJZNNsC4
132eVuA4a6cCoJBv6O5P8ibza6R1gI+wxBvUN0l1S9ntKxE87ajdS48BYE0m9C1r
dNV1eYgvGF52bIAs69rizEahZ4n19ik1rrL2eajDQ/ZqoznXZGW3vabJLWBwS9lg
G6mmXrDNiAKuKFewRkQardwfu+OQ2zwHob+pMRwNlzd4gIp/+HpgCw/+0bw4/7Ny
coDgZR2GkLD2ejgbewW32flEPkocK9Q6zNt1IOttvyJLgxxPOQ==
-----END CERTIFICATE-----
