Certificate:
    Data:
        Version: 3 (0x2)
        Serial Number: 10 (0xa)
        Signature Algorithm: sha1WithRSAEncryption
        Issuer: C=SE, CN=Sub CA
        Validity
            Not Before: Nov 15 06:58:59 2007 GMT
            Not After : Nov 12 06:58:59 2017 GMT
        Subject: C=SE, CN=Test sub cert
        Subject Public Key Info:
            Public Key Algorithm: rsaEncryption
            RSA Public Key: (1024 bit)
                Modulus (1024 bit):
                    00:da:41:57:e1:62:23:1b:bf:ac:1c:a9:06:c8:98:
                    77:38:dc:33:a3:03:c0:02:6d:d8:6d:68:95:b1:ea:
                    60:c0:c2:96:23:34:91:fb:32:44:44:cd:72:40:5b:
                    a3:cf:57:94:3c:8d:a9:30:11:73:61:15:17:10:a6:
                    17:7d:9d:27:f0:58:23:ee:a4:83:3c:b1:0f:20:0c:
                    a4:3d:01:ef:de:93:cb:b5:02:c1:1e:b4:54:35:6a:
                    8f:55:7b:5d:76:0a:f9:6d:b1:31:25:4c:fb:e2:d6:
                    6e:94:e9:8a:c4:cc:4e:28:6b:bd:4c:80:85:2c:87:
                    eb:31:88:6d:27:2a:d3:df:1f
                Exponent: 65537 (0x10001)
        X509v3 extensions:
            X509v3 Basic Constraints: 
                CA:FALSE
            X509v3 Key Usage: 
                Digital Signature, Non Repudiation, Key Encipherment
            X509v3 Subject Key Identifier: 
                D3:5F:89:9B:31:E6:2A:E0:C6:64:27:9F:A4:E5:42:8C:70:99:96:25
    Signature Algorithm: sha1WithRSAEncryption
        34:f9:9f:c5:6f:44:55:6a:15:8f:51:ab:c1:44:18:0e:eb:9a:
        d0:c4:64:ce:ab:24:2b:77:82:f3:88:e3:9e:1f:9c:8d:28:a6:
        be:3d:d5:3e:5e:95:01:c8:b9:d4:e2:b5:17:06:1d:10:0b:a5:
        64:29:d9:45:b0:fd:16:ec:5d:3c:3f:58:55:25:90:d0:e4:4f:
        3f:9f:9c:5f:d5:1e:0c:73:a5:1a:7c:71:10:b5:a3:d5:fb:0f:
        d3:de:fc:9a:06:bc:0b:8c:72:eb:bc:fc:d1:47:87:68:44:25:
        25:ab:51:e9:af:d8:9e:1b:04:f2:1c:4f:4c:27:a0:87:11:4a:
        69:67
-----BEGIN CERTIFICATE-----
MIIB8jCCAVugAwIBAgIBCjANBgkqhkiG9w0BAQUFADAeMQswCQYDVQQGEwJTRTEP
MA0GA1UEAwwGU3ViIENBMB4XDTA3MTExNTA2NTg1OVoXDTE3MTExMjA2NTg1OVow
JTELMAkGA1UEBhMCU0UxFjAUBgNVBAMMDVRlc3Qgc3ViIGNlcnQwgZ8wDQYJKoZI
hvcNAQEBBQADgY0AMIGJAoGBANpBV+FiIxu/rBypBsiYdzjcM6MDwAJt2G1olbHq
YMDCliM0kfsyRETNckBbo89XlDyNqTARc2EVFxCmF32dJ/BYI+6kgzyxDyAMpD0B
796Ty7UCwR60VDVqj1V7XXYK+W2xMSVM++LWbpTpisTMTihrvUyAhSyH6zGIbScq
098fAgMBAAGjOTA3MAkGA1UdEwQCMAAwCwYDVR0PBAQDAgXgMB0GA1UdDgQWBBTT
X4mbMeYq4MZkJ5+k5UKMcJmWJTANBgkqhkiG9w0BAQUFAAOBgQA0+Z/Fb0RVahWP
UavBRBgO65rQxGTOqyQrd4LziOOeH5yNKKa+PdU+XpUByLnU4rUXBh0QC6VkKdlF
sP0W7F08P1hVJZDQ5E8/n5xf1R4Mc6UafHEQtaPV+w/T3vyaBrwLjHLrvPzRR4do
RCUlq1Hpr9ieGwTyHE9MJ6CHEUppZw==
-----END CERTIFICATE-----
