Certificate:
    Data:
        Version: 3 (0x2)
        Serial Number: 5 (0x5)
        Signature Algorithm: sha1WithRSAEncryption
        Issuer: CN=hx509 Test Root CA, C=SE
        Validity
            Not Before: Nov 15 06:58:57 2007 GMT
            Not After : Nov 12 06:58:57 2017 GMT
        Subject: C=SE, CN=Test cert DigitalSignature
        Subject Public Key Info:
            Public Key Algorithm: rsaEncryption
            RSA Public Key: (1024 bit)
                Modulus (1024 bit):
                    00:c7:40:d0:87:47:81:b2:4e:4b:36:7c:c9:8d:9d:
                    eb:dc:65:13:20:dc:72:0f:bf:5e:44:36:aa:18:fc:
                    09:54:8c:1a:4e:15:5a:c5:c3:0c:95:f7:55:1c:b0:
                    93:d2:80:92:eb:7e:67:b4:2e:9c:0c:fd:65:6a:9c:
                    d6:35:d2:c2:62:3f:a2:6c:90:9e:a6:5a:59:33:e1:
                    3a:13:9a:9d:9a:7e:2b:a2:44:96:41:87:b3:e2:b8:
                    62:1b:88:46:08:39:c5:7a:90:83:42:22:c9:73:9f:
                    41:51:1d:40:34:0f:94:0e:2a:ee:27:76:6d:6d:44:
                    d2:e7:90:ad:9c:da:f8:7f:87
                Exponent: 65537 (0x10001)
        X509v3 extensions:
            X509v3 Basic Constraints: 
                CA:FALSE
            X509v3 Key Usage: 
                Digital Signature, Non Repudiation
            X509v3 Subject Key Identifier: 
                B9:41:3E:C9:AB:F2:37:75:F1:F8:C7:86:BB:54:78:76:15:16:D9:BB
    Signature Algorithm: sha1WithRSAEncryption
        72:fc:ea:ad:ec:08:be:45:34:5e:d0:1b:d0:0d:fc:2f:70:89:
        8e:58:fb:15:ce:7b:78:8f:db:e9:97:cc:89:10:e6:10:f5:22:
        f9:e9:c6:0d:4e:f9:35:c6:e2:5f:ab:28:47:e3:d6:94:d0:80:
        db:44:4a:a9:8b:86:8b:c6:09:7b:d5:eb:07:ef:92:5a:ac:9a:
        a7:04:c5:e2:c5:3f:01:d0:c1:92:c1:14:90:50:bd:0f:38:09:
        0e:c5:9f:96:bd:42:8b:87:ac:b1:62:ca:bc:79:1d:fc:23:06:
        55:b3:55:f2:b8:49:67:8e:d7:63:1f:52:aa:b9:19:e0:1f:18:
        11:ac
-----BEGIN CERTIFICATE-----
MIICCzCCAXSgAwIBAgIBBTANBgkqhkiG9w0BAQUFADAqMRswGQYDVQQDDBJoeDUw
OSBUZXN0IFJvb3QgQ0ExCzAJBgNVBAYTAlNFMB4XDTA3MTExNTA2NTg1N1oXDTE3
MTExMjA2NTg1N1owMjELMAkGA1UEBhMCU0UxIzAhBgNVBAMMGlRlc3QgY2VydCBE
aWdpdGFsU2lnbmF0dXJlMIGfMA0GCSqGSIb3DQEBAQUAA4GNADCBiQKBgQDHQNCH
R4GyTks2fMmNnevcZRMg3HIPv15ENqoY/AlUjBpOFVrFwwyV91UcsJPSgJLrfme0
LpwM/WVqnNY10sJiP6JskJ6mWlkz4ToTmp2afiuiRJZBh7PiuGIbiEYIOcV6kINC
Islzn0FRHUA0D5QOKu4ndm1tRNLnkK2c2vh/hwIDAQABozkwNzAJBgNVHRMEAjAA
MAsGA1UdDwQEAwIGwDAdBgNVHQ4EFgQUuUE+yavyN3Xx+MeGu1R4dhUW2bswDQYJ
KoZIhvcNAQEFBQADgYEAcvzqrewIvkU0XtAb0A38L3CJjlj7Fc57eI/b6ZfMiRDm
EPUi+enGDU75NcbiX6soR+PWlNCA20RKqYuGi8YJe9XrB++SWqyapwTF4sU/AdDB
ksEUkFC9DzgJDsWflr1Ci4essWLKvHkd/CMGVbNV8rhJZ47XYx9SqrkZ4B8YEaw=
-----END CERTIFICATE-----
