Certificate:
    Data:
        Version: 3 (0x2)
        Serial Number: 4 (0x4)
        Signature Algorithm: sha1WithRSAEncryption
        Issuer: CN=hx509 Test Root CA, C=SE
        Validity
            Not Before: Nov 15 06:58:57 2007 GMT
            Not After : Nov 12 06:58:57 2017 GMT
        Subject: C=SE, CN=Test cert KeyEncipherment
        Subject Public Key Info:
            Public Key Algorithm: rsaEncryption
            RSA Public Key: (1024 bit)
                Modulus (1024 bit):
                    00:bd:6a:09:6d:65:fd:2f:a6:02:74:48:59:5a:d6:
                    b1:cf:d2:30:60:21:92:bf:ed:94:d1:df:e9:de:b7:
                    c2:c5:5d:c8:7b:a7:f2:b3:e0:1b:78:ba:a8:ba:4b:
                    ee:95:5c:06:77:10:39:be:e5:4c:4a:f0:1e:96:a0:
                    df:77:7a:7a:06:ce:95:b0:d9:fd:ac:4b:85:45:b1:
                    7c:a5:51:af:b8:c3:82:6f:21:09:37:03:b0:61:e0:
                    04:46:a8:71:56:a6:36:67:79:42:e1:ef:bf:28:1d:
                    a0:ef:02:6e:26:60:e1:fe:05:95:72:87:b9:c1:08:
                    8e:ed:dc:fd:71:06:15:80:79
                Exponent: 65537 (0x10001)
        X509v3 extensions:
            X509v3 Basic Constraints: 
                CA:FALSE
            X509v3 Key Usage: 
                Non Repudiation, Key Encipherment
            X509v3 Subject Key Identifier: 
                17:F3:F4:8B:D1:CD:D4:A3:D9:9D:A0:0E:6E:52:EE:11:03:85:32:6F
    Signature Algorithm: sha1WithRSAEncryption
        5f:1d:86:c2:bd:eb:c7:75:ad:b6:ec:c8:10:96:4f:8b:b2:36:
        b4:7b:ba:c4:b5:6c:1c:2e:80:eb:d0:97:5f:71:48:8a:79:f7:
        05:ee:2b:96:ef:b9:68:0d:fa:86:73:c7:30:3f:22:81:ea:cf:
        46:3a:4b:4d:31:39:29:5d:1a:b8:44:ae:12:f1:18:ea:de:55:
        47:f4:1c:77:07:34:41:cf:1c:f1:1c:f8:0d:63:c1:e8:b4:98:
        e7:cb:c1:2d:96:b3:5a:21:6e:fa:e7:e1:15:87:84:c9:71:31:
        5f:6f:93:98:7f:ca:00:d3:8d:96:bb:b5:03:af:c0:4d:4e:a2:
        a5:97
-----BEGIN CERTIFICATE-----
MIICCjCCAXOgAwIBAgIBBDANBgkqhkiG9w0BAQUFADAqMRswGQYDVQQDDBJoeDUw
OSBUZXN0IFJvb3QgQ0ExCzAJBgNVBAYTAlNFMB4XDTA3MTExNTA2NTg1N1oXDTE3
MTExMjA2NTg1N1owMTELMAkGA1UEBhMCU0UxIjAgBgNVBAMMGVRlc3QgY2VydCBL
ZXlFbmNpcGhlcm1lbnQwgZ8wDQYJKoZIhvcNAQEBBQADgY0AMIGJAoGBAL1qCW1l
/S+mAnRIWVrWsc/SMGAhkr/tlNHf6d63wsVdyHun8rPgG3i6qLpL7pVcBncQOb7l
TErwHpag33d6egbOlbDZ/axLhUWxfKVRr7jDgm8hCTcDsGHgBEaocVamNmd5QuHv
vygdoO8CbiZg4f4FlXKHucEIju3c/XEGFYB5AgMBAAGjOTA3MAkGA1UdEwQCMAAw
CwYDVR0PBAQDAgVgMB0GA1UdDgQWBBQX8/SL0c3Uo9mdoA5uUu4RA4UybzANBgkq
hkiG9w0BAQUFAAOBgQBfHYbCvevHda227MgQlk+Lsja0e7rEtWwcLoDr0JdfcUiK
efcF7iuW77loDfqGc8cwPyKB6s9GOktNMTkpXRq4RK4S8Rjq3lVH9Bx3BzRBzxzx
HPgNY8HotJjny8EtlrNaIW765+EVh4TJcTFfb5OYf8oA042Wu7UDr8BNTqKllw==
-----END CERTIFICATE-----
