Certificate:
    Data:
        Version: 3 (0x2)
        Serial Number: 2 (0x2)
        Signature Algorithm: sha1WithRSAEncryption
        Issuer: CN=hx509 Test Root CA, C=SE
        Validity
            Not Before: Nov 15 06:58:56 2007 GMT
            Not After : Nov 12 06:58:56 2017 GMT
        Subject: C=SE, CN=Test cert
        Subject Public Key Info:
            Public Key Algorithm: rsaEncryption
            RSA Public Key: (1024 bit)
                Modulus (1024 bit):
                    00:e8:bd:c6:8e:de:37:d8:f3:43:23:c3:27:b6:49:
                    65:33:a8:b2:a9:f0:16:0d:90:49:47:7b:90:98:e4:
                    ae:de:dd:64:b6:3b:48:b7:2e:0b:02:18:1f:85:f3:
                    48:af:78:4b:54:34:63:62:06:30:f0:b5:a2:e9:db:
                    35:6c:c7:55:f5:30:27:a0:66:54:a5:e8:52:27:52:
                    43:4e:90:04:11:6a:e8:2b:52:e4:8d:fe:fd:c4:aa:
                    b0:4e:63:c6:aa:2d:0a:4e:1d:ae:1c:0d:c8:12:10:
                    93:af:5c:e5:31:30:df:2c:0d:d7:c4:9e:d1:fd:37:
                    3a:45:71:fa:62:af:90:5e:c3
                Exponent: 65537 (0x10001)
        X509v3 extensions:
            X509v3 Basic Constraints: 
                CA:FALSE
            X509v3 Key Usage: 
                Digital Signature, Non Repudiation, Key Encipherment
            X509v3 Subject Key Identifier: 
                D0:9B:77:9A:88:C7:AD:71:07:17:56:E1:0C:4D:B2:23:85:81:D1:EB
    Signature Algorithm: sha1WithRSAEncryption
        88:f8:ee:7d:35:36:1c:a9:71:e4:c5:64:b9:c9:c2:2d:9d:d5:
        79:67:25:12:d7:96:28:4c:dd:92:6a:19:6b:ce:bc:fa:78:bd:
        f3:d2:c4:5c:a9:d9:4a:b7:ef:40:8f:c8:e2:1a:67:90:58:a4:
        71:76:87:c2:66:9e:69:57:37:c9:15:b8:c7:d9:fa:3f:32:be:
        14:5e:7b:41:5c:7f:c2:54:1b:f1:1b:15:20:8c:0a:62:7c:71:
        07:ff:7d:df:71:75:0c:4b:7d:b8:a1:59:e1:5a:4e:b7:c1:df:
        98:3b:cf:c9:de:e3:73:6f:fa:2d:fa:39:c5:59:92:08:c4:6b:
        43:7a
-----BEGIN CERTIFICATE-----
MIIB+jCCAWOgAwIBAgIBAjANBgkqhkiG9w0BAQUFADAqMRswGQYDVQQDDBJoeDUw
OSBUZXN0IFJvb3QgQ0ExCzAJBgNVBAYTAlNFMB4XDTA3MTExNTA2NTg1NloXDTE3
MTExMjA2NTg1NlowITELMAkGA1UEBhMCU0UxEjAQBgNVBAMMCVRlc3QgY2VydDCB
nzANBgkqhkiG9w0BAQEFAAOBjQAwgYkCgYEA6L3Gjt432PNDI8MntkllM6iyqfAW
DZBJR3uQmOSu3t1ktjtIty4LAhgfhfNIr3hLVDRjYgYw8LWi6ds1bMdV9TAnoGZU
pehSJ1JDTpAEEWroK1Lkjf79xKqwTmPGqi0KTh2uHA3IEhCTr1zlMTDfLA3XxJ7R
/Tc6RXH6Yq+QXsMCAwEAAaM5MDcwCQYDVR0TBAIwADALBgNVHQ8EBAMCBeAwHQYD
VR0OBBYEFNCbd5qIx61xBxdW4QxNsiOFgdHrMA0GCSqGSIb3DQEBBQUAA4GBAIj4
7n01NhypceTFZLnJwi2d1XlnJRLXlihM3ZJqGWvOvPp4vfPSxFyp2Uq370CPyOIa
Z5BYpHF2h8JmnmlXN8kVuMfZ+j8yvhRee0Fcf8JUG/EbFSCMCmJ8cQf/fd9xdQxL
fbihWeFaTrfB35g7z8ne43Nv+i36OcVZkgjEa0N6
-----END CERTIFICATE-----
-----BEGIN RSA PRIVATE KEY-----
MIICXgIBAAKBgQDovcaO3jfY80Mjwye2SWUzqLKp8BYNkElHe5CY5K7e3WS2O0i3
LgsCGB+F80iveEtUNGNiBjDwtaLp2zVsx1X1MCegZlSl6FInUkNOkAQRaugrUuSN
/v3EqrBOY8aqLQpOHa4cDcgSEJOvXOUxMN8sDdfEntH9NzpFcfpir5BewwIDAQAB
AoGBAKS3WsVWBBRo5cVzorFh9FvBMuEOZ60lxpbunoF2p0RXT6WhA2+RCH1s8TJt
4a0956IqiYOgehaBllEHsSHRWcUZ0P96qhZbVn1fWem0/U1VGb6d9WFftqPCOgYI
0joyDn+mmS1nhILexQARULyM67JyhX1xVbgFQUeTtr2WGIdBAkEA9hQURHdgxsu+
iqe+93I1mA0LccKI3Mmb9jM0DBW1+NeGw17xE39u2DTLsFTIXkcpGzbaJYPaaOhU
pcpLX7haMQJBAPIgCT9cwEhX/MQq4eViCXd7blg4FxlDJDrD8sC8E0xss2N9Kpk4
aJBtd4leOlzDwCanlWHrMCKo/NuE2b58FzMCQQDLTMtxxS6vDqTc6LlctX6RoDVU
RuPLhMTVInhdg5JTg7xSrJ1+/kkVVojxpRnkyeWsFiUj2UsYYNmOHxMmgagBAkEA
1to8uoAolEmXn89Zsv3C3salzRzAyob84DS+9e4uxdNzf+Yy5dHbX8Xzm+8EpQqD
OQnekgxsI2WHM5h4zAI7ZwJAefxLT1ljFxZmp1612/jqDaeNmmUHIN2aMpDinIle
r2S7S+UC+m573YcLZoYy9QAcTjnvgs/99zXjewfIQSQOmw==
-----END RSA PRIVATE KEY-----
