Certificate:
    Data:
        Version: 3 (0x2)
        Serial Number:
            5c:9d:e4:a6:d1:7a:49:c8:83:75:e7:57:68:f7:72:16:b2:ae:b7:83
        Signature Algorithm: sha256WithRSAEncryption
        Issuer: C=FI, O=w1.fi, CN=Server Intermediate CA
        Validity
            Not Before: May  3 15:20:10 2020 GMT
            Not After : May  1 15:20:10 2030 GMT
        Subject: C=FI, O=w1.fi, CN=server-revoked.w1.fi
        Subject Public Key Info:
            Public Key Algorithm: rsaEncryption
                RSA Public-Key: (2048 bit)
                Modulus:
                    00:ba:86:db:62:ad:55:bc:3b:41:f1:c1:ef:3d:61:
                    13:6d:65:8a:d1:be:58:41:a6:e0:5d:f2:c5:f3:a7:
                    c1:c2:6c:9e:b0:5f:f0:16:2c:e4:ba:7d:26:b7:69:
                    43:72:b1:d7:28:d2:06:3d:6e:9c:67:32:38:3f:3c:
                    63:94:8d:63:e9:7f:b3:7b:67:0b:d6:c9:02:ec:da:
                    7e:e1:5b:21:e4:a1:ea:01:ec:b8:bd:6f:5e:d2:92:
                    e5:33:da:a5:13:a6:8e:04:b5:19:7a:07:9a:e8:03:
                    ee:bd:4a:2c:65:6c:ec:3a:48:38:7e:0d:30:30:ee:
                    1a:d9:1a:be:02:d0:e1:f2:95:17:21:08:3c:49:4d:
                    8f:11:c7:b4:8c:e6:93:4b:4a:fa:dd:ac:0a:72:d8:
                    82:8a:e1:6c:99:1e:77:1b:88:12:b3:72:cf:dc:fa:
                    57:d2:63:e1:2d:c0:5a:57:36:d4:ff:37:20:20:01:
                    b4:11:19:2c:f9:9b:f6:fa:93:ff:ca:69:f2:84:eb:
                    6f:af:44:b8:18:e3:d8:42:29:97:21:01:e1:47:a1:
                    fc:ed:58:74:b0:ab:f9:75:5c:e8:49:aa:16:4a:19:
                    31:e8:c5:8c:60:99:48:9f:d9:78:92:ec:31:0b:20:
                    64:d9:57:1c:6e:6a:a6:dd:f8:55:2f:cc:2b:76:11:
                    b5:9b
                Exponent: 65537 (0x10001)
        X509v3 extensions:
            X509v3 Basic Constraints: critical
                CA:FALSE
            X509v3 Subject Key Identifier: 
                FB:67:34:A4:0E:E6:BB:BF:90:0D:7C:B2:69:E8:04:D5:71:8F:76:44
            X509v3 Authority Key Identifier: 
                keyid:EB:DC:8D:38:75:10:2F:E6:82:8E:FE:43:EC:9F:7E:63:22:BD:51:55

            X509v3 Subject Alternative Name: critical
                DNS:server-revoked.w1.fi
            X509v3 Extended Key Usage: critical
                TLS Web Server Authentication
            X509v3 Key Usage: 
                Digital Signature, Key Encipherment
    Signature Algorithm: sha256WithRSAEncryption
         22:c0:a0:7c:25:b4:4d:61:44:25:09:9c:14:8d:35:6e:36:7b:
         91:60:6b:35:90:48:a9:a2:ee:81:70:c4:d8:2a:9d:a3:7e:a2:
         c9:0c:dc:b2:73:98:01:cf:db:d4:3a:17:8a:b6:3d:b5:97:47:
         33:e9:b6:14:ed:a6:8e:a4:6d:34:d0:03:3a:01:04:ce:28:24:
         f9:c3:15:a9:b1:8c:2a:dc:8d:40:98:ac:78:8f:f5:fc:53:88:
         0e:84:28:39:86:75:59:ad:12:54:77:f2:9c:e1:d2:4e:e1:ee:
         8d:57:f3:41:ab:15:4d:ab:77:75:47:9a:c6:36:28:08:b5:8d:
         c7:9f:5a:87:87:f8:a7:17:9a:44:4e:ce:84:24:12:da:7f:a8:
         ab:15:fd:24:9b:cf:1c:ae:2f:8f:13:28:27:09:1e:57:2b:ca:
         1f:c8:bc:a4:95:08:27:4e:c4:21:68:a5:45:9f:5a:42:1c:7f:
         37:59:d7:ed:30:be:ed:26:12:5d:80:f5:7d:7d:94:ff:52:56:
         fc:67:0f:3f:00:21:e7:b4:2f:48:7b:77:86:fb:16:28:ab:68:
         e1:4d:80:eb:5e:4b:99:88:2f:ec:a3:1d:06:c5:04:2e:bb:56:
         fb:6b:75:9d:5b:78:83:63:2b:70:7c:21:94:a1:58:a4:8e:8b:
         30:d3:28:88
-----BEGIN CERTIFICATE-----
MIIDozCCAougAwIBAgIUXJ3kptF6SciDdedXaPdyFrKut4MwDQYJKoZIhvcNAQEL
BQAwPjELMAkGA1UEBhMCRkkxDjAMBgNVBAoMBXcxLmZpMR8wHQYDVQQDDBZTZXJ2
ZXIgSW50ZXJtZWRpYXRlIENBMB4XDTIwMDUwMzE1MjAxMFoXDTMwMDUwMTE1MjAx
MFowPDELMAkGA1UEBhMCRkkxDjAMBgNVBAoMBXcxLmZpMR0wGwYDVQQDDBRzZXJ2
ZXItcmV2b2tlZC53MS5maTCCASIwDQYJKoZIhvcNAQEBBQADggEPADCCAQoCggEB
ALqG22KtVbw7QfHB7z1hE21litG+WEGm4F3yxfOnwcJsnrBf8BYs5Lp9JrdpQ3Kx
1yjSBj1unGcyOD88Y5SNY+l/s3tnC9bJAuzafuFbIeSh6gHsuL1vXtKS5TPapROm
jgS1GXoHmugD7r1KLGVs7DpIOH4NMDDuGtkavgLQ4fKVFyEIPElNjxHHtIzmk0tK
+t2sCnLYgorhbJkedxuIErNyz9z6V9Jj4S3AWlc21P83ICABtBEZLPmb9vqT/8pp
8oTrb69EuBjj2EIplyEB4Ueh/O1YdLCr+XVc6EmqFkoZMejFjGCZSJ/ZeJLsMQsg
ZNlXHG5qpt34VS/MK3YRtZsCAwEAAaOBmjCBlzAMBgNVHRMBAf8EAjAAMB0GA1Ud
DgQWBBT7ZzSkDua7v5ANfLJp6ATVcY92RDAfBgNVHSMEGDAWgBTr3I04dRAv5oKO
/kPsn35jIr1RVTAiBgNVHREBAf8EGDAWghRzZXJ2ZXItcmV2b2tlZC53MS5maTAW
BgNVHSUBAf8EDDAKBggrBgEFBQcDATALBgNVHQ8EBAMCBaAwDQYJKoZIhvcNAQEL
BQADggEBACLAoHwltE1hRCUJnBSNNW42e5FgazWQSKmi7oFwxNgqnaN+oskM3LJz
mAHP29Q6F4q2PbWXRzPpthTtpo6kbTTQAzoBBM4oJPnDFamxjCrcjUCYrHiP9fxT
iA6EKDmGdVmtElR38pzh0k7h7o1X80GrFU2rd3VHmsY2KAi1jcefWoeH+KcXmkRO
zoQkEtp/qKsV/SSbzxyuL48TKCcJHlcryh/IvKSVCCdOxCFopUWfWkIcfzdZ1+0w
vu0mEl2A9X19lP9SVvxnDz8AIee0L0h7d4b7FiiraOFNgOteS5mIL+yjHQbFBC67
VvtrdZ1beINjK3B8IZShWKSOizDTKIg=
-----END CERTIFICATE-----
