Certificate:
    Data:
        Version: 3 (0x2)
        Serial Number:
            d8:d3:e3:a6:cb:e3:cc:f8
        Signature Algorithm: sha256WithRSAEncryption
        Issuer: C=FI, L=Tuusula, O=w1.fi, CN=Root CA
        Validity
            Not Before: May  3 15:20:10 2020 GMT
            Not After : May  3 15:20:10 2030 GMT
        Subject: C=FI, O=w1.fi, CN=User Intermediate CA
        Subject Public Key Info:
            Public Key Algorithm: rsaEncryption
                RSA Public-Key: (2048 bit)
                Modulus:
                    00:b9:88:7a:fc:1a:f9:00:68:63:c7:40:ff:d5:38:
                    8e:88:8c:c9:8f:66:ec:74:0a:a6:f1:18:30:30:36:
                    9a:2a:98:c5:a0:46:02:e2:3c:64:86:79:43:45:19:
                    83:7a:82:3d:f9:c6:af:01:11:91:2c:4f:07:f8:d7:
                    ef:da:80:6c:07:88:6a:1e:e6:0e:78:ca:08:50:4f:
                    f0:8a:2e:54:41:9f:04:63:8b:70:99:ae:6f:95:ed:
                    5c:c8:34:8e:6b:36:64:bc:44:c9:fb:cb:50:ef:b1:
                    5b:9b:2c:db:2a:a7:f9:e0:e2:48:57:78:cf:ba:0f:
                    1a:af:5a:63:64:18:39:9c:d4:af:8d:f9:27:d9:10:
                    b4:67:17:a1:24:98:f1:ef:ce:ad:12:6f:e4:47:36:
                    b6:d2:b6:1c:04:03:76:43:63:fb:b6:3e:3f:1a:c8:
                    c4:8b:69:28:7c:75:dc:bb:36:7f:ad:6a:a2:c1:32:
                    f3:5e:64:86:57:f1:ee:20:af:64:bd:e0:7c:ba:68:
                    9b:75:ed:b3:1c:0f:12:e0:52:12:ff:18:0e:8f:1d:
                    bf:c8:88:56:35:4d:9e:1f:74:1e:19:d7:0c:b4:e7:
                    46:ee:cf:c6:63:35:ba:16:7f:05:84:8b:bf:16:72:
                    05:ee:22:6e:3a:54:80:2b:0e:36:96:8d:65:5f:64:
                    12:cd
                Exponent: 65537 (0x10001)
        X509v3 extensions:
            X509v3 Subject Key Identifier: 
                F0:F7:82:29:71:CD:AF:72:CE:F6:3C:0B:40:16:C2:FD:9F:8A:51:A7
            X509v3 Authority Key Identifier: 
                keyid:A4:FD:B9:39:1B:81:B3:AA:EB:88:1D:D4:81:A9:B5:11:70:CC:A7:E1

            X509v3 Basic Constraints: critical
                CA:TRUE, pathlen:0
            X509v3 Key Usage: critical
                Certificate Sign, CRL Sign
    Signature Algorithm: sha256WithRSAEncryption
         70:45:66:14:00:22:85:1c:f8:b9:b3:2c:e8:64:4d:01:53:b8:
         cb:23:ad:fa:01:7c:27:f7:aa:8d:d8:6c:6a:f8:72:21:63:bf:
         30:7e:05:8c:84:e3:d1:1e:d1:f3:1d:80:3d:e8:75:06:ae:1b:
         48:a9:cf:0e:c6:59:6b:f8:d1:25:5a:64:b7:46:2d:29:72:da:
         d6:3a:79:d3:92:41:d7:31:e4:4e:5e:1b:62:88:41:77:f6:62:
         a2:3e:c1:a2:ef:79:0c:8f:39:7c:df:a0:4b:d5:ac:58:aa:3e:
         fd:95:6b:f7:c0:42:29:2e:86:67:5e:d9:3e:7b:e7:a6:bd:3b:
         7e:3b:19:54:9b:89:40:0e:39:23:8a:af:f2:db:12:5b:09:b4:
         45:df:c8:3e:8f:fc:fc:55:3e:35:8d:7b:82:50:d5:a3:ea:bb:
         c4:40:6d:61:ad:92:b2:66:91:0f:5b:3d:49:5e:b5:3e:98:15:
         9e:2a:23:06:35:e0:13:bc:50:84:06:e4:1b:b9:fc:32:a2:4a:
         0d:e5:86:ac:69:47:c3:17:11:07:ac:5a:09:69:ed:99:d0:52:
         fd:6d:ab:0d:44:35:bb:c0:76:27:50:75:df:06:78:f6:92:54:
         fc:54:76:b5:6f:a0:f6:51:20:1f:7f:8e:aa:5f:c8:48:88:e4:
         1a:83:f6:b7
-----BEGIN CERTIFICATE-----
MIIDZjCCAk6gAwIBAgIJANjT46bL48z4MA0GCSqGSIb3DQEBCwUAMEExCzAJBgNV
BAYTAkZJMRAwDgYDVQQHDAdUdXVzdWxhMQ4wDAYDVQQKDAV3MS5maTEQMA4GA1UE
AwwHUm9vdCBDQTAeFw0yMDA1MDMxNTIwMTBaFw0zMDA1MDMxNTIwMTBaMDwxCzAJ
BgNVBAYTAkZJMQ4wDAYDVQQKDAV3MS5maTEdMBsGA1UEAwwUVXNlciBJbnRlcm1l
ZGlhdGUgQ0EwggEiMA0GCSqGSIb3DQEBAQUAA4IBDwAwggEKAoIBAQC5iHr8GvkA
aGPHQP/VOI6IjMmPZux0CqbxGDAwNpoqmMWgRgLiPGSGeUNFGYN6gj35xq8BEZEs
Twf41+/agGwHiGoe5g54yghQT/CKLlRBnwRji3CZrm+V7VzINI5rNmS8RMn7y1Dv
sVubLNsqp/ng4khXeM+6DxqvWmNkGDmc1K+N+SfZELRnF6EkmPHvzq0Sb+RHNrbS
thwEA3ZDY/u2Pj8ayMSLaSh8ddy7Nn+taqLBMvNeZIZX8e4gr2S94Hy6aJt17bMc
DxLgUhL/GA6PHb/IiFY1TZ4fdB4Z1wy050buz8ZjNboWfwWEi78WcgXuIm46VIAr
DjaWjWVfZBLNAgMBAAGjZjBkMB0GA1UdDgQWBBTw94Ipcc2vcs72PAtAFsL9n4pR
pzAfBgNVHSMEGDAWgBSk/bk5G4GzquuIHdSBqbURcMyn4TASBgNVHRMBAf8ECDAG
AQH/AgEAMA4GA1UdDwEB/wQEAwIBBjANBgkqhkiG9w0BAQsFAAOCAQEAcEVmFAAi
hRz4ubMs6GRNAVO4yyOt+gF8J/eqjdhsavhyIWO/MH4FjITj0R7R8x2APeh1Bq4b
SKnPDsZZa/jRJVpkt0YtKXLa1jp505JB1zHkTl4bYohBd/Zioj7Bou95DI85fN+g
S9WsWKo+/ZVr98BCKS6GZ17ZPnvnpr07fjsZVJuJQA45I4qv8tsSWwm0Rd/IPo/8
/FU+NY17glDVo+q7xEBtYa2SsmaRD1s9SV61PpgVniojBjXgE7xQhAbkG7n8MqJK
DeWGrGlHwxcRB6xaCWntmdBS/W2rDUQ1u8B2J1B13wZ49pJU/FR2tW+g9lEgH3+O
ql/ISIjkGoP2tw==
-----END CERTIFICATE-----
Certificate:
    Data:
        Version: 3 (0x2)
        Serial Number:
            42:97:6c:30:8e:79:fc:7b:6a:e3:ef:9d:18:a4:74:9d:8b:5f:57:53
        Signature Algorithm: sha256WithRSAEncryption
        Issuer: C = FI, L = Tuusula, O = w1.fi, CN = Root CA
        Validity
            Not Before: May  2 19:49:48 2020 GMT
            Not After : Apr 30 19:49:48 2030 GMT
        Subject: C = FI, L = Tuusula, O = w1.fi, CN = Root CA
        Subject Public Key Info:
            Public Key Algorithm: rsaEncryption
                RSA Public-Key: (2048 bit)
                Modulus:
                    00:bc:f4:ee:44:62:7f:62:4f:a1:81:46:ba:c4:aa:
                    1e:fd:4e:d0:ed:f1:47:cb:25:5b:66:7a:86:39:91:
                    ca:b5:61:a7:7e:2f:3c:63:7d:39:b8:1a:9e:cb:6d:
                    32:32:91:de:49:49:84:da:15:be:2b:dd:c6:bc:1f:
                    dc:6e:c0:2d:77:f2:d0:7b:2c:40:19:07:60:55:b0:
                    ff:7c:51:ef:38:d1:f0:2a:da:a8:cc:ea:d6:54:a4:
                    ef:be:17:44:1a:9e:33:70:57:a4:f3:06:ac:3d:ee:
                    4b:2d:e5:46:25:2d:33:09:f6:49:a8:02:31:a4:65:
                    9b:32:0a:67:f5:02:e1:3b:47:a6:ae:e4:f6:85:eb:
                    5d:3e:02:66:dd:11:98:ac:34:72:c2:8f:25:55:4a:
                    6a:ea:e8:82:2f:bd:7f:78:31:a4:5a:d7:32:bb:64:
                    48:46:23:ef:c8:c9:e2:84:00:56:72:e8:4b:54:95:
                    62:3a:5a:11:79:ee:40:43:9e:16:2c:cc:e6:45:f4:
                    bb:82:28:c2:83:35:2c:55:36:99:59:11:b1:15:d0:
                    03:c1:a5:37:e1:1f:bb:43:c7:b4:b9:33:de:14:d7:
                    7c:99:45:0f:c1:06:fe:b6:25:10:59:b7:72:76:7f:
                    91:4b:ea:d1:b9:6a:6a:ed:dd:1b:a9:0e:a7:29:48:
                    b7:4d
                Exponent: 65537 (0x10001)
        X509v3 extensions:
            X509v3 Subject Key Identifier: 
                A4:FD:B9:39:1B:81:B3:AA:EB:88:1D:D4:81:A9:B5:11:70:CC:A7:E1
            X509v3 Authority Key Identifier: 
                keyid:A4:FD:B9:39:1B:81:B3:AA:EB:88:1D:D4:81:A9:B5:11:70:CC:A7:E1

            X509v3 Basic Constraints: 
                CA:TRUE
    Signature Algorithm: sha256WithRSAEncryption
         41:f9:c3:a3:77:11:92:55:e7:4b:4a:32:6a:31:d9:51:cf:06:
         a5:39:ea:30:98:b8:8d:4f:24:c5:34:fd:c6:98:10:59:32:7e:
         57:f5:8f:ba:67:c9:fc:44:68:b3:7c:f1:af:3a:5f:0d:8f:a1:
         fe:41:21:0e:e9:08:a3:63:49:66:34:4a:cd:ce:66:74:47:30:
         f7:dc:82:99:21:56:82:ff:2d:12:90:7d:7a:64:22:a0:ed:fa:
         62:d9:5a:d3:97:96:0c:04:a7:47:88:da:53:b6:33:15:15:f9:
         da:ee:ac:25:e9:07:02:89:bc:73:a2:c6:27:6f:1f:bd:73:b8:
         8e:f7:94:54:57:a7:8b:5b:9a:24:aa:86:d4:04:5c:8c:cb:28:
         a2:45:f9:34:f0:01:20:bb:06:e8:41:14:d2:d7:ca:e8:bf:4e:
         16:72:22:a0:0c:86:ca:73:23:09:ae:71:f1:52:0c:db:b2:8a:
         4d:94:a5:fa:15:81:5b:a2:95:62:50:a1:d6:64:fe:4c:0c:60:
         8d:9b:0f:b8:41:ac:cb:31:c2:17:6c:7b:61:13:16:9a:db:64:
         fc:5f:47:84:3d:d2:2e:db:0b:9e:b6:1e:85:04:c1:e5:c0:b2:
         6d:8f:f2:99:00:3a:1a:ab:02:cf:45:7a:26:c1:b0:1f:c6:b0:
         d0:4d:f7:52
-----BEGIN CERTIFICATE-----
MIIDYDCCAkigAwIBAgIUQpdsMI55/Htq4++dGKR0nYtfV1MwDQYJKoZIhvcNAQEL
BQAwQTELMAkGA1UEBhMCRkkxEDAOBgNVBAcMB1R1dXN1bGExDjAMBgNVBAoMBXcx
LmZpMRAwDgYDVQQDDAdSb290IENBMB4XDTIwMDUwMjE5NDk0OFoXDTMwMDQzMDE5
NDk0OFowQTELMAkGA1UEBhMCRkkxEDAOBgNVBAcMB1R1dXN1bGExDjAMBgNVBAoM
BXcxLmZpMRAwDgYDVQQDDAdSb290IENBMIIBIjANBgkqhkiG9w0BAQEFAAOCAQ8A
MIIBCgKCAQEAvPTuRGJ/Yk+hgUa6xKoe/U7Q7fFHyyVbZnqGOZHKtWGnfi88Y305
uBqey20yMpHeSUmE2hW+K93GvB/cbsAtd/LQeyxAGQdgVbD/fFHvONHwKtqozOrW
VKTvvhdEGp4zcFek8wasPe5LLeVGJS0zCfZJqAIxpGWbMgpn9QLhO0emruT2hetd
PgJm3RGYrDRywo8lVUpq6uiCL71/eDGkWtcyu2RIRiPvyMnihABWcuhLVJViOloR
ee5AQ54WLMzmRfS7gijCgzUsVTaZWRGxFdADwaU34R+7Q8e0uTPeFNd8mUUPwQb+
tiUQWbdydn+RS+rRuWpq7d0bqQ6nKUi3TQIDAQABo1AwTjAdBgNVHQ4EFgQUpP25
ORuBs6rriB3Ugam1EXDMp+EwHwYDVR0jBBgwFoAUpP25ORuBs6rriB3Ugam1EXDM
p+EwDAYDVR0TBAUwAwEB/zANBgkqhkiG9w0BAQsFAAOCAQEAQfnDo3cRklXnS0oy
ajHZUc8GpTnqMJi4jU8kxTT9xpgQWTJ+V/WPumfJ/ERos3zxrzpfDY+h/kEhDukI
o2NJZjRKzc5mdEcw99yCmSFWgv8tEpB9emQioO36Ytla05eWDASnR4jaU7YzFRX5
2u6sJekHAom8c6LGJ28fvXO4jveUVFeni1uaJKqG1ARcjMsookX5NPABILsG6EEU
0tfK6L9OFnIioAyGynMjCa5x8VIM27KKTZSl+hWBW6KVYlCh1mT+TAxgjZsPuEGs
yzHCF2x7YRMWmttk/F9HhD3SLtsLnrYehQTB5cCybY/ymQA6GqsCz0V6JsGwH8aw
0E33Ug==
-----END CERTIFICATE-----
