Certificate:
    Data:
        Version: 3 (0x2)
        Serial Number:
            59:23:f4:76:10:ca:89:42:f5:5c:07:5c:62:d2:67:8b:e4:22:92:a9
        Signature Algorithm: sha256WithRSAEncryption
        Issuer: C=FI, O=w1.fi, CN=User Intermediate CA
        Validity
            Not Before: May  3 15:20:11 2020 GMT
            Not After : May  1 15:20:11 2030 GMT
        Subject: C=FI, O=w1.fi, CN=user.w1.fi
        Subject Public Key Info:
            Public Key Algorithm: rsaEncryption
                RSA Public-Key: (2048 bit)
                Modulus:
                    00:d4:5f:23:ec:01:c6:3e:d2:59:ee:df:cd:72:8d:
                    41:ce:40:af:86:be:c2:99:69:3b:91:a3:7c:2d:e4:
                    f5:a1:72:3c:0e:b9:a6:a5:a1:f5:a5:bf:5f:53:98:
                    33:c2:c0:18:24:47:4c:84:4b:9e:d1:f2:49:05:85:
                    2d:87:56:ae:43:bc:a1:89:d7:4a:a9:66:13:c7:ae:
                    35:4a:cc:2f:73:b6:50:7e:63:ba:b0:a6:bc:95:f1:
                    f1:9a:c3:a9:b2:98:3e:ff:27:97:64:b3:54:09:07:
                    fc:6e:c4:cf:7f:91:e0:97:c2:63:10:a1:da:e6:a9:
                    7d:40:b9:03:be:b7:1c:46:90:10:5f:9a:0a:e5:8c:
                    09:56:d3:be:a5:c1:42:5d:f4:4c:e5:be:fd:d9:66:
                    43:f9:e9:38:36:1a:66:d3:3b:7c:11:46:79:16:79:
                    b8:cf:81:14:0a:4c:b7:be:7b:f2:83:f4:87:2a:1e:
                    b1:ff:78:1c:15:53:21:7f:76:d1:55:0f:08:be:11:
                    0f:19:eb:46:61:ad:a9:36:bc:bb:81:bf:37:6d:0c:
                    5f:d1:67:71:a9:da:27:6e:2f:90:e8:3b:d0:6b:97:
                    c3:1b:e7:cd:81:40:0d:d6:2e:fe:24:40:67:84:ed:
                    ea:b7:f3:26:c5:23:35:f9:7c:b5:5c:f9:df:1f:9f:
                    a0:85
                Exponent: 65537 (0x10001)
        X509v3 extensions:
            X509v3 Basic Constraints: 
                CA:FALSE
            X509v3 Subject Key Identifier: 
                4F:DA:AA:81:CB:4A:79:E4:8B:4A:92:FC:38:41:92:BA:D9:F9:4C:32
            X509v3 Authority Key Identifier: 
                keyid:F0:F7:82:29:71:CD:AF:72:CE:F6:3C:0B:40:16:C2:FD:9F:8A:51:A7

            X509v3 Subject Alternative Name: critical
                DNS:user.w1.fi
            X509v3 Extended Key Usage: 
                TLS Web Client Authentication
            X509v3 Key Usage: 
                Digital Signature, Key Encipherment
    Signature Algorithm: sha256WithRSAEncryption
         86:b3:8b:79:3b:32:a2:34:bb:9b:12:9d:ad:d2:c7:c6:58:cd:
         24:14:70:7b:4f:7c:52:9a:36:c1:72:aa:bb:a7:a8:a0:ae:82:
         ff:ea:9e:14:29:5f:04:82:8f:0a:46:ee:6b:b8:c8:f9:4f:8d:
         1a:af:e6:d2:b0:87:4c:f4:a0:f9:c3:1c:cf:16:2e:28:c7:95:
         5c:86:a8:15:52:e8:9b:4d:40:6c:b0:82:f9:e5:8e:10:1f:f8:
         d9:7a:4a:a6:e6:fb:00:ab:13:09:ee:4a:2b:6f:aa:a0:5d:90:
         e9:89:40:68:fd:1e:99:f1:cf:5d:fb:d4:76:16:6b:76:52:66:
         17:77:68:e3:d1:7a:35:17:e3:81:9a:46:bd:c9:44:37:10:c4:
         a4:13:dd:f6:c9:b8:08:f4:e1:92:18:7f:8c:c5:c9:14:4b:34:
         5b:d4:db:46:a3:6b:61:1c:5b:52:b4:24:73:98:ce:b2:5a:f3:
         51:72:68:bc:d0:8f:36:5d:16:58:b9:91:2e:e2:6f:09:33:40:
         13:f7:ba:8f:b7:36:02:36:1c:0e:c4:db:a2:dc:17:31:dd:6b:
         4c:e3:5e:04:ab:d5:30:fd:f6:ba:1a:00:04:ea:4b:88:34:d8:
         5e:f2:0a:44:61:05:1c:7b:42:86:7e:42:e8:42:f1:19:a2:48:
         28:44:97:3e
-----BEGIN CERTIFICATE-----
MIIDhzCCAm+gAwIBAgIUWSP0dhDKiUL1XAdcYtJni+QikqkwDQYJKoZIhvcNAQEL
BQAwPDELMAkGA1UEBhMCRkkxDjAMBgNVBAoMBXcxLmZpMR0wGwYDVQQDDBRVc2Vy
IEludGVybWVkaWF0ZSBDQTAeFw0yMDA1MDMxNTIwMTFaFw0zMDA1MDExNTIwMTFa
MDIxCzAJBgNVBAYTAkZJMQ4wDAYDVQQKDAV3MS5maTETMBEGA1UEAwwKdXNlci53
MS5maTCCASIwDQYJKoZIhvcNAQEBBQADggEPADCCAQoCggEBANRfI+wBxj7SWe7f
zXKNQc5Ar4a+wplpO5GjfC3k9aFyPA65pqWh9aW/X1OYM8LAGCRHTIRLntHySQWF
LYdWrkO8oYnXSqlmE8euNUrML3O2UH5jurCmvJXx8ZrDqbKYPv8nl2SzVAkH/G7E
z3+R4JfCYxCh2uapfUC5A763HEaQEF+aCuWMCVbTvqXBQl30TOW+/dlmQ/npODYa
ZtM7fBFGeRZ5uM+BFApMt7578oP0hyoesf94HBVTIX920VUPCL4RDxnrRmGtqTa8
u4G/N20MX9FncanaJ24vkOg70GuXwxvnzYFADdYu/iRAZ4Tt6rfzJsUjNfl8tVz5
3x+foIUCAwEAAaOBijCBhzAJBgNVHRMEAjAAMB0GA1UdDgQWBBRP2qqBy0p55ItK
kvw4QZK62flMMjAfBgNVHSMEGDAWgBTw94Ipcc2vcs72PAtAFsL9n4pRpzAYBgNV
HREBAf8EDjAMggp1c2VyLncxLmZpMBMGA1UdJQQMMAoGCCsGAQUFBwMCMAsGA1Ud
DwQEAwIFoDANBgkqhkiG9w0BAQsFAAOCAQEAhrOLeTsyojS7mxKdrdLHxljNJBRw
e098Upo2wXKqu6eooK6C/+qeFClfBIKPCkbua7jI+U+NGq/m0rCHTPSg+cMczxYu
KMeVXIaoFVLom01AbLCC+eWOEB/42XpKpub7AKsTCe5KK2+qoF2Q6YlAaP0emfHP
XfvUdhZrdlJmF3do49F6NRfjgZpGvclENxDEpBPd9sm4CPThkhh/jMXJFEs0W9Tb
RqNrYRxbUrQkc5jOslrzUXJovNCPNl0WWLmRLuJvCTNAE/e6j7c2AjYcDsTbotwX
Md1rTONeBKvVMP32uhoABOpLiDTYXvIKRGEFHHtChn5C6ELxGaJIKESXPg==
-----END CERTIFICATE-----
