Certificate:
    Data:
        Version: 3 (0x2)
        Serial Number:
            d8:d3:e3:a6:cb:e3:cc:f7
        Signature Algorithm: sha256WithRSAEncryption
        Issuer: C=FI, L=Tuusula, O=w1.fi, CN=Root CA
        Validity
            Not Before: May  3 15:20:10 2020 GMT
            Not After : May  3 15:20:10 2030 GMT
        Subject: C=FI, O=w1.fi, CN=Server Intermediate CA
        Subject Public Key Info:
            Public Key Algorithm: rsaEncryption
                RSA Public-Key: (2048 bit)
                Modulus:
                    00:a2:b0:de:7f:e6:17:69:4b:bb:8d:dc:4f:8b:95:
                    33:5e:13:ee:a1:01:f5:82:de:6e:fc:83:db:e7:22:
                    5f:b9:8d:2b:de:10:72:4e:da:81:c1:f7:f3:eb:0e:
                    db:5b:5f:90:92:bb:41:68:55:4f:84:d9:73:5b:0c:
                    6d:40:e6:c5:0f:5d:5c:5e:80:1e:64:87:5a:99:44:
                    8b:3d:61:20:f0:15:cc:87:95:5b:a0:46:0f:bc:5c:
                    14:ee:ac:4f:c8:7c:d2:c0:ef:60:94:22:b6:74:05:
                    4f:ca:97:01:0a:30:b4:50:44:89:d0:c2:6b:e5:7f:
                    ce:66:22:1a:d6:38:7c:ff:42:42:ca:58:a0:38:85:
                    ca:f1:b1:1f:33:27:db:bf:5c:49:96:36:7a:11:2f:
                    62:d7:eb:7e:9f:9b:9c:0e:2b:df:cd:59:bc:ee:e8:
                    6a:e3:7d:fa:06:ba:34:42:b5:7d:e7:be:e1:7b:85:
                    af:1b:25:a9:45:33:06:cb:cc:0d:ca:78:5c:56:52:
                    ac:43:7e:f6:0c:e7:fb:86:b4:ac:d7:f4:b2:54:ee:
                    65:7a:5c:32:6b:33:a0:68:1b:d8:ea:c8:74:94:08:
                    00:7f:9b:f0:da:80:0f:f2:45:13:11:63:4c:e6:d2:
                    97:d3:ae:12:b0:7c:e8:f0:56:c0:7b:7c:82:99:6d:
                    3b:5d
                Exponent: 65537 (0x10001)
        X509v3 extensions:
            X509v3 Subject Key Identifier: 
                EB:DC:8D:38:75:10:2F:E6:82:8E:FE:43:EC:9F:7E:63:22:BD:51:55
            X509v3 Authority Key Identifier: 
                keyid:A4:FD:B9:39:1B:81:B3:AA:EB:88:1D:D4:81:A9:B5:11:70:CC:A7:E1

            X509v3 Basic Constraints: critical
                CA:TRUE, pathlen:0
            X509v3 Key Usage: critical
                Certificate Sign, CRL Sign
    Signature Algorithm: sha256WithRSAEncryption
         86:74:75:b2:bb:b0:85:25:48:38:e1:34:54:d5:d4:3a:9f:0e:
         b1:96:fd:cc:ea:15:21:72:da:9e:ef:e2:fa:ae:29:74:dc:83:
         36:87:88:7d:75:51:9a:c5:6e:a8:80:77:3f:5c:ed:9e:ac:57:
         17:ed:ab:64:4f:15:8b:47:90:0a:17:2a:7e:49:a9:01:a1:41:
         66:d4:fe:be:18:70:d6:23:f7:0b:0a:53:d7:75:a8:7f:0a:52:
         1c:1d:8c:63:6f:82:ed:ed:fd:e2:fe:86:ef:0a:4c:f8:d7:93:
         56:9a:a3:dd:74:02:8c:b3:31:83:c1:8a:66:c6:c0:1d:dc:00:
         5c:57:f4:31:31:8b:d4:84:d8:da:6d:d6:f6:e4:10:7e:bb:f2:
         41:95:dd:a6:0c:37:c7:22:80:e6:36:3e:34:c6:1c:73:ab:42:
         90:6e:f8:db:e8:b6:c0:b2:f5:17:d2:6f:d3:8c:fb:14:25:8e:
         72:81:45:76:86:f7:d1:d9:3d:ff:b1:a2:10:6f:c0:24:e7:70:
         3f:2d:cf:32:ee:06:70:d5:1b:04:84:6d:48:69:26:1e:98:5a:
         ed:e3:61:f5:29:45:88:25:cf:7f:c4:fb:f3:87:a7:11:95:9e:
         cf:a8:aa:88:db:12:32:66:66:c4:1d:12:b1:62:1d:fa:28:f4:
         97:ac:df:2e
-----BEGIN CERTIFICATE-----
MIIDaDCCAlCgAwIBAgIJANjT46bL48z3MA0GCSqGSIb3DQEBCwUAMEExCzAJBgNV
BAYTAkZJMRAwDgYDVQQHDAdUdXVzdWxhMQ4wDAYDVQQKDAV3MS5maTEQMA4GA1UE
AwwHUm9vdCBDQTAeFw0yMDA1MDMxNTIwMTBaFw0zMDA1MDMxNTIwMTBaMD4xCzAJ
BgNVBAYTAkZJMQ4wDAYDVQQKDAV3MS5maTEfMB0GA1UEAwwWU2VydmVyIEludGVy
bWVkaWF0ZSBDQTCCASIwDQYJKoZIhvcNAQEBBQADggEPADCCAQoCggEBAKKw3n/m
F2lLu43cT4uVM14T7qEB9YLebvyD2+ciX7mNK94Qck7agcH38+sO21tfkJK7QWhV
T4TZc1sMbUDmxQ9dXF6AHmSHWplEiz1hIPAVzIeVW6BGD7xcFO6sT8h80sDvYJQi
tnQFT8qXAQowtFBEidDCa+V/zmYiGtY4fP9CQspYoDiFyvGxHzMn279cSZY2ehEv
Ytfrfp+bnA4r381ZvO7oauN9+ga6NEK1fee+4XuFrxslqUUzBsvMDcp4XFZSrEN+
9gzn+4a0rNf0slTuZXpcMmszoGgb2OrIdJQIAH+b8NqAD/JFExFjTObSl9OuErB8
6PBWwHt8gpltO10CAwEAAaNmMGQwHQYDVR0OBBYEFOvcjTh1EC/mgo7+Q+yffmMi
vVFVMB8GA1UdIwQYMBaAFKT9uTkbgbOq64gd1IGptRFwzKfhMBIGA1UdEwEB/wQI
MAYBAf8CAQAwDgYDVR0PAQH/BAQDAgEGMA0GCSqGSIb3DQEBCwUAA4IBAQCGdHWy
u7CFJUg44TRU1dQ6nw6xlv3M6hUhctqe7+L6ril03IM2h4h9dVGaxW6ogHc/XO2e
rFcX7atkTxWLR5AKFyp+SakBoUFm1P6+GHDWI/cLClPXdah/ClIcHYxjb4Lt7f3i
/obvCkz415NWmqPddAKMszGDwYpmxsAd3ABcV/QxMYvUhNjabdb25BB+u/JBld2m
DDfHIoDmNj40xhxzq0KQbvjb6LbAsvUX0m/TjPsUJY5ygUV2hvfR2T3/saIQb8Ak
53A/Lc8y7gZw1RsEhG1IaSYemFrt42H1KUWIJc9/xPvzh6cRlZ7PqKqI2xIyZmbE
HRKxYh36KPSXrN8u
-----END CERTIFICATE-----
Certificate:
    Data:
        Version: 3 (0x2)
        Serial Number:
            42:97:6c:30:8e:79:fc:7b:6a:e3:ef:9d:18:a4:74:9d:8b:5f:57:53
        Signature Algorithm: sha256WithRSAEncryption
        Issuer: C = FI, L = Tuusula, O = w1.fi, CN = Root CA
        Validity
            Not Before: May  2 19:49:48 2020 GMT
            Not After : Apr 30 19:49:48 2030 GMT
        Subject: C = FI, L = Tuusula, O = w1.fi, CN = Root CA
        Subject Public Key Info:
            Public Key Algorithm: rsaEncryption
                RSA Public-Key: (2048 bit)
                Modulus:
                    00:bc:f4:ee:44:62:7f:62:4f:a1:81:46:ba:c4:aa:
                    1e:fd:4e:d0:ed:f1:47:cb:25:5b:66:7a:86:39:91:
                    ca:b5:61:a7:7e:2f:3c:63:7d:39:b8:1a:9e:cb:6d:
                    32:32:91:de:49:49:84:da:15:be:2b:dd:c6:bc:1f:
                    dc:6e:c0:2d:77:f2:d0:7b:2c:40:19:07:60:55:b0:
                    ff:7c:51:ef:38:d1:f0:2a:da:a8:cc:ea:d6:54:a4:
                    ef:be:17:44:1a:9e:33:70:57:a4:f3:06:ac:3d:ee:
                    4b:2d:e5:46:25:2d:33:09:f6:49:a8:02:31:a4:65:
                    9b:32:0a:67:f5:02:e1:3b:47:a6:ae:e4:f6:85:eb:
                    5d:3e:02:66:dd:11:98:ac:34:72:c2:8f:25:55:4a:
                    6a:ea:e8:82:2f:bd:7f:78:31:a4:5a:d7:32:bb:64:
                    48:46:23:ef:c8:c9:e2:84:00:56:72:e8:4b:54:95:
                    62:3a:5a:11:79:ee:40:43:9e:16:2c:cc:e6:45:f4:
                    bb:82:28:c2:83:35:2c:55:36:99:59:11:b1:15:d0:
                    03:c1:a5:37:e1:1f:bb:43:c7:b4:b9:33:de:14:d7:
                    7c:99:45:0f:c1:06:fe:b6:25:10:59:b7:72:76:7f:
                    91:4b:ea:d1:b9:6a:6a:ed:dd:1b:a9:0e:a7:29:48:
                    b7:4d
                Exponent: 65537 (0x10001)
        X509v3 extensions:
            X509v3 Subject Key Identifier: 
                A4:FD:B9:39:1B:81:B3:AA:EB:88:1D:D4:81:A9:B5:11:70:CC:A7:E1
            X509v3 Authority Key Identifier: 
                keyid:A4:FD:B9:39:1B:81:B3:AA:EB:88:1D:D4:81:A9:B5:11:70:CC:A7:E1

            X509v3 Basic Constraints: 
                CA:TRUE
    Signature Algorithm: sha256WithRSAEncryption
         41:f9:c3:a3:77:11:92:55:e7:4b:4a:32:6a:31:d9:51:cf:06:
         a5:39:ea:30:98:b8:8d:4f:24:c5:34:fd:c6:98:10:59:32:7e:
         57:f5:8f:ba:67:c9:fc:44:68:b3:7c:f1:af:3a:5f:0d:8f:a1:
         fe:41:21:0e:e9:08:a3:63:49:66:34:4a:cd:ce:66:74:47:30:
         f7:dc:82:99:21:56:82:ff:2d:12:90:7d:7a:64:22:a0:ed:fa:
         62:d9:5a:d3:97:96:0c:04:a7:47:88:da:53:b6:33:15:15:f9:
         da:ee:ac:25:e9:07:02:89:bc:73:a2:c6:27:6f:1f:bd:73:b8:
         8e:f7:94:54:57:a7:8b:5b:9a:24:aa:86:d4:04:5c:8c:cb:28:
         a2:45:f9:34:f0:01:20:bb:06:e8:41:14:d2:d7:ca:e8:bf:4e:
         16:72:22:a0:0c:86:ca:73:23:09:ae:71:f1:52:0c:db:b2:8a:
         4d:94:a5:fa:15:81:5b:a2:95:62:50:a1:d6:64:fe:4c:0c:60:
         8d:9b:0f:b8:41:ac:cb:31:c2:17:6c:7b:61:13:16:9a:db:64:
         fc:5f:47:84:3d:d2:2e:db:0b:9e:b6:1e:85:04:c1:e5:c0:b2:
         6d:8f:f2:99:00:3a:1a:ab:02:cf:45:7a:26:c1:b0:1f:c6:b0:
         d0:4d:f7:52
-----BEGIN CERTIFICATE-----
MIIDYDCCAkigAwIBAgIUQpdsMI55/Htq4++dGKR0nYtfV1MwDQYJKoZIhvcNAQEL
BQAwQTELMAkGA1UEBhMCRkkxEDAOBgNVBAcMB1R1dXN1bGExDjAMBgNVBAoMBXcx
LmZpMRAwDgYDVQQDDAdSb290IENBMB4XDTIwMDUwMjE5NDk0OFoXDTMwMDQzMDE5
NDk0OFowQTELMAkGA1UEBhMCRkkxEDAOBgNVBAcMB1R1dXN1bGExDjAMBgNVBAoM
BXcxLmZpMRAwDgYDVQQDDAdSb290IENBMIIBIjANBgkqhkiG9w0BAQEFAAOCAQ8A
MIIBCgKCAQEAvPTuRGJ/Yk+hgUa6xKoe/U7Q7fFHyyVbZnqGOZHKtWGnfi88Y305
uBqey20yMpHeSUmE2hW+K93GvB/cbsAtd/LQeyxAGQdgVbD/fFHvONHwKtqozOrW
VKTvvhdEGp4zcFek8wasPe5LLeVGJS0zCfZJqAIxpGWbMgpn9QLhO0emruT2hetd
PgJm3RGYrDRywo8lVUpq6uiCL71/eDGkWtcyu2RIRiPvyMnihABWcuhLVJViOloR
ee5AQ54WLMzmRfS7gijCgzUsVTaZWRGxFdADwaU34R+7Q8e0uTPeFNd8mUUPwQb+
tiUQWbdydn+RS+rRuWpq7d0bqQ6nKUi3TQIDAQABo1AwTjAdBgNVHQ4EFgQUpP25
ORuBs6rriB3Ugam1EXDMp+EwHwYDVR0jBBgwFoAUpP25ORuBs6rriB3Ugam1EXDM
p+EwDAYDVR0TBAUwAwEB/zANBgkqhkiG9w0BAQsFAAOCAQEAQfnDo3cRklXnS0oy
ajHZUc8GpTnqMJi4jU8kxTT9xpgQWTJ+V/WPumfJ/ERos3zxrzpfDY+h/kEhDukI
o2NJZjRKzc5mdEcw99yCmSFWgv8tEpB9emQioO36Ytla05eWDASnR4jaU7YzFRX5
2u6sJekHAom8c6LGJ28fvXO4jveUVFeni1uaJKqG1ARcjMsookX5NPABILsG6EEU
0tfK6L9OFnIioAyGynMjCa5x8VIM27KKTZSl+hWBW6KVYlCh1mT+TAxgjZsPuEGs
yzHCF2x7YRMWmttk/F9HhD3SLtsLnrYehQTB5cCybY/ymQA6GqsCz0V6JsGwH8aw
0E33Ug==
-----END CERTIFICATE-----
