Certificate:
    Data:
        Version: 3 (0x2)
        Serial Number:
            d8:d3:e3:a6:cb:e3:cc:f8
        Signature Algorithm: sha256WithRSAEncryption
        Issuer: C=FI, L=Tuusula, O=w1.fi, CN=Root CA
        Validity
            Not Before: May  3 15:20:10 2020 GMT
            Not After : May  3 15:20:10 2030 GMT
        Subject: C=FI, O=w1.fi, CN=User Intermediate CA
        Subject Public Key Info:
            Public Key Algorithm: rsaEncryption
                RSA Public-Key: (2048 bit)
                Modulus:
                    00:b9:88:7a:fc:1a:f9:00:68:63:c7:40:ff:d5:38:
                    8e:88:8c:c9:8f:66:ec:74:0a:a6:f1:18:30:30:36:
                    9a:2a:98:c5:a0:46:02:e2:3c:64:86:79:43:45:19:
                    83:7a:82:3d:f9:c6:af:01:11:91:2c:4f:07:f8:d7:
                    ef:da:80:6c:07:88:6a:1e:e6:0e:78:ca:08:50:4f:
                    f0:8a:2e:54:41:9f:04:63:8b:70:99:ae:6f:95:ed:
                    5c:c8:34:8e:6b:36:64:bc:44:c9:fb:cb:50:ef:b1:
                    5b:9b:2c:db:2a:a7:f9:e0:e2:48:57:78:cf:ba:0f:
                    1a:af:5a:63:64:18:39:9c:d4:af:8d:f9:27:d9:10:
                    b4:67:17:a1:24:98:f1:ef:ce:ad:12:6f:e4:47:36:
                    b6:d2:b6:1c:04:03:76:43:63:fb:b6:3e:3f:1a:c8:
                    c4:8b:69:28:7c:75:dc:bb:36:7f:ad:6a:a2:c1:32:
                    f3:5e:64:86:57:f1:ee:20:af:64:bd:e0:7c:ba:68:
                    9b:75:ed:b3:1c:0f:12:e0:52:12:ff:18:0e:8f:1d:
                    bf:c8:88:56:35:4d:9e:1f:74:1e:19:d7:0c:b4:e7:
                    46:ee:cf:c6:63:35:ba:16:7f:05:84:8b:bf:16:72:
                    05:ee:22:6e:3a:54:80:2b:0e:36:96:8d:65:5f:64:
                    12:cd
                Exponent: 65537 (0x10001)
        X509v3 extensions:
            X509v3 Subject Key Identifier: 
                F0:F7:82:29:71:CD:AF:72:CE:F6:3C:0B:40:16:C2:FD:9F:8A:51:A7
            X509v3 Authority Key Identifier: 
                keyid:A4:FD:B9:39:1B:81:B3:AA:EB:88:1D:D4:81:A9:B5:11:70:CC:A7:E1

            X509v3 Basic Constraints: critical
                CA:TRUE, pathlen:0
            X509v3 Key Usage: critical
                Certificate Sign, CRL Sign
    Signature Algorithm: sha256WithRSAEncryption
         70:45:66:14:00:22:85:1c:f8:b9:b3:2c:e8:64:4d:01:53:b8:
         cb:23:ad:fa:01:7c:27:f7:aa:8d:d8:6c:6a:f8:72:21:63:bf:
         30:7e:05:8c:84:e3:d1:1e:d1:f3:1d:80:3d:e8:75:06:ae:1b:
         48:a9:cf:0e:c6:59:6b:f8:d1:25:5a:64:b7:46:2d:29:72:da:
         d6:3a:79:d3:92:41:d7:31:e4:4e:5e:1b:62:88:41:77:f6:62:
         a2:3e:c1:a2:ef:79:0c:8f:39:7c:df:a0:4b:d5:ac:58:aa:3e:
         fd:95:6b:f7:c0:42:29:2e:86:67:5e:d9:3e:7b:e7:a6:bd:3b:
         7e:3b:19:54:9b:89:40:0e:39:23:8a:af:f2:db:12:5b:09:b4:
         45:df:c8:3e:8f:fc:fc:55:3e:35:8d:7b:82:50:d5:a3:ea:bb:
         c4:40:6d:61:ad:92:b2:66:91:0f:5b:3d:49:5e:b5:3e:98:15:
         9e:2a:23:06:35:e0:13:bc:50:84:06:e4:1b:b9:fc:32:a2:4a:
         0d:e5:86:ac:69:47:c3:17:11:07:ac:5a:09:69:ed:99:d0:52:
         fd:6d:ab:0d:44:35:bb:c0:76:27:50:75:df:06:78:f6:92:54:
         fc:54:76:b5:6f:a0:f6:51:20:1f:7f:8e:aa:5f:c8:48:88:e4:
         1a:83:f6:b7
-----BEGIN CERTIFICATE-----
MIIDZjCCAk6gAwIBAgIJANjT46bL48z4MA0GCSqGSIb3DQEBCwUAMEExCzAJBgNV
BAYTAkZJMRAwDgYDVQQHDAdUdXVzdWxhMQ4wDAYDVQQKDAV3MS5maTEQMA4GA1UE
AwwHUm9vdCBDQTAeFw0yMDA1MDMxNTIwMTBaFw0zMDA1MDMxNTIwMTBaMDwxCzAJ
BgNVBAYTAkZJMQ4wDAYDVQQKDAV3MS5maTEdMBsGA1UEAwwUVXNlciBJbnRlcm1l
ZGlhdGUgQ0EwggEiMA0GCSqGSIb3DQEBAQUAA4IBDwAwggEKAoIBAQC5iHr8GvkA
aGPHQP/VOI6IjMmPZux0CqbxGDAwNpoqmMWgRgLiPGSGeUNFGYN6gj35xq8BEZEs
Twf41+/agGwHiGoe5g54yghQT/CKLlRBnwRji3CZrm+V7VzINI5rNmS8RMn7y1Dv
sVubLNsqp/ng4khXeM+6DxqvWmNkGDmc1K+N+SfZELRnF6EkmPHvzq0Sb+RHNrbS
thwEA3ZDY/u2Pj8ayMSLaSh8ddy7Nn+taqLBMvNeZIZX8e4gr2S94Hy6aJt17bMc
DxLgUhL/GA6PHb/IiFY1TZ4fdB4Z1wy050buz8ZjNboWfwWEi78WcgXuIm46VIAr
DjaWjWVfZBLNAgMBAAGjZjBkMB0GA1UdDgQWBBTw94Ipcc2vcs72PAtAFsL9n4pR
pzAfBgNVHSMEGDAWgBSk/bk5G4GzquuIHdSBqbURcMyn4TASBgNVHRMBAf8ECDAG
AQH/AgEAMA4GA1UdDwEB/wQEAwIBBjANBgkqhkiG9w0BAQsFAAOCAQEAcEVmFAAi
hRz4ubMs6GRNAVO4yyOt+gF8J/eqjdhsavhyIWO/MH4FjITj0R7R8x2APeh1Bq4b
SKnPDsZZa/jRJVpkt0YtKXLa1jp505JB1zHkTl4bYohBd/Zioj7Bou95DI85fN+g
S9WsWKo+/ZVr98BCKS6GZ17ZPnvnpr07fjsZVJuJQA45I4qv8tsSWwm0Rd/IPo/8
/FU+NY17glDVo+q7xEBtYa2SsmaRD1s9SV61PpgVniojBjXgE7xQhAbkG7n8MqJK
DeWGrGlHwxcRB6xaCWntmdBS/W2rDUQ1u8B2J1B13wZ49pJU/FR2tW+g9lEgH3+O
ql/ISIjkGoP2tw==
-----END CERTIFICATE-----
