Certificate:
    Data:
        Version: 3 (0x2)
        Serial Number:
            59:23:f4:76:10:ca:89:42:f5:5c:07:5c:62:d2:67:8b:e4:22:92:a9
        Signature Algorithm: sha256WithRSAEncryption
        Issuer: C=FI, O=w1.fi, CN=User Intermediate CA
        Validity
            Not Before: May  3 15:20:11 2020 GMT
            Not After : May  1 15:20:11 2030 GMT
        Subject: C=FI, O=w1.fi, CN=user.w1.fi
        Subject Public Key Info:
            Public Key Algorithm: rsaEncryption
                RSA Public-Key: (2048 bit)
                Modulus:
                    00:d4:5f:23:ec:01:c6:3e:d2:59:ee:df:cd:72:8d:
                    41:ce:40:af:86:be:c2:99:69:3b:91:a3:7c:2d:e4:
                    f5:a1:72:3c:0e:b9:a6:a5:a1:f5:a5:bf:5f:53:98:
                    33:c2:c0:18:24:47:4c:84:4b:9e:d1:f2:49:05:85:
                    2d:87:56:ae:43:bc:a1:89:d7:4a:a9:66:13:c7:ae:
                    35:4a:cc:2f:73:b6:50:7e:63:ba:b0:a6:bc:95:f1:
                    f1:9a:c3:a9:b2:98:3e:ff:27:97:64:b3:54:09:07:
                    fc:6e:c4:cf:7f:91:e0:97:c2:63:10:a1:da:e6:a9:
                    7d:40:b9:03:be:b7:1c:46:90:10:5f:9a:0a:e5:8c:
                    09:56:d3:be:a5:c1:42:5d:f4:4c:e5:be:fd:d9:66:
                    43:f9:e9:38:36:1a:66:d3:3b:7c:11:46:79:16:79:
                    b8:cf:81:14:0a:4c:b7:be:7b:f2:83:f4:87:2a:1e:
                    b1:ff:78:1c:15:53:21:7f:76:d1:55:0f:08:be:11:
                    0f:19:eb:46:61:ad:a9:36:bc:bb:81:bf:37:6d:0c:
                    5f:d1:67:71:a9:da:27:6e:2f:90:e8:3b:d0:6b:97:
                    c3:1b:e7:cd:81:40:0d:d6:2e:fe:24:40:67:84:ed:
                    ea:b7:f3:26:c5:23:35:f9:7c:b5:5c:f9:df:1f:9f:
                    a0:85
                Exponent: 65537 (0x10001)
        X509v3 extensions:
            X509v3 Basic Constraints: 
                CA:FALSE
            X509v3 Subject Key Identifier: 
                4F:DA:AA:81:CB:4A:79:E4:8B:4A:92:FC:38:41:92:BA:D9:F9:4C:32
            X509v3 Authority Key Identifier: 
                keyid:F0:F7:82:29:71:CD:AF:72:CE:F6:3C:0B:40:16:C2:FD:9F:8A:51:A7

            X509v3 Subject Alternative Name: critical
                DNS:user.w1.fi
            X509v3 Extended Key Usage: 
                TLS Web Client Authentication
            X509v3 Key Usage: 
                Digital Signature, Key Encipherment
    Signature Algorithm: sha256WithRSAEncryption
         86:b3:8b:79:3b:32:a2:34:bb:9b:12:9d:ad:d2:c7:c6:58:cd:
         24:14:70:7b:4f:7c:52:9a:36:c1:72:aa:bb:a7:a8:a0:ae:82:
         ff:ea:9e:14:29:5f:04:82:8f:0a:46:ee:6b:b8:c8:f9:4f:8d:
         1a:af:e6:d2:b0:87:4c:f4:a0:f9:c3:1c:cf:16:2e:28:c7:95:
         5c:86:a8:15:52:e8:9b:4d:40:6c:b0:82:f9:e5:8e:10:1f:f8:
         d9:7a:4a:a6:e6:fb:00:ab:13:09:ee:4a:2b:6f:aa:a0:5d:90:
         e9:89:40:68:fd:1e:99:f1:cf:5d:fb:d4:76:16:6b:76:52:66:
         17:77:68:e3:d1:7a:35:17:e3:81:9a:46:bd:c9:44:37:10:c4:
         a4:13:dd:f6:c9:b8:08:f4:e1:92:18:7f:8c:c5:c9:14:4b:34:
         5b:d4:db:46:a3:6b:61:1c:5b:52:b4:24:73:98:ce:b2:5a:f3:
         51:72:68:bc:d0:8f:36:5d:16:58:b9:91:2e:e2:6f:09:33:40:
         13:f7:ba:8f:b7:36:02:36:1c:0e:c4:db:a2:dc:17:31:dd:6b:
         4c:e3:5e:04:ab:d5:30:fd:f6:ba:1a:00:04:ea:4b:88:34:d8:
         5e:f2:0a:44:61:05:1c:7b:42:86:7e:42:e8:42:f1:19:a2:48:
         28:44:97:3e
-----BEGIN CERTIFICATE-----
MIIDhzCCAm+gAwIBAgIUWSP0dhDKiUL1XAdcYtJni+QikqkwDQYJKoZIhvcNAQEL
BQAwPDELMAkGA1UEBhMCRkkxDjAMBgNVBAoMBXcxLmZpMR0wGwYDVQQDDBRVc2Vy
IEludGVybWVkaWF0ZSBDQTAeFw0yMDA1MDMxNTIwMTFaFw0zMDA1MDExNTIwMTFa
MDIxCzAJBgNVBAYTAkZJMQ4wDAYDVQQKDAV3MS5maTETMBEGA1UEAwwKdXNlci53
MS5maTCCASIwDQYJKoZIhvcNAQEBBQADggEPADCCAQoCggEBANRfI+wBxj7SWe7f
zXKNQc5Ar4a+wplpO5GjfC3k9aFyPA65pqWh9aW/X1OYM8LAGCRHTIRLntHySQWF
LYdWrkO8oYnXSqlmE8euNUrML3O2UH5jurCmvJXx8ZrDqbKYPv8nl2SzVAkH/G7E
z3+R4JfCYxCh2uapfUC5A763HEaQEF+aCuWMCVbTvqXBQl30TOW+/dlmQ/npODYa
ZtM7fBFGeRZ5uM+BFApMt7578oP0hyoesf94HBVTIX920VUPCL4RDxnrRmGtqTa8
u4G/N20MX9FncanaJ24vkOg70GuXwxvnzYFADdYu/iRAZ4Tt6rfzJsUjNfl8tVz5
3x+foIUCAwEAAaOBijCBhzAJBgNVHRMEAjAAMB0GA1UdDgQWBBRP2qqBy0p55ItK
kvw4QZK62flMMjAfBgNVHSMEGDAWgBTw94Ipcc2vcs72PAtAFsL9n4pRpzAYBgNV
HREBAf8EDjAMggp1c2VyLncxLmZpMBMGA1UdJQQMMAoGCCsGAQUFBwMCMAsGA1Ud
DwQEAwIFoDANBgkqhkiG9w0BAQsFAAOCAQEAhrOLeTsyojS7mxKdrdLHxljNJBRw
e098Upo2wXKqu6eooK6C/+qeFClfBIKPCkbua7jI+U+NGq/m0rCHTPSg+cMczxYu
KMeVXIaoFVLom01AbLCC+eWOEB/42XpKpub7AKsTCe5KK2+qoF2Q6YlAaP0emfHP
XfvUdhZrdlJmF3do49F6NRfjgZpGvclENxDEpBPd9sm4CPThkhh/jMXJFEs0W9Tb
RqNrYRxbUrQkc5jOslrzUXJovNCPNl0WWLmRLuJvCTNAE/e6j7c2AjYcDsTbotwX
Md1rTONeBKvVMP32uhoABOpLiDTYXvIKRGEFHHtChn5C6ELxGaJIKESXPg==
-----END CERTIFICATE-----
Certificate:
    Data:
        Version: 3 (0x2)
        Serial Number:
            d8:d3:e3:a6:cb:e3:cc:f8
        Signature Algorithm: sha256WithRSAEncryption
        Issuer: C=FI, L=Tuusula, O=w1.fi, CN=Root CA
        Validity
            Not Before: May  3 15:20:10 2020 GMT
            Not After : May  3 15:20:10 2030 GMT
        Subject: C=FI, O=w1.fi, CN=User Intermediate CA
        Subject Public Key Info:
            Public Key Algorithm: rsaEncryption
                RSA Public-Key: (2048 bit)
                Modulus:
                    00:b9:88:7a:fc:1a:f9:00:68:63:c7:40:ff:d5:38:
                    8e:88:8c:c9:8f:66:ec:74:0a:a6:f1:18:30:30:36:
                    9a:2a:98:c5:a0:46:02:e2:3c:64:86:79:43:45:19:
                    83:7a:82:3d:f9:c6:af:01:11:91:2c:4f:07:f8:d7:
                    ef:da:80:6c:07:88:6a:1e:e6:0e:78:ca:08:50:4f:
                    f0:8a:2e:54:41:9f:04:63:8b:70:99:ae:6f:95:ed:
                    5c:c8:34:8e:6b:36:64:bc:44:c9:fb:cb:50:ef:b1:
                    5b:9b:2c:db:2a:a7:f9:e0:e2:48:57:78:cf:ba:0f:
                    1a:af:5a:63:64:18:39:9c:d4:af:8d:f9:27:d9:10:
                    b4:67:17:a1:24:98:f1:ef:ce:ad:12:6f:e4:47:36:
                    b6:d2:b6:1c:04:03:76:43:63:fb:b6:3e:3f:1a:c8:
                    c4:8b:69:28:7c:75:dc:bb:36:7f:ad:6a:a2:c1:32:
                    f3:5e:64:86:57:f1:ee:20:af:64:bd:e0:7c:ba:68:
                    9b:75:ed:b3:1c:0f:12:e0:52:12:ff:18:0e:8f:1d:
                    bf:c8:88:56:35:4d:9e:1f:74:1e:19:d7:0c:b4:e7:
                    46:ee:cf:c6:63:35:ba:16:7f:05:84:8b:bf:16:72:
                    05:ee:22:6e:3a:54:80:2b:0e:36:96:8d:65:5f:64:
                    12:cd
                Exponent: 65537 (0x10001)
        X509v3 extensions:
            X509v3 Subject Key Identifier: 
                F0:F7:82:29:71:CD:AF:72:CE:F6:3C:0B:40:16:C2:FD:9F:8A:51:A7
            X509v3 Authority Key Identifier: 
                keyid:A4:FD:B9:39:1B:81:B3:AA:EB:88:1D:D4:81:A9:B5:11:70:CC:A7:E1

            X509v3 Basic Constraints: critical
                CA:TRUE, pathlen:0
            X509v3 Key Usage: critical
                Certificate Sign, CRL Sign
    Signature Algorithm: sha256WithRSAEncryption
         70:45:66:14:00:22:85:1c:f8:b9:b3:2c:e8:64:4d:01:53:b8:
         cb:23:ad:fa:01:7c:27:f7:aa:8d:d8:6c:6a:f8:72:21:63:bf:
         30:7e:05:8c:84:e3:d1:1e:d1:f3:1d:80:3d:e8:75:06:ae:1b:
         48:a9:cf:0e:c6:59:6b:f8:d1:25:5a:64:b7:46:2d:29:72:da:
         d6:3a:79:d3:92:41:d7:31:e4:4e:5e:1b:62:88:41:77:f6:62:
         a2:3e:c1:a2:ef:79:0c:8f:39:7c:df:a0:4b:d5:ac:58:aa:3e:
         fd:95:6b:f7:c0:42:29:2e:86:67:5e:d9:3e:7b:e7:a6:bd:3b:
         7e:3b:19:54:9b:89:40:0e:39:23:8a:af:f2:db:12:5b:09:b4:
         45:df:c8:3e:8f:fc:fc:55:3e:35:8d:7b:82:50:d5:a3:ea:bb:
         c4:40:6d:61:ad:92:b2:66:91:0f:5b:3d:49:5e:b5:3e:98:15:
         9e:2a:23:06:35:e0:13:bc:50:84:06:e4:1b:b9:fc:32:a2:4a:
         0d:e5:86:ac:69:47:c3:17:11:07:ac:5a:09:69:ed:99:d0:52:
         fd:6d:ab:0d:44:35:bb:c0:76:27:50:75:df:06:78:f6:92:54:
         fc:54:76:b5:6f:a0:f6:51:20:1f:7f:8e:aa:5f:c8:48:88:e4:
         1a:83:f6:b7
-----BEGIN CERTIFICATE-----
MIIDZjCCAk6gAwIBAgIJANjT46bL48z4MA0GCSqGSIb3DQEBCwUAMEExCzAJBgNV
BAYTAkZJMRAwDgYDVQQHDAdUdXVzdWxhMQ4wDAYDVQQKDAV3MS5maTEQMA4GA1UE
AwwHUm9vdCBDQTAeFw0yMDA1MDMxNTIwMTBaFw0zMDA1MDMxNTIwMTBaMDwxCzAJ
BgNVBAYTAkZJMQ4wDAYDVQQKDAV3MS5maTEdMBsGA1UEAwwUVXNlciBJbnRlcm1l
ZGlhdGUgQ0EwggEiMA0GCSqGSIb3DQEBAQUAA4IBDwAwggEKAoIBAQC5iHr8GvkA
aGPHQP/VOI6IjMmPZux0CqbxGDAwNpoqmMWgRgLiPGSGeUNFGYN6gj35xq8BEZEs
Twf41+/agGwHiGoe5g54yghQT/CKLlRBnwRji3CZrm+V7VzINI5rNmS8RMn7y1Dv
sVubLNsqp/ng4khXeM+6DxqvWmNkGDmc1K+N+SfZELRnF6EkmPHvzq0Sb+RHNrbS
thwEA3ZDY/u2Pj8ayMSLaSh8ddy7Nn+taqLBMvNeZIZX8e4gr2S94Hy6aJt17bMc
DxLgUhL/GA6PHb/IiFY1TZ4fdB4Z1wy050buz8ZjNboWfwWEi78WcgXuIm46VIAr
DjaWjWVfZBLNAgMBAAGjZjBkMB0GA1UdDgQWBBTw94Ipcc2vcs72PAtAFsL9n4pR
pzAfBgNVHSMEGDAWgBSk/bk5G4GzquuIHdSBqbURcMyn4TASBgNVHRMBAf8ECDAG
AQH/AgEAMA4GA1UdDwEB/wQEAwIBBjANBgkqhkiG9w0BAQsFAAOCAQEAcEVmFAAi
hRz4ubMs6GRNAVO4yyOt+gF8J/eqjdhsavhyIWO/MH4FjITj0R7R8x2APeh1Bq4b
SKnPDsZZa/jRJVpkt0YtKXLa1jp505JB1zHkTl4bYohBd/Zioj7Bou95DI85fN+g
S9WsWKo+/ZVr98BCKS6GZ17ZPnvnpr07fjsZVJuJQA45I4qv8tsSWwm0Rd/IPo/8
/FU+NY17glDVo+q7xEBtYa2SsmaRD1s9SV61PpgVniojBjXgE7xQhAbkG7n8MqJK
DeWGrGlHwxcRB6xaCWntmdBS/W2rDUQ1u8B2J1B13wZ49pJU/FR2tW+g9lEgH3+O
ql/ISIjkGoP2tw==
-----END CERTIFICATE-----
