##
##  AddTrust Low-Value Services Root
##
##  This is a single X.509 certificate for a public Certificate
##  Authority (CA). It was automatically extracted from Mozilla's
##  root CA list (the file `certdata.txt' in security/nss).
##
##  Extracted from nss
##  with $FreeBSD: head/secure/caroot/MAca-bundle.pl 352951 2019-10-02 01:27:50Z kevans $
##
##  @generated
##
Certificate:
    Data:
        Version: 3 (0x2)
        Serial Number: 1 (0x1)
        Signature Algorithm: sha1WithRSAEncryption
        Issuer: C = SE, O = AddTrust AB, OU = AddTrust TTP Network, CN = AddTrust Class 1 CA Root
        Validity
            Not Before: May 30 10:38:31 2000 GMT
            Not After : May 30 10:38:31 2020 GMT
        Subject: C = SE, O = AddTrust AB, OU = AddTrust TTP Network, CN = AddTrust Class 1 CA Root
        Subject Public Key Info:
            Public Key Algorithm: rsaEncryption
                Public-Key: (2048 bit)
                Modulus:
                    00:96:96:d4:21:49:60:e2:6b:e8:41:07:0c:de:c4:
                    e0:dc:13:23:cd:c1:35:c7:fb:d6:4e:11:0a:67:5e:
                    f5:06:5b:6b:a5:08:3b:5b:29:16:3a:e7:87:b2:34:
                    06:c5:bc:05:a5:03:7c:82:cb:29:10:ae:e1:88:81:
                    bd:d6:9e:d3:fe:2d:56:c1:15:ce:e3:26:9d:15:2e:
                    10:fb:06:8f:30:04:de:a7:b4:63:b4:ff:b1:9c:ae:
                    3c:af:77:b6:56:c5:b5:ab:a2:e9:69:3a:3d:0e:33:
                    79:32:3f:70:82:92:99:61:6d:8d:30:08:8f:71:3f:
                    a6:48:57:19:f8:25:dc:4b:66:5c:a5:74:8f:98:ae:
                    c8:f9:c0:06:22:e7:ac:73:df:a5:2e:fb:52:dc:b1:
                    15:65:20:fa:35:66:69:de:df:2c:f1:6e:bc:30:db:
                    2c:24:12:db:eb:35:35:68:90:cb:00:b0:97:21:3d:
                    74:21:23:65:34:2b:bb:78:59:a3:d6:e1:76:39:9a:
                    a4:49:8e:8c:74:af:6e:a4:9a:a3:d9:9b:d2:38:5c:
                    9b:a2:18:cc:75:23:84:be:eb:e2:4d:33:71:8e:1a:
                    f0:c2:f8:c7:1d:a2:ad:03:97:2c:f8:cf:25:c6:f6:
                    b8:24:31:b1:63:5d:92:7f:63:f0:25:c9:53:2e:1f:
                    bf:4d
                Exponent: 65537 (0x10001)
        X509v3 extensions:
            X509v3 Subject Key Identifier: 
                95:B1:B4:F0:94:B6:BD:C7:DA:D1:11:09:21:BE:C1:AF:49:FD:10:7B
            X509v3 Key Usage: 
                Certificate Sign, CRL Sign
            X509v3 Basic Constraints: critical
                CA:TRUE
            X509v3 Authority Key Identifier: 
                keyid:95:B1:B4:F0:94:B6:BD:C7:DA:D1:11:09:21:BE:C1:AF:49:FD:10:7B
                DirName:/C=SE/O=AddTrust AB/OU=AddTrust TTP Network/CN=AddTrust Class 1 CA Root
                serial:01
    Signature Algorithm: sha1WithRSAEncryption
    Signature Value:
        2c:6d:64:1b:1f:cd:0d:dd:b9:01:fa:96:63:34:32:48:47:99:
        ae:97:ed:fd:72:16:a6:73:47:5a:f4:eb:dd:e9:f5:d6:fb:45:
        cc:29:89:44:5d:bf:46:39:3d:e8:ee:bc:4d:54:86:1e:1d:6c:
        e3:17:27:43:e1:89:56:2b:a9:6f:72:4e:49:33:e3:72:7c:2a:
        23:9a:bc:3e:ff:28:2a:ed:a3:ff:1c:23:ba:43:57:09:67:4d:
        4b:62:06:2d:f8:ff:6c:9d:60:1e:d8:1c:4b:7d:b5:31:2f:d9:
        d0:7c:5d:f8:de:6b:83:18:78:37:57:2f:e8:33:07:67:df:1e:
        c7:6b:2a:95:76:ae:8f:57:a3:f0:f4:52:b4:a9:53:08:cf:e0:
        4f:d3:7a:53:8b:fd:bb:1c:56:36:f2:fe:b2:b6:e5:76:bb:d5:
        22:65:a7:3f:fe:d1:66:ad:0b:bc:6b:99:86:ef:3f:7d:f3:18:
        32:ca:7b:c6:e3:ab:64:46:95:f8:26:69:d9:55:83:7b:2c:96:
        07:ff:59:2c:44:a3:c6:e5:e9:a9:dc:a1:63:80:5a:21:5e:21:
        cf:53:54:f0:ba:6f:89:db:a8:aa:95:cf:8b:e3:71:cc:1e:1b:
        20:44:08:c0:7a:b6:40:fd:c4:e4:35:e1:1d:16:1c:d0:bc:2b:
        8e:d6:71:d9
SHA1 Fingerprint=CC:AB:0E:A0:4C:23:01:D6:69:7B:DD:37:9F:CD:12:EB:24:E3:94:9D
-----BEGIN CERTIFICATE-----
MIIEGDCCAwCgAwIBAgIBATANBgkqhkiG9w0BAQUFADBlMQswCQYDVQQGEwJTRTEU
MBIGA1UEChMLQWRkVHJ1c3QgQUIxHTAbBgNVBAsTFEFkZFRydXN0IFRUUCBOZXR3
b3JrMSEwHwYDVQQDExhBZGRUcnVzdCBDbGFzcyAxIENBIFJvb3QwHhcNMDAwNTMw
MTAzODMxWhcNMjAwNTMwMTAzODMxWjBlMQswCQYDVQQGEwJTRTEUMBIGA1UEChML
QWRkVHJ1c3QgQUIxHTAbBgNVBAsTFEFkZFRydXN0IFRUUCBOZXR3b3JrMSEwHwYD
VQQDExhBZGRUcnVzdCBDbGFzcyAxIENBIFJvb3QwggEiMA0GCSqGSIb3DQEBAQUA
A4IBDwAwggEKAoIBAQCWltQhSWDia+hBBwzexODcEyPNwTXH+9ZOEQpnXvUGW2ul
CDtbKRY654eyNAbFvAWlA3yCyykQruGIgb3WntP+LVbBFc7jJp0VLhD7Bo8wBN6n
tGO0/7Gcrjyvd7ZWxbWroulpOj0OM3kyP3CCkplhbY0wCI9xP6ZIVxn4JdxLZlyl
dI+Yrsj5wAYi56xz36Uu+1LcsRVlIPo1Zmne3yzxbrww2ywkEtvrNTVokMsAsJch
PXQhI2U0K7t4WaPW4XY5mqRJjox0r26kmqPZm9I4XJuiGMx1I4S+6+JNM3GOGvDC
+Mcdoq0Dlyz4zyXG9rgkMbFjXZJ/Y/AlyVMuH79NAgMBAAGjgdIwgc8wHQYDVR0O
BBYEFJWxtPCUtr3H2tERCSG+wa9J/RB7MAsGA1UdDwQEAwIBBjAPBgNVHRMBAf8E
BTADAQH/MIGPBgNVHSMEgYcwgYSAFJWxtPCUtr3H2tERCSG+wa9J/RB7oWmkZzBl
MQswCQYDVQQGEwJTRTEUMBIGA1UEChMLQWRkVHJ1c3QgQUIxHTAbBgNVBAsTFEFk
ZFRydXN0IFRUUCBOZXR3b3JrMSEwHwYDVQQDExhBZGRUcnVzdCBDbGFzcyAxIENB
IFJvb3SCAQEwDQYJKoZIhvcNAQEFBQADggEBACxtZBsfzQ3duQH6lmM0MkhHma6X
7f1yFqZzR1r0693p9db7RcwpiURdv0Y5PejuvE1Uhh4dbOMXJ0PhiVYrqW9yTkkz
43J8KiOavD7/KCrto/8cI7pDVwlnTUtiBi34/2ydYB7YHEt9tTEv2dB8Xfjea4MY
eDdXL+gzB2ffHsdrKpV2ro9Xo/D0UrSpUwjP4E/TelOL/bscVjby/rK25Xa71SJl
pz/+0WatC7xrmYbvP33zGDLKe8bjq2RGlfgmadlVg3sslgf/WSxEo8bl6ancoWOA
WiFeIc9TVPC6b4nbqKqVz4vjccweGyBECMB6tkD9xOQ14R0WHNC8K47Wcdk=
-----END CERTIFICATE-----
