##
##  Atos TrustedRoot Root CA ECC G2 2020
##
##  This is a single X.509 certificate for a public Certificate
##  Authority (CA). It was automatically extracted from Mozilla's
##  root CA list (the file `certdata.txt' in security/nss)
##  licensed under the MPL 2.0, http://mozilla.org/MPL/2.0/.
##
##  @generated
##
Certificate:
    Data:
        Version: 3 (0x2)
        Serial Number:
            0b:73:28:11:18:74:30:1c:ef:6f:08:84
        Signature Algorithm: ecdsa-with-SHA384
        Issuer: C=DE, O=Atos, CN=Atos TrustedRoot Root CA ECC G2 2020
        Validity
            Not Before: Dec 15 08:39:10 2020 GMT
            Not After : Dec 10 08:39:09 2040 GMT
        Subject: C=DE, O=Atos, CN=Atos TrustedRoot Root CA ECC G2 2020
        Subject Public Key Info:
            Public Key Algorithm: id-ecPublicKey
                Public-Key: (384 bit)
                pub:
                    04:c8:5c:80:ca:4e:c2:28:1f:57:bf:38:e6:61:23:
                    fc:d0:a9:5b:96:16:16:c3:0c:5e:15:a5:90:09:ff:
                    38:28:b4:7a:1e:0a:d6:53:2a:c1:bb:90:40:74:37:
                    e9:81:e8:8d:2f:68:01:35:7c:52:2e:d8:f4:58:b3:
                    11:1c:5b:d9:87:18:93:91:2d:ec:9d:da:6c:9e:6d:
                    84:48:fc:c2:89:05:eb:98:13:02:01:6c:53:1e:0e:
                    49:63:58:47:b1:af:c2
                ASN1 OID: secp384r1
                NIST CURVE: P-384
        X509v3 extensions:
            X509v3 Basic Constraints: critical
                CA:TRUE
            X509v3 Authority Key Identifier: 
                5B:1F:C4:71:6C:B2:1B:9F:BE:5C:1F:8C:FD:B3:B6:FB:B3:0E:09:87
            X509v3 Subject Key Identifier: 
                5B:1F:C4:71:6C:B2:1B:9F:BE:5C:1F:8C:FD:B3:B6:FB:B3:0E:09:87
            X509v3 Key Usage: critical
                Digital Signature, Certificate Sign, CRL Sign
    Signature Algorithm: ecdsa-with-SHA384
    Signature Value:
        30:66:02:31:00:ec:e0:99:fd:dd:e4:54:c1:cb:1f:e8:3e:28:
        d7:15:59:4a:82:ca:53:30:ec:eb:36:a5:b9:c8:ce:93:47:56:
        c8:61:a6:e1:6d:92:53:95:8f:f6:e3:55:53:f0:dd:7a:e7:02:
        31:00:b0:87:d5:1b:b3:60:fc:91:8d:80:ca:a2:1b:51:4b:38:
        54:cb:aa:1e:7b:d7:e5:44:95:16:2f:3c:44:78:2e:25:ba:ea:
        90:e4:ec:52:ee:57:ec:03:84:f3:5e:db:16:0d
SHA1 Fingerprint=61:25:56:DA:62:94:E5:AE:B3:3C:F8:11:BD:B1:DC:F8:A5:D8:B3:E4
-----BEGIN CERTIFICATE-----
MIICMTCCAbagAwIBAgIMC3MoERh0MBzvbwiEMAoGCCqGSM49BAMDMEsxCzAJBgNV
BAYTAkRFMQ0wCwYDVQQKDARBdG9zMS0wKwYDVQQDDCRBdG9zIFRydXN0ZWRSb290
IFJvb3QgQ0EgRUNDIEcyIDIwMjAwHhcNMjAxMjE1MDgzOTEwWhcNNDAxMjEwMDgz
OTA5WjBLMQswCQYDVQQGEwJERTENMAsGA1UECgwEQXRvczEtMCsGA1UEAwwkQXRv
cyBUcnVzdGVkUm9vdCBSb290IENBIEVDQyBHMiAyMDIwMHYwEAYHKoZIzj0CAQYF
K4EEACIDYgAEyFyAyk7CKB9XvzjmYSP80KlblhYWwwxeFaWQCf84KLR6HgrWUyrB
u5BAdDfpgeiNL2gBNXxSLtj0WLMRHFvZhxiTkS3sndpsnm2ESPzCiQXrmBMCAWxT
Hg5JY1hHsa/Co2MwYTAPBgNVHRMBAf8EBTADAQH/MB8GA1UdIwQYMBaAFFsfxHFs
shufvlwfjP2ztvuzDgmHMB0GA1UdDgQWBBRbH8RxbLIbn75cH4z9s7b7sw4JhzAO
BgNVHQ8BAf8EBAMCAYYwCgYIKoZIzj0EAwMDaQAwZgIxAOzgmf3d5FTByx/oPijX
FVlKgspTMOzrNqW5yM6TR1bIYabhbZJTlY/241VT8N165wIxALCH1RuzYPyRjYDK
ohtRSzhUy6oee9flRJUWLzxEeC4luuqQ5OxS7lfsA4TzXtsWDQ==
-----END CERTIFICATE-----
