##
##  Atos TrustedRoot Root CA RSA G2 2020
##
##  This is a single X.509 certificate for a public Certificate
##  Authority (CA). It was automatically extracted from Mozilla's
##  root CA list (the file `certdata.txt' in security/nss)
##  licensed under the MPL 2.0, http://mozilla.org/MPL/2.0/.
##
##  @generated
##
Certificate:
    Data:
        Version: 3 (0x2)
        Serial Number:
            47:ba:29:46:55:3e:16:92:97:b0:ab:40
        Signature Algorithm: sha384WithRSAEncryption
        Issuer: C=DE, O=Atos, CN=Atos TrustedRoot Root CA RSA G2 2020
        Validity
            Not Before: Dec 15 08:41:23 2020 GMT
            Not After : Dec 10 08:41:22 2040 GMT
        Subject: C=DE, O=Atos, CN=Atos TrustedRoot Root CA RSA G2 2020
        Subject Public Key Info:
            Public Key Algorithm: rsaEncryption
                Public-Key: (4096 bit)
                Modulus:
                    00:96:31:85:4a:aa:0f:32:fe:79:e1:43:87:9c:fb:
                    23:b7:8e:7f:0d:54:bd:c7:62:93:77:e4:1c:35:04:
                    76:a3:03:8b:22:ee:c4:84:dd:a5:93:6e:6e:b2:8e:
                    09:03:eb:51:16:31:17:aa:69:15:18:0e:67:74:23:
                    5e:ea:9a:7d:b5:39:3e:3d:82:a9:6b:e1:fe:a9:1c:
                    b0:ad:5a:4d:4c:78:83:41:8b:cf:f2:1d:62:9a:98:
                    04:9c:63:e9:ab:65:fe:48:1d:24:65:07:47:3e:b9:
                    91:2e:e9:9d:9b:7f:1a:35:a9:34:b0:b7:e5:70:33:
                    ef:4a:72:51:b6:07:bf:60:3f:2a:9f:9d:54:df:f3:
                    d7:94:49:51:03:5a:40:a9:68:dd:11:59:5c:f8:76:
                    a6:bc:50:52:10:ed:ac:ec:95:e0:d4:83:6b:49:da:
                    0a:4f:99:83:de:32:83:48:83:67:95:b2:7e:e7:81:
                    85:3d:cd:82:f7:ca:02:ed:6d:88:5d:08:8d:b8:35:
                    bf:2a:69:30:99:bb:4b:d1:41:db:45:a0:93:99:51:
                    81:90:36:08:aa:8a:b6:e8:8f:b3:cb:ee:e5:46:0d:
                    72:75:f5:49:6c:e1:a2:7f:2f:bc:ed:84:a6:37:ee:
                    de:c2:4f:39:4e:f6:9e:f0:c9:d1:9b:30:9d:49:6d:
                    e1:da:ff:12:10:8c:d6:e5:99:7b:05:b6:7d:b0:09:
                    c7:a4:f8:b2:1c:39:95:39:33:f4:35:ce:25:62:7b:
                    b0:5f:20:f3:cb:6d:f8:6c:52:14:64:44:8f:d3:c8:
                    a9:76:07:e5:af:71:99:2d:2d:04:25:48:76:af:c3:
                    e7:cc:43:f2:07:bc:4a:24:24:37:dd:fa:6e:94:09:
                    6f:4c:5e:01:b4:fe:54:ec:23:96:a5:5e:dd:86:ff:
                    e9:46:2a:f1:e8:dc:ec:a5:3d:af:6f:aa:0e:0f:b4:
                    75:fa:3e:08:b9:26:45:4f:66:86:4c:bc:19:b8:e1:
                    d5:35:ee:82:84:c8:d3:ab:12:e7:cd:73:33:62:77:
                    f4:17:cb:bd:34:76:2a:05:ce:95:e5:78:79:4b:9e:
                    b0:8d:f9:3c:58:38:91:ea:5e:87:38:c0:b7:42:fd:
                    aa:4c:87:23:ad:04:20:b1:7e:76:42:da:bb:b6:16:
                    ba:57:c8:8e:13:fa:75:d5:08:4c:af:38:91:aa:ef:
                    8f:fa:9f:49:2e:54:7c:0a:56:b1:7a:fa:c4:4e:2f:
                    d4:a3:fa:16:8a:d0:95:e5:97:a6:ff:c3:fc:7c:0e:
                    47:58:f3:7f:07:7b:12:dc:57:3f:2d:e3:a1:4d:5b:
                    52:4c:33:87:99:a8:09:7b:6c:7e:0e:f2:cf:56:42:
                    9e:eb:05
                Exponent: 65537 (0x10001)
        X509v3 extensions:
            X509v3 Basic Constraints: critical
                CA:TRUE
            X509v3 Authority Key Identifier: 
                20:25:F3:07:FD:A7:6F:F1:96:EE:91:10:69:CC:9A:EF:7D:C8:68:78
            X509v3 Subject Key Identifier: 
                20:25:F3:07:FD:A7:6F:F1:96:EE:91:10:69:CC:9A:EF:7D:C8:68:78
            X509v3 Key Usage: critical
                Digital Signature, Certificate Sign, CRL Sign
    Signature Algorithm: sha384WithRSAEncryption
    Signature Value:
        24:2b:4e:98:f2:1d:17:ed:d9:76:26:b6:30:33:e8:69:45:a1:
        51:4b:52:d8:7a:3a:30:b6:e4:12:ea:bf:9f:4c:e0:04:a4:f6:
        35:c6:fe:a1:30:f7:53:85:92:ad:54:05:57:5f:92:e5:2a:de:
        36:27:9e:7b:13:47:c9:6a:75:af:fc:f3:37:e7:0c:f5:3d:01:
        73:b5:69:51:f8:bd:59:d1:ba:0b:f8:ba:ba:64:27:43:b3:7c:
        83:95:8a:e7:9e:13:96:d7:6f:4a:96:41:49:8b:0e:20:ad:16:
        c6:f7:a6:87:5b:88:12:89:8b:89:ca:12:d2:56:af:22:01:21:
        46:e9:ab:98:3f:a7:88:de:e4:cb:2a:9a:75:19:fa:39:5e:09:
        05:d7:03:32:1a:b8:17:51:08:c7:00:40:7d:f4:be:f8:0c:59:
        f4:69:76:6e:d3:a4:58:5b:5e:26:73:e4:42:55:06:5e:78:40:
        0f:d3:38:9f:ef:26:51:70:74:91:f1:77:62:01:e8:d9:cb:eb:
        a1:df:39:32:1d:bb:6b:fd:71:fe:eb:cf:a5:e6:14:fd:00:80:
        13:c6:9a:00:48:b0:99:05:e9:ae:80:48:fb:09:3f:51:14:b5:
        b9:e7:60:4d:4d:ca:2f:81:21:ee:52:0c:65:7a:dc:f5:89:49:
        4c:30:92:34:58:80:32:59:b1:0d:ff:24:61:0f:e7:0a:42:d0:
        7b:bc:f8:8e:27:47:3f:70:9d:27:d9:b6:06:3d:a5:bb:cb:5e:
        8f:ae:0e:53:c7:9c:6a:6f:3b:4c:0f:a3:40:70:a8:9a:07:ce:
        d4:6e:5b:07:a2:d2:e2:54:b6:bd:6f:33:72:63:ad:51:98:e1:
        8f:76:f1:6a:07:38:25:fe:f6:62:ce:5f:db:63:c2:6e:99:ef:
        06:dc:b9:de:19:1a:e8:54:3d:7d:d2:76:75:d9:5e:3e:32:48:
        a7:8c:f2:9e:72:0c:f8:b8:58:b8:17:23:a5:14:87:75:58:7a:
        00:81:07:22:39:6a:4c:94:a0:b5:a2:db:a7:2c:c1:b0:f1:a3:
        9b:c0:4c:f7:6d:70:ea:31:9f:f1:ae:7d:3e:73:28:d9:a1:df:
        fa:93:f0:9b:b0:f0:e2:cd:25:20:75:ef:e2:7d:32:05:c9:9b:
        76:ee:cb:bd:31:1e:f9:94:98:4b:24:58:56:48:c0:de:06:4c:
        bd:a6:34:5d:ed:16:61:63:73:fb:19:e2:fa:5b:d8:97:75:d4:
        6d:9e:60:39:5e:94:8b:02:2c:eb:99:ce:60:2a:6e:1b:8c:a7:
        4b:bc:fd:36:e6:98:1f:65:f2:7f:f1:e3:8f:4c:80:46:36:58:
        b6:a1:65:cb:ce:1c:44:75
SHA1 Fingerprint=32:D1:27:FA:93:B1:C1:4C:99:E2:4A:40:BC:7F:94:41:1B:5A:AC:A4
-----BEGIN CERTIFICATE-----
MIIFfzCCA2egAwIBAgIMR7opRlU+FpKXsKtAMA0GCSqGSIb3DQEBDAUAMEsxCzAJ
BgNVBAYTAkRFMQ0wCwYDVQQKDARBdG9zMS0wKwYDVQQDDCRBdG9zIFRydXN0ZWRS
b290IFJvb3QgQ0EgUlNBIEcyIDIwMjAwHhcNMjAxMjE1MDg0MTIzWhcNNDAxMjEw
MDg0MTIyWjBLMQswCQYDVQQGEwJERTENMAsGA1UECgwEQXRvczEtMCsGA1UEAwwk
QXRvcyBUcnVzdGVkUm9vdCBSb290IENBIFJTQSBHMiAyMDIwMIICIjANBgkqhkiG
9w0BAQEFAAOCAg8AMIICCgKCAgEAljGFSqoPMv554UOHnPsjt45/DVS9x2KTd+Qc
NQR2owOLIu7EhN2lk25uso4JA+tRFjEXqmkVGA5ndCNe6pp9tTk+PYKpa+H+qRyw
rVpNTHiDQYvP8h1impgEnGPpq2X+SB0kZQdHPrmRLumdm38aNak0sLflcDPvSnJR
tge/YD8qn51U3/PXlElRA1pAqWjdEVlc+HamvFBSEO2s7JXg1INrSdoKT5mD3jKD
SINnlbJ+54GFPc2C98oC7W2IXQiNuDW/KmkwmbtL0UHbRaCTmVGBkDYIqoq26I+z
y+7lRg1ydfVJbOGify+87YSmN+7ewk85Tvae8MnRmzCdSW3h2v8SEIzW5Zl7BbZ9
sAnHpPiyHDmVOTP0Nc4lYnuwXyDzy234bFIUZESP08ipdgflr3GZLS0EJUh2r8Pn
zEPyB7xKJCQ33fpulAlvTF4BtP5U7COWpV7dhv/pRirx6NzspT2vb6oOD7R1+j4I
uSZFT2aGTLwZuOHVNe6ChMjTqxLnzXMzYnf0F8u9NHYqBc6V5Xh5S56wjfk8WDiR
6l6HOMC3Qv2qTIcjrQQgsX52Qtq7tha6V8iOE/p11QhMrziRqu+P+p9JLlR8Clax
evrETi/Uo/oWitCV5Zem/8P8fA5HWPN/B3sS3Fc/LeOhTVtSTDOHmagJe2x+DvLP
VkKe6wUCAwEAAaNjMGEwDwYDVR0TAQH/BAUwAwEB/zAfBgNVHSMEGDAWgBQgJfMH
/adv8ZbukRBpzJrvfchoeDAdBgNVHQ4EFgQUICXzB/2nb/GW7pEQacya733IaHgw
DgYDVR0PAQH/BAQDAgGGMA0GCSqGSIb3DQEBDAUAA4ICAQAkK06Y8h0X7dl2JrYw
M+hpRaFRS1LYejowtuQS6r+fTOAEpPY1xv6hMPdThZKtVAVXX5LlKt42J557E0fJ
anWv/PM35wz1PQFztWlR+L1Z0boL+Lq6ZCdDs3yDlYrnnhOW129KlkFJiw4grRbG
96aHW4gSiYuJyhLSVq8iASFG6auYP6eI3uTLKpp1Gfo5XgkF1wMyGrgXUQjHAEB9
9L74DFn0aXZu06RYW14mc+RCVQZeeEAP0zif7yZRcHSR8XdiAejZy+uh3zkyHbtr
/XH+68+l5hT9AIATxpoASLCZBemugEj7CT9RFLW552BNTcovgSHuUgxletz1iUlM
MJI0WIAyWbEN/yRhD+cKQtB7vPiOJ0c/cJ0n2bYGPaW7y16Prg5Tx5xqbztMD6NA
cKiaB87UblsHotLiVLa9bzNyY61RmOGPdvFqBzgl/vZizl/bY8Jume8G3LneGRro
VD190nZ12V4+MkinjPKecgz4uFi4FyOlFId1WHoAgQciOWpMlKC1otunLMGw8aOb
wEz3bXDqMZ/xrn0+cyjZod/6k/CbsPDizSUgde/ifTIFyZt27su9MR75lJhLJFhW
SMDeBky9pjRd7RZhY3P7GeL6W9iXddRtnmA5XpSLAizrmc5gKm4bjKdLvP025pgf
ZfJ/8eOPTIBGNli2oWXLzhxEdQ==
-----END CERTIFICATE-----
