##
##  D-Trust SBR Root CA 2 2022
##
##  This is a single X.509 certificate for a public Certificate
##  Authority (CA). It was automatically extracted from Mozilla's
##  root CA list (the file `certdata.txt' in security/nss)
##  licensed under the MPL 2.0, http://mozilla.org/MPL/2.0/.
##
##  @generated
##
Certificate:
    Data:
        Version: 3 (0x2)
        Serial Number:
            54:d5:a3:95:1e:3d:95:ba:72:1b:9a:d0:31:21:4a:ba
        Signature Algorithm: sha512WithRSAEncryption
        Issuer: C=DE, O=D-Trust GmbH, CN=D-Trust SBR Root CA 2 2022
        Validity
            Not Before: Jul  7 07:30:00 2022 GMT
            Not After : Jul  7 07:29:59 2037 GMT
        Subject: C=DE, O=D-Trust GmbH, CN=D-Trust SBR Root CA 2 2022
        Subject Public Key Info:
            Public Key Algorithm: rsaEncryption
                Public-Key: (4096 bit)
                Modulus:
                    00:af:2c:bc:8e:36:8c:eb:64:af:51:6a:d6:6e:3c:
                    5e:91:3a:ea:9a:c3:ca:6c:fb:aa:27:9e:64:22:a9:
                    40:df:b9:28:45:5a:ec:53:61:16:28:98:c2:8a:a4:
                    75:78:50:84:dd:fa:20:48:92:07:65:41:35:66:51:
                    12:74:61:9d:07:06:85:39:31:57:7b:28:3f:d5:9c:
                    a5:ec:5a:e9:1c:4b:27:9f:ce:27:06:f3:37:f5:52:
                    d8:11:33:16:41:3a:1f:f5:63:78:65:63:86:c9:bf:
                    c8:01:04:1f:6e:ee:e2:ec:ac:0c:ee:82:92:e2:f6:
                    1a:0d:3f:39:f9:9d:65:93:ad:f8:b9:05:c1:3d:f8:
                    37:81:56:c3:a0:fe:05:ec:e0:94:16:3a:23:16:04:
                    da:a6:0a:93:85:72:6d:61:3b:a1:8d:45:d6:e3:7f:
                    be:15:bd:36:84:08:f6:0b:83:6b:26:aa:a2:bd:e0:
                    b0:e7:aa:e0:ae:67:c4:d3:82:a5:0c:a9:a4:f0:33:
                    79:0d:50:3f:f0:ef:90:3d:24:b9:7f:d2:20:6c:ea:
                    97:f3:bf:9c:dc:47:de:09:61:bd:94:79:95:5a:02:
                    76:35:60:c4:47:22:0d:f7:76:63:03:d3:c6:fb:83:
                    c6:5d:ab:ad:ed:69:25:2b:03:5b:4d:25:00:41:e3:
                    8c:87:17:52:a8:e0:05:2b:43:4d:14:13:ca:e7:3f:
                    43:22:bc:37:a4:75:f1:f6:bf:3a:ef:32:1e:ae:ee:
                    58:86:90:72:ba:04:ac:40:48:ef:5c:c4:78:a7:a9:
                    8f:27:5a:cb:7a:ec:58:f2:c2:08:58:90:6d:4d:03:
                    85:79:71:15:05:0e:4e:3e:f9:df:0f:05:f7:5f:14:
                    48:56:21:0d:33:92:b1:ac:8c:e5:18:fe:bf:0f:ee:
                    e0:04:aa:bd:21:f2:58:b6:5c:89:0a:8b:18:09:22:
                    1a:b3:35:c6:66:c2:f5:33:15:99:80:e0:08:f9:96:
                    2f:13:8c:ee:da:b7:88:c4:e9:37:b5:d7:6a:d7:3a:
                    84:4d:ab:70:8c:d3:4e:14:55:a0:a2:10:fc:64:da:
                    67:e8:f1:cb:33:dd:c9:9a:8a:8f:96:2f:58:81:d9:
                    f8:9a:00:43:cc:90:fb:55:76:fb:86:e3:37:01:28:
                    0c:6f:f4:e9:59:4d:15:77:51:42:4a:cc:34:b8:80:
                    43:50:81:ef:57:a5:13:db:a7:94:79:0f:4b:ca:7e:
                    17:7d:af:a3:21:64:e8:71:55:56:8f:06:b0:47:ec:
                    59:0f:5d:70:5b:2c:16:42:f0:86:9e:75:de:6b:4d:
                    48:98:84:e2:57:18:b6:9c:82:99:65:3a:8b:80:78:
                    57:0c:49
                Exponent: 65537 (0x10001)
        X509v3 extensions:
            X509v3 Basic Constraints: critical
                CA:TRUE
            X509v3 Subject Key Identifier: 
                5D:B3:80:94:1B:E5:86:BF:68:BA:14:34:A4:F6:EE:6D:F2:DD:DF:E7
            X509v3 Key Usage: critical
                Certificate Sign, CRL Sign
            X509v3 CRL Distribution Points: 
                Full Name:
                  URI:http://crl.d-trust.net/crl/d-trust_sbr_root_ca_2_2022.crl

    Signature Algorithm: sha512WithRSAEncryption
    Signature Value:
        34:54:2e:58:18:56:cd:4a:bd:97:d3:f5:7d:2b:dc:af:0f:51:
        e1:4d:bc:21:4b:93:f4:00:44:13:07:10:0b:25:18:3e:48:59:
        96:f7:a1:e1:93:90:78:66:1a:3d:23:eb:22:ab:01:a6:8e:0c:
        51:33:e6:6d:8c:31:ee:ac:a4:01:70:39:48:de:c7:66:2c:6b:
        0d:cb:73:9f:87:92:e9:3e:47:1f:b8:ef:2f:ee:b7:56:8c:48:
        89:f0:38:a7:15:39:b2:ee:c0:3f:17:a4:73:02:08:9c:bc:06:
        8a:a4:c2:b7:61:61:f9:c3:db:c4:d0:7a:7c:61:de:b1:58:91:
        f5:dd:65:4c:2f:0b:f8:eb:3d:b5:ed:8a:be:77:1c:ba:59:02:
        12:66:71:e5:98:27:ce:0e:3d:af:51:a2:45:f9:82:fb:5a:a5:
        94:70:f7:8b:84:c3:4c:65:25:9b:7b:e2:1f:30:70:b3:40:8e:
        3a:ee:bd:f4:e7:68:c5:9d:c9:29:47:71:0e:93:c8:b5:48:4e:
        f5:66:bb:07:88:71:69:6b:7b:48:8e:6f:f0:11:c4:b4:c9:70:
        14:98:20:bd:ed:a7:ea:01:da:6e:a5:9b:12:fe:3e:44:30:b3:
        f0:eb:75:52:c0:f4:c3:fa:77:26:a4:77:82:2d:6f:f3:28:1e:
        4e:95:f0:30:f7:89:f8:2c:a2:50:5b:f2:be:32:7e:6c:54:db:
        72:c9:2a:5a:e0:1c:b6:0b:d8:52:9a:59:a1:e3:b0:01:27:c5:
        a0:16:50:66:dc:eb:ae:6d:f4:9b:5b:3d:84:6d:5b:87:e7:a9:
        89:bb:6e:b8:e0:9b:53:89:c0:ff:2e:40:1a:89:44:2e:18:43:
        67:38:e4:7c:72:5f:d9:a3:29:25:41:41:3d:1c:77:1b:64:a8:
        c3:55:ee:63:71:66:62:83:f4:7f:26:99:a0:54:3b:a1:12:6d:
        70:62:ce:d3:f9:b8:bd:22:fc:d4:9a:d4:bb:e2:38:16:2f:b7:
        7d:39:c2:b0:a9:03:e9:9c:cf:7e:18:8d:76:dc:5f:11:bb:eb:
        42:ec:50:09:3e:5c:ec:90:31:d8:1a:72:ba:3f:69:07:ee:98:
        34:c2:34:a4:d6:da:13:d6:a9:84:f2:00:86:c0:54:ba:1e:11:
        b0:e2:b9:c4:07:b4:91:e7:aa:e6:31:56:6f:b1:44:c4:2a:62:
        bc:c9:b0:65:9c:34:fc:0c:1a:53:df:21:17:bb:c2:6d:a1:0a:
        e6:f1:b0:aa:44:09:50:49:38:7a:5d:71:e2:31:2e:19:b0:df:
        95:42:04:7d:84:88:ce:0a:23:67:6b:38:9d:16:de:06:fe:28:
        70:38:a5:5a:ae:fc:83:ed
SHA1 Fingerprint=27:FF:63:B9:EF:34:29:31:03:38:1A:D8:60:60:DA:CC:60:28:35:E1
-----BEGIN CERTIFICATE-----
MIIFrDCCA5SgAwIBAgIQVNWjlR49lbpyG5rQMSFKujANBgkqhkiG9w0BAQ0FADBJ
MQswCQYDVQQGEwJERTEVMBMGA1UEChMMRC1UcnVzdCBHbWJIMSMwIQYDVQQDExpE
LVRydXN0IFNCUiBSb290IENBIDIgMjAyMjAeFw0yMjA3MDcwNzMwMDBaFw0zNzA3
MDcwNzI5NTlaMEkxCzAJBgNVBAYTAkRFMRUwEwYDVQQKEwxELVRydXN0IEdtYkgx
IzAhBgNVBAMTGkQtVHJ1c3QgU0JSIFJvb3QgQ0EgMiAyMDIyMIICIjANBgkqhkiG
9w0BAQEFAAOCAg8AMIICCgKCAgEAryy8jjaM62SvUWrWbjxekTrqmsPKbPuqJ55k
IqlA37koRVrsU2EWKJjCiqR1eFCE3fogSJIHZUE1ZlESdGGdBwaFOTFXeyg/1Zyl
7FrpHEsnn84nBvM39VLYETMWQTof9WN4ZWOGyb/IAQQfbu7i7KwM7oKS4vYaDT85
+Z1lk634uQXBPfg3gVbDoP4F7OCUFjojFgTapgqThXJtYTuhjUXW43++Fb02hAj2
C4NrJqqiveCw56rgrmfE04KlDKmk8DN5DVA/8O+QPSS5f9IgbOqX87+c3EfeCWG9
lHmVWgJ2NWDERyIN93ZjA9PG+4PGXaut7WklKwNbTSUAQeOMhxdSqOAFK0NNFBPK
5z9DIrw3pHXx9r867zIeru5YhpByugSsQEjvXMR4p6mPJ1rLeuxY8sIIWJBtTQOF
eXEVBQ5OPvnfDwX3XxRIViENM5KxrIzlGP6/D+7gBKq9IfJYtlyJCosYCSIaszXG
ZsL1MxWZgOAI+ZYvE4zu2reIxOk3tddq1zqETatwjNNOFFWgohD8ZNpn6PHLM93J
moqPli9Ygdn4mgBDzJD7VXb7huM3ASgMb/TpWU0Vd1FCSsw0uIBDUIHvV6UT26eU
eQ9Lyn4Xfa+jIWTocVVWjwawR+xZD11wWywWQvCGnnXea01ImITiVxi2nIKZZTqL
gHhXDEkCAwEAAaOBjzCBjDAPBgNVHRMBAf8EBTADAQH/MB0GA1UdDgQWBBRds4CU
G+WGv2i6FDSk9u5t8t3f5zAOBgNVHQ8BAf8EBAMCAQYwSgYDVR0fBEMwQTA/oD2g
O4Y5aHR0cDovL2NybC5kLXRydXN0Lm5ldC9jcmwvZC10cnVzdF9zYnJfcm9vdF9j
YV8yXzIwMjIuY3JsMA0GCSqGSIb3DQEBDQUAA4ICAQA0VC5YGFbNSr2X0/V9K9yv
D1HhTbwhS5P0AEQTBxALJRg+SFmW96Hhk5B4Zho9I+siqwGmjgxRM+ZtjDHurKQB
cDlI3sdmLGsNy3Ofh5LpPkcfuO8v7rdWjEiJ8DinFTmy7sA/F6RzAgicvAaKpMK3
YWH5w9vE0Hp8Yd6xWJH13WVMLwv46z217Yq+dxy6WQISZnHlmCfODj2vUaJF+YL7
WqWUcPeLhMNMZSWbe+IfMHCzQI467r3052jFnckpR3EOk8i1SE71ZrsHiHFpa3tI
jm/wEcS0yXAUmCC97afqAdpupZsS/j5EMLPw63VSwPTD+ncmpHeCLW/zKB5OlfAw
94n4LKJQW/K+Mn5sVNtyySpa4By2C9hSmlmh47ABJ8WgFlBm3OuubfSbWz2EbVuH
56mJu2644JtTicD/LkAaiUQuGENnOOR8cl/ZoyklQUE9HHcbZKjDVe5jcWZig/R/
JpmgVDuhEm1wYs7T+bi9IvzUmtS74jgWL7d9OcKwqQPpnM9+GI123F8Ru+tC7FAJ
PlzskDHYGnK6P2kH7pg0wjSk1toT1qmE8gCGwFS6HhGw4rnEB7SR56rmMVZvsUTE
KmK8ybBlnDT8DBpT3yEXu8JtoQrm8bCqRAlQSTh6XXHiMS4ZsN+VQgR9hIjOCiNn
azidFt4G/ihwOKVarvyD7Q==
-----END CERTIFICATE-----
