##
##  DIGITALSIGN GLOBAL ROOT ECDSA CA
##
##  This is a single X.509 certificate for a public Certificate
##  Authority (CA). It was automatically extracted from Mozilla's
##  root CA list (the file `certdata.txt' in security/nss)
##  licensed under the MPL 2.0, http://mozilla.org/MPL/2.0/.
##
##  @generated
##
Certificate:
    Data:
        Version: 3 (0x2)
        Serial Number:
            36:2d:8f:72:88:a2:28:27:e4:00:ff:24:c6:2d:e4:eb:fa:9d:b6:e1
        Signature Algorithm: ecdsa-with-SHA384
        Issuer: C=PT, O=DigitalSign Certificadora Digital, CN=DIGITALSIGN GLOBAL ROOT ECDSA CA
        Validity
            Not Before: Jan 21 11:07:50 2021 GMT
            Not After : Jan 15 11:07:50 2046 GMT
        Subject: C=PT, O=DigitalSign Certificadora Digital, CN=DIGITALSIGN GLOBAL ROOT ECDSA CA
        Subject Public Key Info:
            Public Key Algorithm: id-ecPublicKey
                Public-Key: (384 bit)
                pub:
                    04:6e:0b:a3:ab:33:4d:1c:ea:4a:e8:fc:04:8d:14:
                    a0:7d:f0:08:2c:5f:83:ab:93:d1:d2:7b:ba:d7:49:
                    7d:8f:ec:12:50:5f:d4:b9:cb:e5:f0:f9:33:63:1f:
                    c9:57:ec:40:d8:11:0b:97:e8:52:16:cc:29:8e:f4:
                    06:86:1e:38:dc:3d:57:c4:ee:aa:bd:c8:54:04:26:
                    5a:27:13:51:47:3d:1f:1f:1a:8e:a8:95:a4:33:d0:
                    cc:47:cc:6d:b8:fc:48
                ASN1 OID: secp384r1
                NIST CURVE: P-384
        X509v3 extensions:
            X509v3 Basic Constraints: critical
                CA:TRUE
            X509v3 Authority Key Identifier: 
                CE:AF:4A:8B:1A:75:E2:F1:38:E7:02:F0:16:AD:5E:EA:64:D5:7B:B4
            X509v3 Subject Key Identifier: 
                CE:AF:4A:8B:1A:75:E2:F1:38:E7:02:F0:16:AD:5E:EA:64:D5:7B:B4
            X509v3 Key Usage: critical
                Certificate Sign, CRL Sign
    Signature Algorithm: ecdsa-with-SHA384
    Signature Value:
        30:65:02:30:0a:88:c4:71:9c:44:03:4d:8d:b4:c7:bc:a8:ae:
        d9:30:27:35:6a:6b:16:63:d7:fc:e7:59:e1:a7:89:1b:4c:31:
        9a:23:55:44:e6:f3:43:21:d5:47:27:6f:6d:57:01:aa:02:31:
        00:fb:b2:ea:e2:97:7f:51:b5:9f:48:eb:bc:6f:35:89:a8:64:
        70:ab:57:76:cd:c0:c6:14:60:ca:7f:e2:82:00:73:f7:cc:35:
        ea:8e:24:9b:e5:08:59:c7:04:8c:73:78:fe
SHA1 Fingerprint=67:A8:08:EB:8F:88:F5:80:6C:05:45:1B:17:F3:D7:00:2F:D2:4A:8A
-----BEGIN CERTIFICATE-----
MIICajCCAfCgAwIBAgIUNi2PcoiiKCfkAP8kxi3k6/qdtuEwCgYIKoZIzj0EAwMw
ZDELMAkGA1UEBhMCUFQxKjAoBgNVBAoMIURpZ2l0YWxTaWduIENlcnRpZmljYWRv
cmEgRGlnaXRhbDEpMCcGA1UEAwwgRElHSVRBTFNJR04gR0xPQkFMIFJPT1QgRUNE
U0EgQ0EwHhcNMjEwMTIxMTEwNzUwWhcNNDYwMTE1MTEwNzUwWjBkMQswCQYDVQQG
EwJQVDEqMCgGA1UECgwhRGlnaXRhbFNpZ24gQ2VydGlmaWNhZG9yYSBEaWdpdGFs
MSkwJwYDVQQDDCBESUdJVEFMU0lHTiBHTE9CQUwgUk9PVCBFQ0RTQSBDQTB2MBAG
ByqGSM49AgEGBSuBBAAiA2IABG4Lo6szTRzqSuj8BI0UoH3wCCxfg6uT0dJ7utdJ
fY/sElBf1LnL5fD5M2MfyVfsQNgRC5foUhbMKY70BoYeONw9V8Tuqr3IVAQmWicT
UUc9Hx8ajqiVpDPQzEfMbbj8SKNjMGEwDwYDVR0TAQH/BAUwAwEB/zAfBgNVHSME
GDAWgBTOr0qLGnXi8TjnAvAWrV7qZNV7tDAdBgNVHQ4EFgQUzq9Kixp14vE45wLw
Fq1e6mTVe7QwDgYDVR0PAQH/BAQDAgEGMAoGCCqGSM49BAMDA2gAMGUCMAqIxHGc
RANNjbTHvKiu2TAnNWprFmPX/OdZ4aeJG0wxmiNVRObzQyHVRydvbVcBqgIxAPuy
6uKXf1G1n0jrvG81iahkcKtXds3AxhRgyn/iggBz98w16o4km+UIWccEjHN4/g==
-----END CERTIFICATE-----
