##
##  DigiCert SMIME RSA4096 Root G5
##
##  This is a single X.509 certificate for a public Certificate
##  Authority (CA). It was automatically extracted from Mozilla's
##  root CA list (the file `certdata.txt' in security/nss)
##  licensed under the MPL 2.0, http://mozilla.org/MPL/2.0/.
##
##  @generated
##
Certificate:
    Data:
        Version: 3 (0x2)
        Serial Number:
            05:f6:ba:04:23:83:46:cb:7d:5c:e6:b9:5b:ba:1c:55
        Signature Algorithm: sha384WithRSAEncryption
        Issuer: C=US, O=DigiCert, Inc., CN=DigiCert SMIME RSA4096 Root G5
        Validity
            Not Before: Jan 15 00:00:00 2021 GMT
            Not After : Jan 14 23:59:59 2046 GMT
        Subject: C=US, O=DigiCert, Inc., CN=DigiCert SMIME RSA4096 Root G5
        Subject Public Key Info:
            Public Key Algorithm: rsaEncryption
                Public-Key: (4096 bit)
                Modulus:
                    00:e0:6a:5b:d9:f8:f9:7d:ec:b5:7b:ef:5f:dd:5c:
                    34:d8:da:5d:d1:cb:65:75:ab:21:7c:5b:00:d4:82:
                    6f:45:85:41:8a:a9:12:02:72:32:f0:14:f5:03:75:
                    bb:63:97:49:0f:40:99:0b:1a:1e:56:a7:d2:d0:e1:
                    ab:dd:e5:04:1b:e3:1f:14:12:02:88:f5:a0:80:09:
                    f6:27:9a:50:f0:ba:e3:a2:e0:ac:6a:14:91:b5:6b:
                    38:10:7a:a2:31:e1:91:1b:b7:b9:f0:2b:5b:c8:77:
                    09:76:b7:51:c4:36:0a:99:53:54:44:25:b7:09:35:
                    86:17:05:56:93:3d:41:b7:02:d7:62:1f:8a:92:11:
                    87:ea:11:6d:ea:08:11:dc:b1:78:48:49:92:f6:b4:
                    51:80:78:23:d8:fe:e1:56:1a:3a:90:13:56:34:89:
                    d5:e2:95:8b:5f:de:b2:cc:fb:3f:38:b7:85:f7:ea:
                    9e:bf:2e:a1:2e:2f:4d:7d:6a:11:2e:36:a0:ff:11:
                    08:04:95:55:e0:1b:3b:67:93:a9:94:55:ea:32:ed:
                    06:3a:7f:c2:7f:e3:ad:13:27:d1:34:41:b3:30:c3:
                    bf:b4:88:f8:03:82:a4:df:3e:ab:78:77:a0:59:93:
                    71:e7:dd:eb:00:04:7b:cc:48:39:28:e0:1e:a3:15:
                    69:c8:36:b2:a1:0b:97:df:55:d6:ef:91:9c:a4:f6:
                    16:f7:51:0a:ee:03:23:91:dc:04:ff:e0:dd:38:f6:
                    22:03:00:c2:07:71:1a:12:c9:d7:46:2a:94:1b:cd:
                    d6:bb:1b:ee:bf:be:4d:50:58:b0:0b:cd:30:76:29:
                    f5:cf:e5:b6:6a:2f:76:b0:b0:69:6a:d0:6d:65:18:
                    35:7e:93:bc:72:17:c1:55:42:cd:2f:c2:25:bb:f4:
                    fd:1d:a1:64:22:54:5d:e2:9e:72:41:84:6e:71:96:
                    ea:45:07:b6:5e:7a:4a:86:9d:73:64:77:38:03:d2:
                    0f:53:a5:55:20:c4:4d:ff:68:6f:55:a9:ea:dd:71:
                    e4:4f:d9:85:a3:7c:4e:29:02:9e:0b:09:f2:1a:53:
                    cc:00:a6:dd:d1:34:f6:0d:c1:30:b1:9c:02:64:ac:
                    35:ed:a5:b0:29:b1:d2:95:33:0f:d2:20:33:bd:ec:
                    23:4b:f2:19:f9:da:98:64:e4:2c:31:1f:2e:e1:8d:
                    1c:04:95:28:4d:8c:58:cd:4b:e5:73:82:86:8c:ec:
                    a8:d6:79:5c:fb:64:bb:dc:0c:4c:28:f6:17:af:e2:
                    68:d6:16:86:98:db:fc:01:dc:31:ba:f8:9c:0e:f9:
                    28:46:4a:e1:fd:96:06:45:79:11:68:17:65:5c:8b:
                    26:87:5b
                Exponent: 65537 (0x10001)
        X509v3 extensions:
            X509v3 Subject Key Identifier: 
                D1:A3:D4:57:1D:4F:55:DB:75:4C:5C:42:9E:63:16:CE:B4:C6:3B:1F
            X509v3 Key Usage: critical
                Digital Signature, Certificate Sign, CRL Sign
            X509v3 Basic Constraints: critical
                CA:TRUE
    Signature Algorithm: sha384WithRSAEncryption
    Signature Value:
        07:a7:0a:de:53:bb:9a:eb:70:bf:b2:36:90:cd:e4:a7:b8:f1:
        0c:e4:5d:5a:1d:78:65:fc:c9:b8:1e:23:11:57:7c:69:35:6d:
        01:ff:53:50:bf:07:0e:ba:c7:01:3f:58:2a:94:75:03:ab:1c:
        0b:23:dc:1b:8a:1e:37:3d:1d:58:8f:73:d9:b3:2a:6f:df:10:
        a0:5b:0c:a7:ca:b0:7f:b9:24:a2:01:35:32:e5:5e:46:41:eb:
        d8:7f:73:e7:42:e9:a4:51:26:77:81:0a:a8:eb:0f:0a:50:9d:
        7e:8a:20:67:fc:0b:8e:3a:11:d3:c5:8c:60:18:d9:4b:b1:fc:
        d4:f1:b4:49:4e:ae:87:e1:d1:fb:76:a1:5f:f3:06:cf:97:96:
        0c:e9:9e:75:81:5c:53:0d:22:fc:36:e6:49:6e:74:db:00:85:
        8d:7c:22:a0:8e:fb:10:4c:d4:62:13:5b:ef:4b:72:26:8b:fc:
        4e:8a:8f:fe:97:10:53:c5:78:8b:42:64:1b:5f:e0:89:fd:bb:
        09:7f:50:e0:54:85:26:11:6a:1d:65:f9:49:29:dc:7c:36:df:
        fb:3d:f7:d2:ac:ee:32:8d:6e:a6:7d:39:9c:45:c4:ca:0d:f5:
        3b:b4:79:53:a5:2f:56:c7:51:c5:8a:4c:64:5d:90:43:23:8e:
        6b:4c:17:78:cc:e8:bf:f5:3b:e4:a8:48:cf:ad:9b:0c:df:32:
        4a:d3:d9:12:8e:23:78:0d:2d:af:9f:af:9e:3c:09:c2:97:00:
        ed:3a:69:1c:71:3f:39:df:d3:8f:c4:66:f5:ef:36:94:0f:f3:
        dd:92:b6:96:5f:90:a6:dd:73:aa:a6:20:94:94:25:6a:09:0c:
        72:e4:13:23:60:4c:a3:ca:17:2e:7b:67:00:db:d0:cd:ea:7a:
        1f:39:26:57:89:30:77:cb:4e:e5:95:45:4f:5f:fb:36:5c:3d:
        f9:20:b5:3a:10:25:4f:93:32:5a:ee:c1:96:e8:e9:56:04:b0:
        49:61:4d:ec:78:a8:9d:18:c1:ff:d8:ea:2f:56:ef:95:2b:7b:
        04:5e:67:e3:55:40:ed:39:04:f9:0b:79:f5:6a:8c:5c:0f:89:
        9a:90:c7:cd:8b:de:db:26:35:a1:6e:cd:b3:42:f2:a2:0f:3b:
        0c:8e:93:ff:14:cf:fc:f7:93:f7:e4:41:08:6e:19:52:11:0f:
        53:19:73:78:0c:cf:d8:85:81:f8:ad:55:c8:b0:9e:46:63:af:
        9c:52:ee:5c:bf:f0:c0:5b:37:1e:09:20:d2:3e:23:c6:a1:15:
        4a:0e:36:7e:30:c5:79:6a:bc:22:88:d9:0c:52:40:1f:dd:4e:
        0f:67:26:16:d2:ad:17:1c
SHA1 Fingerprint=5B:C5:AD:E2:9A:A7:54:DA:84:89:53:A5:FE:D7:5B:46:86:D0:57:08
-----BEGIN CERTIFICATE-----
MIIFajCCA1KgAwIBAgIQBfa6BCODRst9XOa5W7ocVTANBgkqhkiG9w0BAQwFADBP
MQswCQYDVQQGEwJVUzEXMBUGA1UEChMORGlnaUNlcnQsIEluYy4xJzAlBgNVBAMT
HkRpZ2lDZXJ0IFNNSU1FIFJTQTQwOTYgUm9vdCBHNTAeFw0yMTAxMTUwMDAwMDBa
Fw00NjAxMTQyMzU5NTlaME8xCzAJBgNVBAYTAlVTMRcwFQYDVQQKEw5EaWdpQ2Vy
dCwgSW5jLjEnMCUGA1UEAxMeRGlnaUNlcnQgU01JTUUgUlNBNDA5NiBSb290IEc1
MIICIjANBgkqhkiG9w0BAQEFAAOCAg8AMIICCgKCAgEA4Gpb2fj5fey1e+9f3Vw0
2Npd0ctldashfFsA1IJvRYVBiqkSAnIy8BT1A3W7Y5dJD0CZCxoeVqfS0OGr3eUE
G+MfFBICiPWggAn2J5pQ8LrjouCsahSRtWs4EHqiMeGRG7e58CtbyHcJdrdRxDYK
mVNURCW3CTWGFwVWkz1BtwLXYh+KkhGH6hFt6ggR3LF4SEmS9rRRgHgj2P7hVho6
kBNWNInV4pWLX96yzPs/OLeF9+qevy6hLi9NfWoRLjag/xEIBJVV4Bs7Z5OplFXq
Mu0GOn/Cf+OtEyfRNEGzMMO/tIj4A4Kk3z6reHegWZNx593rAAR7zEg5KOAeoxVp
yDayoQuX31XW75GcpPYW91EK7gMjkdwE/+DdOPYiAwDCB3EaEsnXRiqUG83Wuxvu
v75NUFiwC80wdin1z+W2ai92sLBpatBtZRg1fpO8chfBVULNL8Ilu/T9HaFkIlRd
4p5yQYRucZbqRQe2XnpKhp1zZHc4A9IPU6VVIMRN/2hvVanq3XHkT9mFo3xOKQKe
CwnyGlPMAKbd0TT2DcEwsZwCZKw17aWwKbHSlTMP0iAzvewjS/IZ+dqYZOQsMR8u
4Y0cBJUoTYxYzUvlc4KGjOyo1nlc+2S73AxMKPYXr+Jo1haGmNv8AdwxuvicDvko
Rkrh/ZYGRXkRaBdlXIsmh1sCAwEAAaNCMEAwHQYDVR0OBBYEFNGj1FcdT1XbdUxc
Qp5jFs60xjsfMA4GA1UdDwEB/wQEAwIBhjAPBgNVHRMBAf8EBTADAQH/MA0GCSqG
SIb3DQEBDAUAA4ICAQAHpwreU7ua63C/sjaQzeSnuPEM5F1aHXhl/Mm4HiMRV3xp
NW0B/1NQvwcOuscBP1gqlHUDqxwLI9wbih43PR1Yj3PZsypv3xCgWwynyrB/uSSi
ATUy5V5GQevYf3PnQumkUSZ3gQqo6w8KUJ1+iiBn/AuOOhHTxYxgGNlLsfzU8bRJ
Tq6H4dH7dqFf8wbPl5YM6Z51gVxTDSL8NuZJbnTbAIWNfCKgjvsQTNRiE1vvS3Im
i/xOio/+lxBTxXiLQmQbX+CJ/bsJf1DgVIUmEWodZflJKdx8Nt/7PffSrO4yjW6m
fTmcRcTKDfU7tHlTpS9Wx1HFikxkXZBDI45rTBd4zOi/9TvkqEjPrZsM3zJK09kS
jiN4DS2vn6+ePAnClwDtOmkccT8539OPxGb17zaUD/PdkraWX5Cm3XOqpiCUlCVq
CQxy5BMjYEyjyhcue2cA29DN6nofOSZXiTB3y07llUVPX/s2XD35ILU6ECVPkzJa
7sGW6OlWBLBJYU3seKidGMH/2OovVu+VK3sEXmfjVUDtOQT5C3n1aoxcD4makMfN
i97bJjWhbs2zQvKiDzsMjpP/FM/895P35EEIbhlSEQ9TGXN4DM/YhYH4rVXIsJ5G
Y6+cUu5cv/DAWzceCSDSPiPGoRVKDjZ+MMV5arwiiNkMUkAf3U4PZyYW0q0XHA==
-----END CERTIFICATE-----
