##
##  DigiCert SMIME ECC P384 Root G5
##
##  This is a single X.509 certificate for a public Certificate
##  Authority (CA). It was automatically extracted from Mozilla's
##  root CA list (the file `certdata.txt' in security/nss)
##  licensed under the MPL 2.0, http://mozilla.org/MPL/2.0/.
##
##  @generated
##
Certificate:
    Data:
        Version: 3 (0x2)
        Serial Number:
            05:3f:6e:a0:06:01:72:7d:ed:3f:c3:a3:b6:a3:d6:ef
        Signature Algorithm: ecdsa-with-SHA384
        Issuer: C=US, O=DigiCert, Inc., CN=DigiCert SMIME ECC P384 Root G5
        Validity
            Not Before: Jan 15 00:00:00 2021 GMT
            Not After : Jan 14 23:59:59 2046 GMT
        Subject: C=US, O=DigiCert, Inc., CN=DigiCert SMIME ECC P384 Root G5
        Subject Public Key Info:
            Public Key Algorithm: id-ecPublicKey
                Public-Key: (384 bit)
                pub:
                    04:16:9d:55:e5:b6:d4:fb:fb:67:6b:1a:d4:a1:aa:
                    d2:77:95:3e:88:e5:07:9f:b6:70:66:20:28:a4:88:
                    ec:70:35:af:b3:32:ff:37:13:4a:9e:bc:01:03:de:
                    84:c1:b8:c6:e6:65:47:89:f2:13:55:bf:cd:a5:1e:
                    08:60:7f:ad:7f:e8:61:92:29:cf:09:47:5e:0b:1c:
                    c0:1f:a4:bf:f2:5b:bc:98:ef:99:4c:cc:70:6b:b6:
                    ba:d0:28:1d:bf:be:04
                ASN1 OID: secp384r1
                NIST CURVE: P-384
        X509v3 extensions:
            X509v3 Subject Key Identifier: 
                73:7A:6B:96:DB:42:07:8B:52:66:C2:64:32:17:FE:E0:67:90:2E:AD
            X509v3 Key Usage: critical
                Digital Signature, Certificate Sign, CRL Sign
            X509v3 Basic Constraints: critical
                CA:TRUE
    Signature Algorithm: ecdsa-with-SHA384
    Signature Value:
        30:64:02:30:37:44:f5:32:80:e3:71:eb:f4:6d:cf:7c:cc:91:
        9a:c3:6e:71:d8:d2:23:5d:92:4d:82:42:6d:5c:61:95:f6:91:
        f5:a7:08:f6:6a:97:e9:9c:94:2d:98:70:fd:33:b6:09:02:30:
        07:3c:2f:b9:58:82:5e:0f:a3:62:a8:93:67:f0:20:c3:69:bf:
        03:2c:3b:50:a7:3b:af:41:38:c9:52:48:91:d6:0e:fb:bc:60:
        30:7c:64:3f:12:1e:45:7f:51:3e:f4:a6
SHA1 Fingerprint=1C:B8:A7:08:C9:0D:20:79:01:A0:B2:36:7F:F0:95:65:E4:53:24:FE
-----BEGIN CERTIFICATE-----
MIICHDCCAaOgAwIBAgIQBT9uoAYBcn3tP8OjtqPW7zAKBggqhkjOPQQDAzBQMQsw
CQYDVQQGEwJVUzEXMBUGA1UEChMORGlnaUNlcnQsIEluYy4xKDAmBgNVBAMTH0Rp
Z2lDZXJ0IFNNSU1FIEVDQyBQMzg0IFJvb3QgRzUwHhcNMjEwMTE1MDAwMDAwWhcN
NDYwMTE0MjM1OTU5WjBQMQswCQYDVQQGEwJVUzEXMBUGA1UEChMORGlnaUNlcnQs
IEluYy4xKDAmBgNVBAMTH0RpZ2lDZXJ0IFNNSU1FIEVDQyBQMzg0IFJvb3QgRzUw
djAQBgcqhkjOPQIBBgUrgQQAIgNiAAQWnVXlttT7+2drGtShqtJ3lT6I5QeftnBm
ICikiOxwNa+zMv83E0qevAED3oTBuMbmZUeJ8hNVv82lHghgf61/6GGSKc8JR14L
HMAfpL/yW7yY75lMzHBrtrrQKB2/vgSjQjBAMB0GA1UdDgQWBBRzemuW20IHi1Jm
wmQyF/7gZ5AurTAOBgNVHQ8BAf8EBAMCAYYwDwYDVR0TAQH/BAUwAwEB/zAKBggq
hkjOPQQDAwNnADBkAjA3RPUygONx6/Rtz3zMkZrDbnHY0iNdkk2CQm1cYZX2kfWn
CPZql+mclC2YcP0ztgkCMAc8L7lYgl4Po2Kok2fwIMNpvwMsO1CnO69BOMlSSJHW
Dvu8YDB8ZD8SHkV/UT70pg==
-----END CERTIFICATE-----
