##
##  DIGITALSIGN GLOBAL ROOT RSA CA
##
##  This is a single X.509 certificate for a public Certificate
##  Authority (CA). It was automatically extracted from Mozilla's
##  root CA list (the file `certdata.txt' in security/nss)
##  licensed under the MPL 2.0, http://mozilla.org/MPL/2.0/.
##
##  @generated
##
Certificate:
    Data:
        Version: 3 (0x2)
        Serial Number:
            5d:59:c8:ca:ab:09:57:f5:e6:b5:da:29:94:04:6a:ff:c5:d4:95:87
        Signature Algorithm: sha512WithRSAEncryption
        Issuer: C=PT, O=DigitalSign Certificadora Digital, CN=DIGITALSIGN GLOBAL ROOT RSA CA
        Validity
            Not Before: Jan 21 10:50:34 2021 GMT
            Not After : Jan 15 10:50:34 2046 GMT
        Subject: C=PT, O=DigitalSign Certificadora Digital, CN=DIGITALSIGN GLOBAL ROOT RSA CA
        Subject Public Key Info:
            Public Key Algorithm: rsaEncryption
                Public-Key: (4096 bit)
                Modulus:
                    00:c8:87:b6:38:d3:1c:f0:de:12:f8:83:c7:c4:8a:
                    e2:89:b8:b4:22:7a:78:f8:0c:66:51:68:76:37:0a:
                    d5:4f:c2:5a:08:b8:16:5c:f7:72:01:09:37:84:81:
                    2a:54:6b:d7:92:d0:6c:fa:a8:a7:43:12:34:eb:0e:
                    db:37:0f:29:fe:8a:31:51:42:e8:4b:9c:90:a8:c8:
                    2c:11:d3:fd:a0:29:7e:ce:de:94:f6:82:e0:58:b4:
                    4e:45:25:f1:22:f2:3d:d3:0f:7b:54:1a:dc:32:b6:
                    d6:51:4e:7e:41:b4:57:b8:2c:c6:b9:0e:2e:ca:57:
                    f1:d5:c8:d3:58:e7:a5:e9:42:11:ae:d3:20:25:94:
                    69:d7:8f:ca:a2:0d:c3:d3:9f:07:68:3f:15:d2:67:
                    2e:53:fd:76:82:9b:0b:73:a9:29:0d:9e:11:93:14:
                    08:98:ec:9e:54:12:4a:56:a2:06:15:ec:6b:6c:2e:
                    92:60:2e:86:0d:ae:82:1f:51:4d:e3:b2:07:d7:10:
                    19:57:22:f6:a9:69:44:84:f3:d9:3d:a0:06:bf:cc:
                    88:7e:7f:f5:ce:5b:a5:c2:2a:6a:74:42:ea:6f:a6:
                    ff:f9:68:b1:d0:5f:bd:91:d2:55:6f:33:57:4c:1e:
                    9d:e4:e2:8b:c1:85:65:a0:e0:6a:9c:00:00:88:92:
                    dd:58:08:16:f2:70:31:a8:1c:e1:de:bd:4e:71:e9:
                    d6:be:7e:b5:a1:5a:c3:4d:f7:bf:9b:bd:94:a4:fd:
                    f5:aa:53:93:46:c9:26:01:04:70:c4:a0:71:ba:ce:
                    25:66:fb:91:7e:55:70:ee:49:0a:4d:62:7f:c2:50:
                    9a:72:f2:18:67:9d:e9:45:a8:34:84:e8:f8:81:f6:
                    d1:5a:22:1e:07:4f:3b:b3:7f:dd:11:a5:73:dc:be:
                    a9:19:3a:69:a9:6d:1b:32:e2:89:aa:a5:27:0b:5a:
                    7e:74:e2:0f:64:39:5d:7e:5c:b9:c1:17:fc:c7:8d:
                    5e:c9:ec:24:ed:d2:f2:3f:7a:84:45:37:02:be:3e:
                    6b:59:c4:e6:5b:16:6d:c0:aa:9e:aa:b5:59:2e:2c:
                    70:55:9c:cc:99:96:98:24:54:d1:8e:da:ca:b4:11:
                    b4:b7:70:43:1f:6f:90:0b:20:a0:a8:76:13:65:db:
                    db:23:5a:75:4b:a1:0b:31:77:0a:ee:7d:68:61:1a:
                    13:8c:ea:51:7e:5c:56:a3:57:4c:5d:a1:eb:13:65:
                    bf:54:14:cc:f3:ee:dc:d7:ec:3c:97:f2:78:56:b8:
                    df:72:5c:70:fc:ce:06:dd:9f:d2:07:31:ef:e7:52:
                    91:9e:cd:ba:d7:c0:18:44:07:31:65:49:32:69:13:
                    4a:eb:8f
                Exponent: 65537 (0x10001)
        X509v3 extensions:
            X509v3 Basic Constraints: critical
                CA:TRUE
            X509v3 Authority Key Identifier: 
                B5:36:BC:3C:8C:1A:AB:2C:F6:59:19:2D:83:14:DA:93:25:15:D6:86
            X509v3 Subject Key Identifier: 
                B5:36:BC:3C:8C:1A:AB:2C:F6:59:19:2D:83:14:DA:93:25:15:D6:86
            X509v3 Key Usage: critical
                Certificate Sign, CRL Sign
    Signature Algorithm: sha512WithRSAEncryption
    Signature Value:
        14:fb:31:25:38:31:f8:ca:08:b2:23:76:38:ad:f8:d3:59:f5:
        cc:b4:57:25:e1:44:be:7e:fc:16:ec:ae:fa:26:9f:4f:67:16:
        4a:56:f0:fd:ed:c7:19:01:34:8e:90:5a:2d:d6:80:5c:ec:71:
        d2:81:25:82:1e:00:71:df:9a:d1:d5:1d:22:bb:d1:a5:f3:62:
        0f:b4:eb:dc:24:73:fe:a6:56:cd:9a:14:c5:04:35:16:31:a2:
        07:eb:a5:00:e2:b6:f8:5f:72:fd:3f:61:49:8e:de:7e:4d:38:
        d7:7a:1e:74:37:6c:51:dc:be:00:04:b8:38:14:f3:20:c1:ed:
        9b:a7:23:fd:0d:42:84:1d:7f:f2:73:c3:d0:78:63:f1:9f:ec:
        d7:5b:e9:f1:be:6c:a0:4b:03:9e:8d:69:e1:14:da:88:10:81:
        23:53:ff:da:54:2b:0b:c6:b9:96:95:04:18:46:f3:7b:a8:97:
        d8:5b:68:a4:e4:38:1c:0e:45:e5:98:d3:09:ae:9a:5e:ec:b3:
        79:0d:39:72:f2:f4:94:9d:0e:9e:60:22:e6:a8:f6:4c:85:cd:
        07:82:3a:68:39:cd:3d:5f:e3:38:f4:b6:af:3b:6b:4a:9f:60:
        51:45:a2:40:02:e5:aa:0c:e3:3e:d1:78:d4:a2:74:9c:26:ba:
        05:9a:28:70:4a:3e:a6:0b:d0:1d:49:f0:ba:f8:ae:41:10:7e:
        a4:07:12:bd:a8:cf:29:3d:57:bb:c7:f1:43:47:00:3e:ae:70:
        18:5a:20:7b:09:cb:3a:3a:70:80:e5:4c:60:98:c1:15:c1:1d:
        4a:f7:c8:f0:9b:e1:72:ad:e7:5d:68:58:0b:04:b1:8c:bc:9f:
        b7:fb:6e:8b:5b:04:55:fb:eb:23:55:d7:78:50:da:25:cb:be:
        27:36:bb:24:1a:79:1c:51:d1:fe:13:bb:ff:78:2c:dc:a4:be:
        2f:f6:c5:4b:53:cf:a7:4c:99:5e:70:ac:59:88:04:ae:64:04:
        bf:7b:a6:7a:4d:d3:e8:77:bd:a1:7e:50:15:f3:ef:49:30:85:
        4d:21:57:aa:db:2c:75:97:ad:81:01:87:a2:b1:70:9d:1e:06:
        5a:03:60:b1:3f:a6:6d:82:2c:d4:14:b1:81:a5:e8:3d:88:1d:
        b4:72:2c:58:37:8a:8e:38:94:b8:73:dd:a9:e0:b8:f6:77:a2:
        b3:7c:58:de:ae:69:3a:b5:8b:a5:1a:bb:f2:d8:74:06:9c:fd:
        62:73:20:21:76:b1:7e:70:9e:19:d4:eb:17:62:19:38:99:cd:
        36:2b:47:fe:31:cb:df:b9:e4:ac:08:d3:d8:a6:eb:d4:9e:7e:
        4b:64:a4:55:5d:2b:17:c9
SHA1 Fingerprint=B9:82:07:97:AE:52:A5:68:6F:46:07:DF:FD:03:72:3D:92:86:88:2D
-----BEGIN CERTIFICATE-----
MIIFtTCCA52gAwIBAgIUXVnIyqsJV/XmtdoplARq/8XUlYcwDQYJKoZIhvcNAQEN
BQAwYjELMAkGA1UEBhMCUFQxKjAoBgNVBAoMIURpZ2l0YWxTaWduIENlcnRpZmlj
YWRvcmEgRGlnaXRhbDEnMCUGA1UEAwweRElHSVRBTFNJR04gR0xPQkFMIFJPT1Qg
UlNBIENBMB4XDTIxMDEyMTEwNTAzNFoXDTQ2MDExNTEwNTAzNFowYjELMAkGA1UE
BhMCUFQxKjAoBgNVBAoMIURpZ2l0YWxTaWduIENlcnRpZmljYWRvcmEgRGlnaXRh
bDEnMCUGA1UEAwweRElHSVRBTFNJR04gR0xPQkFMIFJPT1QgUlNBIENBMIICIjAN
BgkqhkiG9w0BAQEFAAOCAg8AMIICCgKCAgEAyIe2ONMc8N4S+IPHxIriibi0Inp4
+AxmUWh2NwrVT8JaCLgWXPdyAQk3hIEqVGvXktBs+qinQxI06w7bNw8p/ooxUULo
S5yQqMgsEdP9oCl+zt6U9oLgWLRORSXxIvI90w97VBrcMrbWUU5+QbRXuCzGuQ4u
ylfx1cjTWOel6UIRrtMgJZRp14/Kog3D058HaD8V0mcuU/12gpsLc6kpDZ4RkxQI
mOyeVBJKVqIGFexrbC6SYC6GDa6CH1FN47IH1xAZVyL2qWlEhPPZPaAGv8yIfn/1
zlulwipqdELqb6b/+Wix0F+9kdJVbzNXTB6d5OKLwYVloOBqnAAAiJLdWAgW8nAx
qBzh3r1OcenWvn61oVrDTfe/m72UpP31qlOTRskmAQRwxKBxus4lZvuRflVw7kkK
TWJ/wlCacvIYZ53pRag0hOj4gfbRWiIeB087s3/dEaVz3L6pGTppqW0bMuKJqqUn
C1p+dOIPZDldfly5wRf8x41eyewk7dLyP3qERTcCvj5rWcTmWxZtwKqeqrVZLixw
VZzMmZaYJFTRjtrKtBG0t3BDH2+QCyCgqHYTZdvbI1p1S6ELMXcK7n1oYRoTjOpR
flxWo1dMXaHrE2W/VBTM8+7c1+w8l/J4Vrjfclxw/M4G3Z/SBzHv51KRns2618AY
RAcxZUkyaRNK648CAwEAAaNjMGEwDwYDVR0TAQH/BAUwAwEB/zAfBgNVHSMEGDAW
gBS1Nrw8jBqrLPZZGS2DFNqTJRXWhjAdBgNVHQ4EFgQUtTa8PIwaqyz2WRktgxTa
kyUV1oYwDgYDVR0PAQH/BAQDAgEGMA0GCSqGSIb3DQEBDQUAA4ICAQAU+zElODH4
ygiyI3Y4rfjTWfXMtFcl4US+fvwW7K76Jp9PZxZKVvD97ccZATSOkFot1oBc7HHS
gSWCHgBx35rR1R0iu9Gl82IPtOvcJHP+plbNmhTFBDUWMaIH66UA4rb4X3L9P2FJ
jt5+TTjXeh50N2xR3L4ABLg4FPMgwe2bpyP9DUKEHX/yc8PQeGPxn+zXW+nxvmyg
SwOejWnhFNqIEIEjU//aVCsLxrmWlQQYRvN7qJfYW2ik5DgcDkXlmNMJrppe7LN5
DTly8vSUnQ6eYCLmqPZMhc0HgjpoOc09X+M49LavO2tKn2BRRaJAAuWqDOM+0XjU
onScJroFmihwSj6mC9AdSfC6+K5BEH6kBxK9qM8pPVe7x/FDRwA+rnAYWiB7Ccs6
OnCA5UxgmMEVwR1K98jwm+FyreddaFgLBLGMvJ+3+26LWwRV++sjVdd4UNoly74n
NrskGnkcUdH+E7v/eCzcpL4v9sVLU8+nTJlecKxZiASuZAS/e6Z6TdPod72hflAV
8+9JMIVNIVeq2yx1l62BAYeisXCdHgZaA2CxP6ZtgizUFLGBpeg9iB20cixYN4qO
OJS4c92p4Lj2d6KzfFjermk6tYulGrvy2HQGnP1icyAhdrF+cJ4Z1OsXYhk4mc02
K0f+McvfueSsCNPYpuvUnn5LZKRVXSsXyQ==
-----END CERTIFICATE-----
