##
##  E-Tugra Global Root CA ECC v3
##
##  This is a single X.509 certificate for a public Certificate
##  Authority (CA). It was automatically extracted from Mozilla's
##  root CA list (the file `certdata.txt' in security/nss).
##
##  It contains a certificate trusted for server authentication.
##
##  Extracted from nss
##
##  @generated
##
Certificate:
    Data:
        Version: 3 (0x2)
        Serial Number:
            26:46:19:77:31:e1:4f:6f:28:36:de:39:51:86:e6:d4:97:88:22:c1
        Signature Algorithm: ecdsa-with-SHA384
        Issuer: C = TR, L = Ankara, O = E-Tugra EBG A.S., OU = E-Tugra Trust Center, CN = E-Tugra Global Root CA ECC v3
        Validity
            Not Before: Mar 18 09:46:58 2020 GMT
            Not After : Mar 12 09:46:58 2045 GMT
        Subject: C = TR, L = Ankara, O = E-Tugra EBG A.S., OU = E-Tugra Trust Center, CN = E-Tugra Global Root CA ECC v3
        Subject Public Key Info:
            Public Key Algorithm: id-ecPublicKey
                Public-Key: (384 bit)
                pub:
                    04:8e:98:29:bf:c7:10:1e:27:db:ab:03:cc:28:2c:
                    d8:5e:48:19:10:29:cc:cb:59:81:cc:8c:b8:92:17:
                    89:83:2a:92:f6:c3:a4:1d:4c:62:d5:9f:d6:a0:46:
                    dc:1c:bc:76:c1:e3:47:d0:5b:13:da:e7:a5:b3:66:
                    48:e7:21:9a:4a:4f:86:0a:7d:6c:ea:4d:32:80:0a:
                    b2:7a:09:9b:69:4b:98:81:e2:2e:ec:02:70:96:1f:
                    fd:f5:46:ce:ca:dc:82
                ASN1 OID: secp384r1
                NIST CURVE: P-384
        X509v3 extensions:
            X509v3 Basic Constraints: critical
                CA:TRUE
            X509v3 Authority Key Identifier: 
                FF:82:31:72:3E:F9:C4:66:6C:AD:38:9E:D1:B0:51:88:A5:90:CC:F5
            X509v3 Subject Key Identifier: 
                FF:82:31:72:3E:F9:C4:66:6C:AD:38:9E:D1:B0:51:88:A5:90:CC:F5
            X509v3 Key Usage: critical
                Certificate Sign, CRL Sign
    Signature Algorithm: ecdsa-with-SHA384
    Signature Value:
        30:66:02:31:00:e6:05:58:69:61:e5:2d:ca:0d:cb:f1:19:08:
        bd:d6:fd:51:92:1a:7e:63:54:04:90:91:9a:35:91:39:99:fa:
        07:a9:66:93:ba:c8:68:d4:8a:3f:fa:ed:6e:16:02:27:b7:02:
        31:00:dd:5a:17:2b:76:1d:65:42:96:a6:ac:5d:8a:79:56:d8:
        8a:1b:df:9a:de:5f:c7:50:8f:b1:5b:71:0c:26:df:6a:40:00:
        ec:33:91:21:71:be:68:e4:23:a4:d9:ad:a1:37
SHA1 Fingerprint=8A:2F:AF:57:53:B1:B0:E6:A1:04:EC:5B:6A:69:71:6D:F6:1C:E2:84
-----BEGIN CERTIFICATE-----
MIICpTCCAiqgAwIBAgIUJkYZdzHhT28oNt45UYbm1JeIIsEwCgYIKoZIzj0EAwMw
gYAxCzAJBgNVBAYTAlRSMQ8wDQYDVQQHEwZBbmthcmExGTAXBgNVBAoTEEUtVHVn
cmEgRUJHIEEuUy4xHTAbBgNVBAsTFEUtVHVncmEgVHJ1c3QgQ2VudGVyMSYwJAYD
VQQDEx1FLVR1Z3JhIEdsb2JhbCBSb290IENBIEVDQyB2MzAeFw0yMDAzMTgwOTQ2
NThaFw00NTAzMTIwOTQ2NThaMIGAMQswCQYDVQQGEwJUUjEPMA0GA1UEBxMGQW5r
YXJhMRkwFwYDVQQKExBFLVR1Z3JhIEVCRyBBLlMuMR0wGwYDVQQLExRFLVR1Z3Jh
IFRydXN0IENlbnRlcjEmMCQGA1UEAxMdRS1UdWdyYSBHbG9iYWwgUm9vdCBDQSBF
Q0MgdjMwdjAQBgcqhkjOPQIBBgUrgQQAIgNiAASOmCm/xxAeJ9urA8woLNheSBkQ
KczLWYHMjLiSF4mDKpL2w6QdTGLVn9agRtwcvHbB40fQWxPa56WzZkjnIZpKT4YK
fWzqTTKACrJ6CZtpS5iB4i7sAnCWH/31Rs7K3IKjYzBhMA8GA1UdEwEB/wQFMAMB
Af8wHwYDVR0jBBgwFoAU/4Ixcj75xGZsrTie0bBRiKWQzPUwHQYDVR0OBBYEFP+C
MXI++cRmbK04ntGwUYilkMz1MA4GA1UdDwEB/wQEAwIBBjAKBggqhkjOPQQDAwNp
ADBmAjEA5gVYaWHlLcoNy/EZCL3W/VGSGn5jVASQkZo1kTmZ+gepZpO6yGjUij/6
7W4WAie3AjEA3VoXK3YdZUKWpqxdinlW2Iob35reX8dQj7FbcQwm32pAAOwzkSFx
vmjkI6TZraE3
-----END CERTIFICATE-----
