##
##  GlobalSign Secure Mail Root R45
##
##  This is a single X.509 certificate for a public Certificate
##  Authority (CA). It was automatically extracted from Mozilla's
##  root CA list (the file `certdata.txt' in security/nss)
##  licensed under the MPL 2.0, http://mozilla.org/MPL/2.0/.
##
##  @generated
##
Certificate:
    Data:
        Version: 3 (0x2)
        Serial Number:
            76:53:fe:a8:4c:50:ab:9f:8d:32:b5:1d:03:8f:57:dc
        Signature Algorithm: sha384WithRSAEncryption
        Issuer: C=BE, O=GlobalSign nv-sa, CN=GlobalSign Secure Mail Root R45
        Validity
            Not Before: Mar 18 00:00:00 2020 GMT
            Not After : Mar 18 00:00:00 2045 GMT
        Subject: C=BE, O=GlobalSign nv-sa, CN=GlobalSign Secure Mail Root R45
        Subject Public Key Info:
            Public Key Algorithm: rsaEncryption
                Public-Key: (4096 bit)
                Modulus:
                    00:dc:79:cc:6d:06:f9:6d:bb:e0:56:04:6c:7f:e0:
                    75:cc:2d:05:49:e8:4b:dc:54:ec:5b:77:95:72:bf:
                    7f:62:9d:85:a9:8a:24:50:5f:53:e5:db:74:6f:a4:
                    29:5b:13:2a:09:ad:9a:c5:2f:c2:f7:76:3b:a1:45:
                    46:aa:43:e6:24:fe:2b:b0:6f:32:70:19:46:5a:79:
                    26:2f:fc:3d:7d:5f:64:cb:57:cc:61:61:a8:d9:95:
                    6e:e3:95:a0:6e:7f:47:12:18:d6:ef:03:c9:fb:8a:
                    fa:9a:bd:82:15:a9:55:77:4b:11:4f:59:e0:6b:c3:
                    71:f3:0c:d8:54:d5:81:68:3e:13:b9:15:2e:87:8a:
                    3c:44:27:36:62:24:6e:f8:2c:05:72:30:61:bd:42:
                    91:23:c4:9d:25:a7:d9:54:9a:14:a3:31:ad:80:79:
                    0c:a7:63:6c:98:a3:ac:57:47:33:1f:65:96:e1:d0:
                    d2:35:da:f9:71:f7:a1:a6:25:b5:41:5d:df:3e:60:
                    d8:d1:f6:9f:a5:f2:b8:cc:13:aa:8f:f9:b2:6e:e1:
                    83:2d:93:dd:3e:85:1a:dd:e8:b1:5c:26:01:cb:49:
                    85:fc:fc:d2:d4:7f:85:62:86:74:f9:cb:ec:35:22:
                    a2:0c:30:8f:3b:ab:79:eb:56:f2:fa:42:f3:ed:f9:
                    1f:45:89:40:29:ad:ea:92:74:ea:52:fd:56:b4:2b:
                    da:a2:ed:75:c2:6e:ab:ce:52:90:4b:f6:de:f0:49:
                    8f:9a:48:d4:88:19:6d:45:e6:cc:8c:b9:dd:64:60:
                    60:02:40:f8:b9:cf:bc:58:eb:3d:85:b9:c6:0a:d3:
                    9c:07:66:8f:c7:18:39:23:46:e1:3c:1e:a3:2f:50:
                    61:92:0b:3d:2b:6c:f1:a3:47:38:57:91:ab:0d:8f:
                    c6:9d:4d:04:d2:26:52:5c:e5:a5:fd:2a:2d:16:2a:
                    01:69:e7:a9:7d:e1:36:b7:b1:2a:c5:d9:b1:8d:bd:
                    b9:8b:ce:cc:8b:a1:3e:0b:48:cd:50:95:34:c4:d8:
                    08:59:d8:6b:26:f4:be:f5:d4:22:17:00:57:c9:ae:
                    9b:04:30:33:9f:0b:fb:df:56:a2:c9:6e:54:76:da:
                    b1:97:62:27:59:0f:11:8a:22:1b:64:96:3f:a8:f1:
                    b7:24:4a:8d:3c:53:7c:6d:83:76:3d:b2:26:48:73:
                    f5:44:16:01:2d:09:2a:8e:16:96:50:d0:73:06:5d:
                    bb:22:48:82:4c:0a:46:5a:3f:80:ff:5c:f2:f2:9a:
                    ac:2c:08:e0:d6:ea:f0:12:38:81:4f:a6:10:ed:46:
                    ab:cc:16:9c:0b:cf:64:a6:99:02:85:44:67:46:ad:
                    fd:4d:e7
                Exponent: 65537 (0x10001)
        X509v3 extensions:
            X509v3 Key Usage: critical
                Digital Signature, Certificate Sign, CRL Sign
            X509v3 Basic Constraints: critical
                CA:TRUE
            X509v3 Subject Key Identifier: 
                A0:93:15:28:6E:EE:8F:08:B2:35:C6:9E:62:79:74:A7:B1:0E:2B:7B
    Signature Algorithm: sha384WithRSAEncryption
    Signature Value:
        45:0a:f8:d1:5c:ac:62:81:d0:04:d7:b6:ff:57:51:89:0b:0c:
        cb:de:24:65:37:fb:ab:9e:ed:66:f4:ea:0c:19:69:89:b8:19:
        b1:30:56:b4:d9:f6:f7:be:c6:ae:97:cb:45:f6:11:8c:3a:30:
        64:4c:c1:9f:59:c0:46:42:08:06:47:64:17:78:e0:95:07:06:
        d6:8c:a2:ac:a9:d9:3f:d3:7b:56:4f:fc:c4:87:28:df:b6:2b:
        16:23:c0:9f:1f:5b:e3:d6:44:5e:22:4f:23:04:8c:35:16:b5:
        79:07:86:5c:2f:97:e2:f6:08:64:a6:dc:db:a8:8a:e3:a4:7b:
        77:0d:d1:29:93:28:20:b4:53:a3:4b:4e:5f:de:c1:f6:75:23:
        fc:1f:3c:78:4f:70:31:78:2f:a2:35:54:71:04:ac:c8:c4:6d:
        c3:f6:91:b1:fe:cd:ee:44:6e:81:f6:40:c5:3e:2a:01:bf:ab:
        4c:b1:03:3f:0d:11:e4:0f:d2:24:e3:22:88:9b:9f:5f:47:3d:
        51:49:e0:09:37:7e:17:21:31:76:b7:67:71:48:28:4b:25:d7:
        10:e8:9f:61:59:16:c5:3e:32:4e:1f:0c:ce:a3:cc:0f:e4:c7:
        11:07:22:2f:38:08:dd:5b:97:eb:42:6c:59:9a:9a:ee:7a:d0:
        9d:df:c5:db:09:43:2e:0a:aa:19:3d:6b:e8:6a:30:7a:57:e6:
        bf:b3:6a:39:a9:8f:e3:f1:4f:65:68:b6:bd:9f:28:8f:a1:16:
        5a:09:50:3a:32:2e:1d:2f:44:11:42:a6:00:e6:31:98:ff:2d:
        a1:0f:e6:a4:60:56:cf:79:d7:b2:4e:d7:b0:fa:6e:0c:57:23:
        c7:ce:1f:a5:b1:4c:6d:19:49:9e:0e:7f:70:8f:71:3f:58:28:
        9f:75:dd:61:e0:3a:b7:39:b6:ee:97:d4:35:51:fb:8b:49:60:
        c8:3c:66:ae:97:ee:8d:26:59:57:bb:78:f0:7a:50:30:09:b0:
        60:aa:9f:4e:dc:c9:3e:1e:3a:dc:62:93:33:b0:3a:54:74:6f:
        2c:31:45:d1:6b:11:32:6a:68:76:f6:3d:f6:6a:13:5e:24:98:
        e7:ea:1d:9a:cf:78:82:07:60:f7:4d:10:d3:81:9a:45:8d:9e:
        af:9b:dc:80:c7:43:b2:95:68:a4:c3:0e:e8:0a:47:15:bf:54:
        33:dc:01:e7:d5:a6:1e:73:d8:7a:b2:bf:2f:ad:e3:55:30:9e:
        df:0e:41:bc:e0:11:f5:a1:0c:a8:22:e1:e3:00:a3:4e:70:7c:
        92:e3:04:d1:7a:42:8a:75:90:59:e3:9b:d1:4c:a2:64:bd:73:
        79:9b:6f:f2:b3:c1:f6:3c
SHA1 Fingerprint=76:18:D1:F3:80:24:3D:52:40:C6:11:6A:AD:57:77:09:7D:81:30:A0
-----BEGIN CERTIFICATE-----
MIIFcDCCA1igAwIBAgIQdlP+qExQq5+NMrUdA49X3DANBgkqhkiG9w0BAQwFADBS
MQswCQYDVQQGEwJCRTEZMBcGA1UEChMQR2xvYmFsU2lnbiBudi1zYTEoMCYGA1UE
AxMfR2xvYmFsU2lnbiBTZWN1cmUgTWFpbCBSb290IFI0NTAeFw0yMDAzMTgwMDAw
MDBaFw00NTAzMTgwMDAwMDBaMFIxCzAJBgNVBAYTAkJFMRkwFwYDVQQKExBHbG9i
YWxTaWduIG52LXNhMSgwJgYDVQQDEx9HbG9iYWxTaWduIFNlY3VyZSBNYWlsIFJv
b3QgUjQ1MIICIjANBgkqhkiG9w0BAQEFAAOCAg8AMIICCgKCAgEA3HnMbQb5bbvg
VgRsf+B1zC0FSehL3FTsW3eVcr9/Yp2FqYokUF9T5dt0b6QpWxMqCa2axS/C93Y7
oUVGqkPmJP4rsG8ycBlGWnkmL/w9fV9ky1fMYWGo2ZVu45Wgbn9HEhjW7wPJ+4r6
mr2CFalVd0sRT1nga8Nx8wzYVNWBaD4TuRUuh4o8RCc2YiRu+CwFcjBhvUKRI8Sd
JafZVJoUozGtgHkMp2NsmKOsV0czH2WW4dDSNdr5cfehpiW1QV3fPmDY0fafpfK4
zBOqj/mybuGDLZPdPoUa3eixXCYBy0mF/PzS1H+FYoZ0+cvsNSKiDDCPO6t561by
+kLz7fkfRYlAKa3qknTqUv1WtCvaou11wm6rzlKQS/be8EmPmkjUiBltRebMjLnd
ZGBgAkD4uc+8WOs9hbnGCtOcB2aPxxg5I0bhPB6jL1Bhkgs9K2zxo0c4V5GrDY/G
nU0E0iZSXOWl/SotFioBaeepfeE2t7Eqxdmxjb25i87Mi6E+C0jNUJU0xNgIWdhr
JvS+9dQiFwBXya6bBDAznwv731aiyW5Udtqxl2InWQ8RiiIbZJY/qPG3JEqNPFN8
bYN2PbImSHP1RBYBLQkqjhaWUNBzBl27IkiCTApGWj+A/1zy8pqsLAjg1urwEjiB
T6YQ7UarzBacC89kppkChURnRq39TecCAwEAAaNCMEAwDgYDVR0PAQH/BAQDAgGG
MA8GA1UdEwEB/wQFMAMBAf8wHQYDVR0OBBYEFKCTFShu7o8IsjXGnmJ5dKexDit7
MA0GCSqGSIb3DQEBDAUAA4ICAQBFCvjRXKxigdAE17b/V1GJCwzL3iRlN/urnu1m
9OoMGWmJuBmxMFa02fb3vsaul8tF9hGMOjBkTMGfWcBGQggGR2QXeOCVBwbWjKKs
qdk/03tWT/zEhyjftisWI8CfH1vj1kReIk8jBIw1FrV5B4ZcL5fi9ghkptzbqIrj
pHt3DdEpkyggtFOjS05f3sH2dSP8Hzx4T3AxeC+iNVRxBKzIxG3D9pGx/s3uRG6B
9kDFPioBv6tMsQM/DRHkD9Ik4yKIm59fRz1RSeAJN34XITF2t2dxSChLJdcQ6J9h
WRbFPjJOHwzOo8wP5McRByIvOAjdW5frQmxZmpruetCd38XbCUMuCqoZPWvoajB6
V+a/s2o5qY/j8U9laLa9nyiPoRZaCVA6Mi4dL0QRQqYA5jGY/y2hD+akYFbPedey
Ttew+m4MVyPHzh+lsUxtGUmeDn9wj3E/WCifdd1h4Dq3Obbul9Q1UfuLSWDIPGau
l+6NJllXu3jwelAwCbBgqp9O3Mk+HjrcYpMzsDpUdG8sMUXRaxEyamh29j32ahNe
JJjn6h2az3iCB2D3TRDTgZpFjZ6vm9yAx0OylWikww7oCkcVv1Qz3AHn1aYec9h6
sr8vreNVMJ7fDkG84BH1oQyoIuHjAKNOcHyS4wTRekKKdZBZ45vRTKJkvXN5m2/y
s8H2PA==
-----END CERTIFICATE-----
