##
##  HARICA Client ECC Root CA 2021
##
##  This is a single X.509 certificate for a public Certificate
##  Authority (CA). It was automatically extracted from Mozilla's
##  root CA list (the file `certdata.txt' in security/nss)
##  licensed under the MPL 2.0, http://mozilla.org/MPL/2.0/.
##
##  @generated
##
Certificate:
    Data:
        Version: 3 (0x2)
        Serial Number:
            31:68:d9:d8:e1:62:57:1e:d2:19:44:88:e6:10:7d:f0
        Signature Algorithm: ecdsa-with-SHA384
        Issuer: C=GR, O=Hellenic Academic and Research Institutions CA, CN=HARICA Client ECC Root CA 2021
        Validity
            Not Before: Feb 19 11:03:34 2021 GMT
            Not After : Feb 13 11:03:33 2045 GMT
        Subject: C=GR, O=Hellenic Academic and Research Institutions CA, CN=HARICA Client ECC Root CA 2021
        Subject Public Key Info:
            Public Key Algorithm: id-ecPublicKey
                Public-Key: (384 bit)
                pub:
                    04:07:18:ad:95:96:94:d0:5c:0f:82:f7:2a:40:fa:
                    02:c9:c9:3d:36:a6:a3:04:6a:c1:6d:95:01:88:60:
                    12:54:6c:5c:a2:2b:6e:13:3a:88:95:0c:1c:26:86:
                    36:4a:89:19:b7:18:de:3b:e8:a8:50:1f:ca:df:5b:
                    bf:49:80:15:db:e3:30:e1:1d:5a:c7:2a:8a:01:07:
                    fe:6d:2c:34:ef:28:28:97:bc:c1:f9:57:86:95:8b:
                    35:cf:9e:5a:d1:68:95
                ASN1 OID: secp384r1
                NIST CURVE: P-384
        X509v3 extensions:
            X509v3 Basic Constraints: critical
                CA:TRUE
            X509v3 Subject Key Identifier: 
                52:08:D2:BE:32:81:25:FD:F5:1A:97:EC:4E:5F:1A:BB:53:CD:90:AD
            X509v3 Key Usage: critical
                Digital Signature, Certificate Sign, CRL Sign
    Signature Algorithm: ecdsa-with-SHA384
    Signature Value:
        30:64:02:30:4c:31:45:46:4f:a8:e6:be:c3:77:b2:1a:18:4b:
        2d:88:7b:58:e6:ab:94:6b:44:03:b0:17:ff:df:82:73:44:51:
        2c:fd:93:1d:06:7b:14:d2:89:ec:40:0c:ef:21:01:2e:02:30:
        2f:c9:2e:5a:6c:2c:1d:d9:95:e0:9e:b0:b9:5c:52:7c:f6:f8:
        38:ca:2e:f1:d4:1d:f2:a2:49:a2:95:f8:c1:58:5e:4f:fe:73:
        0a:ef:31:b0:ab:23:58:13:8c:8b:de:3b
SHA1 Fingerprint=BE:64:D3:DA:14:4B:D2:6B:CD:AF:8F:DB:A6:A6:72:F8:DE:26:F9:00
-----BEGIN CERTIFICATE-----
MIICWjCCAeGgAwIBAgIQMWjZ2OFiVx7SGUSI5hB98DAKBggqhkjOPQQDAzBvMQsw
CQYDVQQGEwJHUjE3MDUGA1UECgwuSGVsbGVuaWMgQWNhZGVtaWMgYW5kIFJlc2Vh
cmNoIEluc3RpdHV0aW9ucyBDQTEnMCUGA1UEAwweSEFSSUNBIENsaWVudCBFQ0Mg
Um9vdCBDQSAyMDIxMB4XDTIxMDIxOTExMDMzNFoXDTQ1MDIxMzExMDMzM1owbzEL
MAkGA1UEBhMCR1IxNzA1BgNVBAoMLkhlbGxlbmljIEFjYWRlbWljIGFuZCBSZXNl
YXJjaCBJbnN0aXR1dGlvbnMgQ0ExJzAlBgNVBAMMHkhBUklDQSBDbGllbnQgRUND
IFJvb3QgQ0EgMjAyMTB2MBAGByqGSM49AgEGBSuBBAAiA2IABAcYrZWWlNBcD4L3
KkD6AsnJPTamowRqwW2VAYhgElRsXKIrbhM6iJUMHCaGNkqJGbcY3jvoqFAfyt9b
v0mAFdvjMOEdWscqigEH/m0sNO8oKJe8wflXhpWLNc+eWtFolaNCMEAwDwYDVR0T
AQH/BAUwAwEB/zAdBgNVHQ4EFgQUUgjSvjKBJf31GpfsTl8au1PNkK0wDgYDVR0P
AQH/BAQDAgGGMAoGCCqGSM49BAMDA2cAMGQCMEwxRUZPqOa+w3eyGhhLLYh7WOar
lGtEA7AX/9+Cc0RRLP2THQZ7FNKJ7EAM7yEBLgIwL8kuWmwsHdmV4J6wuVxSfPb4
OMou8dQd8qJJopX4wVheT/5zCu8xsKsjWBOMi947
-----END CERTIFICATE-----
