##
##  LAWtrust Root CA2 (4096)
##
##  This is a single X.509 certificate for a public Certificate
##  Authority (CA). It was automatically extracted from Mozilla's
##  root CA list (the file `certdata.txt' in security/nss)
##  licensed under the MPL 2.0, http://mozilla.org/MPL/2.0/.
##
##  @generated
##
Certificate:
    Data:
        Version: 3 (0x2)
        Serial Number: 1427795633 (0x551a6eb1)
        Signature Algorithm: sha256WithRSAEncryption
        Issuer: C=ZA, O=LAWtrust, CN=LAWtrust Root CA2 (4096)
        Validity
            Not Before: Feb 14 09:19:38 2023 GMT
            Not After : Feb 14 09:49:38 2053 GMT
        Subject: C=ZA, O=LAWtrust, CN=LAWtrust Root CA2 (4096)
        Subject Public Key Info:
            Public Key Algorithm: rsaEncryption
                Public-Key: (4096 bit)
                Modulus:
                    00:cc:17:cb:2b:43:ba:6c:f9:c9:93:8a:65:0d:12:
                    4c:ec:27:14:b7:13:79:e0:d4:d5:2d:18:56:f1:f9:
                    ea:2a:10:16:4e:6c:44:c7:6a:65:46:f3:9a:89:35:
                    d1:87:f8:33:89:2f:88:09:1a:92:10:91:90:c1:6b:
                    9f:0e:6e:7f:26:8a:13:5d:18:ac:68:01:0d:10:78:
                    65:70:d8:8e:8f:84:5a:97:30:18:d0:11:0e:4a:8d:
                    52:10:a5:81:2b:51:28:f5:63:c4:b6:ec:40:b3:01:
                    e5:ad:77:bd:e5:38:ef:bc:8d:b3:dd:19:a0:7b:0d:
                    8d:b4:db:6a:fb:25:33:5a:fa:91:af:c4:71:45:30:
                    f8:88:29:7b:cb:bf:d5:ba:27:04:8e:dd:b2:00:f7:
                    ca:5c:99:35:14:ea:fd:75:06:15:08:bb:ca:57:68:
                    fb:3f:fb:b4:34:73:63:d1:d5:e3:c8:38:5a:69:7d:
                    6a:7a:44:0c:0d:8a:4e:ed:92:1d:10:8f:3b:22:2c:
                    b6:df:ed:c5:c6:f0:89:79:54:65:5e:5f:1b:bd:8f:
                    7d:df:b9:b7:ed:eb:e4:c5:07:d1:67:3c:95:3b:91:
                    fe:42:7a:52:40:80:04:d2:39:57:4b:f4:92:7d:ff:
                    9b:ef:e5:9d:c9:09:b2:91:12:38:a6:29:08:3b:ae:
                    eb:ca:cc:ed:4d:e7:4e:21:01:07:fc:6f:32:ce:69:
                    8c:84:52:c6:77:ea:27:30:0a:de:a5:af:30:2b:68:
                    1f:ac:d4:ec:21:ad:22:49:76:ce:0f:c2:f2:07:2a:
                    f9:6a:12:83:9a:3b:04:ae:19:7a:fe:a1:86:24:fa:
                    41:5e:25:7c:40:ac:27:b6:e3:29:36:6f:35:e2:57:
                    d0:19:58:df:ff:64:f6:c3:01:49:76:db:2b:be:bc:
                    b9:4f:14:0a:d5:1b:58:21:f6:1c:2e:00:7c:f8:94:
                    b5:cb:37:1a:14:e4:32:b9:16:d4:60:ec:05:aa:5f:
                    32:fa:6a:23:12:ac:d4:10:bb:d2:a2:82:b4:4b:0e:
                    8b:70:27:aa:d6:07:c1:67:88:fa:84:c3:08:c9:8a:
                    84:c8:d2:37:72:81:0f:8d:16:4a:e4:d7:35:51:a5:
                    38:0f:8c:84:4b:95:36:c0:f5:d7:9d:e0:5d:8f:ab:
                    91:ee:00:08:b9:9d:52:1f:ec:f8:99:bb:79:56:b1:
                    49:da:d2:e5:d8:61:8b:5b:af:f0:ab:37:c5:7b:1a:
                    8e:86:be:7e:c5:7b:15:1e:61:68:e8:0b:87:8b:73:
                    49:a1:17:73:7e:29:78:8e:ca:e0:41:2f:75:73:74:
                    a2:97:3a:7f:f7:2e:74:09:b8:4c:60:8b:46:36:19:
                    10:2d:9d
                Exponent: 65537 (0x10001)
        X509v3 extensions:
            X509v3 Basic Constraints: critical
                CA:TRUE
            X509v3 Key Usage: critical
                Certificate Sign, CRL Sign
            X509v3 Private Key Usage Period: 
                Not Before: Feb 14 09:19:38 2023 GMT, Not After: Feb 14 09:49:38 2053 GMT
            X509v3 Authority Key Identifier: 
                D7:D6:56:62:5C:3F:17:81:E6:73:44:29:F5:51:05:EF:0B:60:37:AC
            X509v3 Subject Key Identifier: 
                D7:D6:56:62:5C:3F:17:81:E6:73:44:29:F5:51:05:EF:0B:60:37:AC
    Signature Algorithm: sha256WithRSAEncryption
    Signature Value:
        49:9c:29:fe:3d:ec:9e:45:7f:ab:3e:3c:fe:23:6f:37:3e:77:
        a7:53:ff:78:9f:fc:49:44:80:57:66:9c:6e:da:79:ff:cd:45:
        ad:4c:93:bf:b5:59:c6:e9:10:b7:e5:f8:8c:fb:87:c5:1e:8b:
        d8:b3:3f:02:96:0a:bb:8a:8e:ef:d7:b4:c0:83:20:38:97:59:
        45:64:fc:f6:77:13:f2:09:d7:a1:c8:38:74:08:ea:f9:48:4c:
        fa:1f:04:9c:b4:ff:ec:6e:56:36:72:93:6c:95:3e:2c:5f:de:
        0f:0b:ab:c9:cc:15:3e:16:8f:66:fc:b2:10:b8:a1:d1:b4:de:
        c0:63:19:cc:ef:53:aa:75:36:22:8b:25:1f:bf:9b:c8:d7:c1:
        5f:ec:a6:37:09:aa:7b:62:bc:f6:22:2d:f1:d6:58:dd:8c:bb:
        52:f4:0b:a7:76:a9:7a:7b:1a:8d:dc:ad:9a:81:62:2e:86:05:
        90:72:47:2f:a1:c9:67:84:b0:0d:6c:b0:b8:9b:16:b7:d0:99:
        14:2f:9c:12:9b:23:a8:8d:a6:43:1e:e9:e5:2d:e5:78:a7:1f:
        64:94:64:b6:77:b2:a8:5c:fb:09:ab:29:eb:1e:6d:75:d1:f6:
        d0:c5:a5:c3:1d:9f:1e:f3:1a:2d:b2:c8:1f:e5:28:0a:6e:f3:
        5f:fd:da:e6:23:a1:76:90:5c:4b:98:01:82:2c:ee:47:2d:02:
        1a:5f:7f:34:c5:69:b5:72:ad:3e:f3:cf:9e:6d:f8:29:e8:11:
        27:2b:e0:59:0b:1b:61:eb:4a:ca:69:a5:a4:d5:cd:51:1b:94:
        8e:79:cd:df:f6:ae:74:5d:b1:2c:1b:86:53:fe:d1:30:06:41:
        34:07:62:82:4c:f4:7e:c7:87:74:0e:b0:21:1e:09:20:80:c1:
        b3:15:3d:46:6d:d3:f1:06:92:3f:ef:a0:95:8a:1c:6e:77:31:
        b6:eb:78:29:0c:7b:ee:82:a5:4f:7e:a4:29:5e:9e:aa:2d:f8:
        8e:c0:f3:fc:0d:06:85:9b:4e:dc:f7:e2:09:7c:d0:14:51:1e:
        7a:b3:23:af:fa:d1:61:2a:65:b5:01:d9:b8:e3:07:ca:24:76:
        d2:f0:4a:be:ef:86:04:80:42:15:70:11:68:7e:d7:c7:bb:fe:
        e7:4e:9b:9c:95:a5:1c:4a:a4:c9:d0:09:8c:aa:ce:48:d2:1e:
        92:97:d7:11:e9:ed:66:cc:37:dc:f5:d7:1b:74:9b:a6:ea:42:
        ac:5d:32:e0:58:f4:81:47:ff:d2:12:e2:7e:1c:dc:49:76:96:
        c3:1d:9f:4b:ca:5c:2a:37:5b:3d:8a:d1:38:9b:21:da:e3:bf:
        45:43:d3:e0:58:77:1f:28
SHA1 Fingerprint=EC:A2:D5:30:A9:AB:2C:7D:0E:75:61:64:4E:0A:E0:16:A1:54:38:7D
-----BEGIN CERTIFICATE-----
MIIFmDCCA4CgAwIBAgIEVRpusTANBgkqhkiG9w0BAQsFADBDMQswCQYDVQQGEwJa
QTERMA8GA1UEChMITEFXdHJ1c3QxITAfBgNVBAMTGExBV3RydXN0IFJvb3QgQ0Ey
ICg0MDk2KTAgFw0yMzAyMTQwOTE5MzhaGA8yMDUzMDIxNDA5NDkzOFowQzELMAkG
A1UEBhMCWkExETAPBgNVBAoTCExBV3RydXN0MSEwHwYDVQQDExhMQVd0cnVzdCBS
b290IENBMiAoNDA5NikwggIiMA0GCSqGSIb3DQEBAQUAA4ICDwAwggIKAoICAQDM
F8srQ7ps+cmTimUNEkzsJxS3E3ng1NUtGFbx+eoqEBZObETHamVG85qJNdGH+DOJ
L4gJGpIQkZDBa58Obn8mihNdGKxoAQ0QeGVw2I6PhFqXMBjQEQ5KjVIQpYErUSj1
Y8S27ECzAeWtd73lOO+8jbPdGaB7DY2022r7JTNa+pGvxHFFMPiIKXvLv9W6JwSO
3bIA98pcmTUU6v11BhUIu8pXaPs/+7Q0c2PR1ePIOFppfWp6RAwNik7tkh0Qjzsi
LLbf7cXG8Il5VGVeXxu9j33fubft6+TFB9FnPJU7kf5CelJAgATSOVdL9JJ9/5vv
5Z3JCbKREjimKQg7ruvKzO1N504hAQf8bzLOaYyEUsZ36icwCt6lrzAraB+s1Owh
rSJJds4PwvIHKvlqEoOaOwSuGXr+oYYk+kFeJXxArCe24yk2bzXiV9AZWN//ZPbD
AUl22yu+vLlPFArVG1gh9hwuAHz4lLXLNxoU5DK5FtRg7AWqXzL6aiMSrNQQu9Ki
grRLDotwJ6rWB8FniPqEwwjJioTI0jdygQ+NFkrk1zVRpTgPjIRLlTbA9ded4F2P
q5HuAAi5nVIf7PiZu3lWsUna0uXYYYtbr/CrN8V7Go6Gvn7FexUeYWjoC4eLc0mh
F3N+KXiOyuBBL3VzdKKXOn/3LnQJuExgi0Y2GRAtnQIDAQABo4GRMIGOMA8GA1Ud
EwEB/wQFMAMBAf8wDgYDVR0PAQH/BAQDAgEGMCsGA1UdEAQkMCKADzIwMjMwMjE0
MDkxOTM4WoEPMjA1MzAyMTQwOTQ5MzhaMB8GA1UdIwQYMBaAFNfWVmJcPxeB5nNE
KfVRBe8LYDesMB0GA1UdDgQWBBTX1lZiXD8XgeZzRCn1UQXvC2A3rDANBgkqhkiG
9w0BAQsFAAOCAgEASZwp/j3snkV/qz48/iNvNz53p1P/eJ/8SUSAV2acbtp5/81F
rUyTv7VZxukQt+X4jPuHxR6L2LM/ApYKu4qO79e0wIMgOJdZRWT89ncT8gnXocg4
dAjq+UhM+h8EnLT/7G5WNnKTbJU+LF/eDwurycwVPhaPZvyyELih0bTewGMZzO9T
qnU2IoslH7+byNfBX+ymNwmqe2K89iIt8dZY3Yy7UvQLp3apensajdytmoFiLoYF
kHJHL6HJZ4SwDWywuJsWt9CZFC+cEpsjqI2mQx7p5S3leKcfZJRktneyqFz7Casp
6x5tddH20MWlwx2fHvMaLbLIH+UoCm7zX/3a5iOhdpBcS5gBgizuRy0CGl9/NMVp
tXKtPvPPnm34KegRJyvgWQsbYetKymmlpNXNURuUjnnN3/audF2xLBuGU/7RMAZB
NAdigkz0fseHdA6wIR4JIIDBsxU9Rm3T8QaSP++glYocbncxtut4KQx77oKlT36k
KV6eqi34jsDz/A0GhZtO3PfiCXzQFFEeerMjr/rRYSpltQHZuOMHyiR20vBKvu+G
BIBCFXARaH7Xx7v+506bnJWlHEqkydAJjKrOSNIekpfXEentZsw33PXXG3SbpupC
rF0y4Fj0gUf/0hLifhzcSXaWwx2fS8pcKjdbPYrROJsh2uO/RUPT4Fh3Hyg=
-----END CERTIFICATE-----
