##
##  OISTE Client Root RSA G1
##
##  This is a single X.509 certificate for a public Certificate
##  Authority (CA). It was automatically extracted from Mozilla's
##  root CA list (the file `certdata.txt' in security/nss)
##  licensed under the MPL 2.0, http://mozilla.org/MPL/2.0/.
##
##  @generated
##
Certificate:
    Data:
        Version: 3 (0x2)
        Serial Number:
            34:17:6f:59:01:88:1b:aa:a5:dd:c8:48:bb:b4:3b:73
        Signature Algorithm: sha384WithRSAEncryption
        Issuer: C=CH, O=OISTE Foundation, CN=OISTE Client Root RSA G1
        Validity
            Not Before: May 31 14:23:29 2023 GMT
            Not After : May 24 14:23:28 2048 GMT
        Subject: C=CH, O=OISTE Foundation, CN=OISTE Client Root RSA G1
        Subject Public Key Info:
            Public Key Algorithm: rsaEncryption
                Public-Key: (4096 bit)
                Modulus:
                    00:ba:4f:fe:fe:54:13:b5:84:3c:bc:e0:d3:31:f1:
                    1d:6e:dc:c4:53:71:fa:e4:39:51:43:76:7d:92:1f:
                    81:7f:00:6b:41:c2:e6:da:dc:18:4d:6c:17:59:70:
                    09:33:62:ec:69:88:2d:b0:dd:59:f9:61:60:60:56:
                    f1:b6:b4:ef:eb:87:d0:13:fe:c3:cf:6f:8f:7e:39:
                    58:51:b3:89:02:8e:54:95:1e:22:5f:ab:28:05:43:
                    27:f8:45:f4:09:42:26:94:fe:bd:13:78:bb:91:f2:
                    10:10:9c:0d:67:7c:da:64:20:eb:7a:30:1a:ba:48:
                    0d:78:54:2a:99:31:34:ab:cb:a6:6a:e7:0c:67:39:
                    66:a4:26:a8:27:28:e7:f3:e6:3c:73:e4:2b:cc:6f:
                    31:2e:13:74:61:cb:68:e6:d2:33:ce:52:bc:7e:65:
                    24:5a:21:81:31:43:aa:b2:9c:d1:18:e7:61:3c:52:
                    af:80:89:e9:34:46:de:f9:4d:99:5a:6d:1d:bd:c6:
                    25:d1:93:55:8e:f8:27:92:43:3a:8c:95:45:40:e3:
                    89:18:a7:86:c1:59:98:ca:db:26:1c:13:c0:8c:81:
                    b9:98:b0:ad:69:ad:6e:18:e3:7b:62:41:f5:ad:36:
                    fe:0b:b4:7b:20:5f:9f:a9:6e:f9:99:82:12:52:d2:
                    8a:c4:54:78:b4:7c:f7:41:9b:03:e7:07:5e:b3:c2:
                    b9:49:64:67:92:16:c4:60:90:0e:b0:82:7d:33:ad:
                    d0:36:ea:d1:76:6b:7c:88:47:98:ac:1b:f9:b4:50:
                    8c:61:81:69:d8:31:f3:8d:fa:3e:f2:f5:4b:af:ce:
                    c3:1d:ef:5f:28:1b:eb:18:d6:a0:58:52:32:be:42:
                    6f:cd:49:97:22:c1:70:b9:d3:e3:60:4f:de:83:82:
                    a0:4e:30:bd:73:53:c2:bd:17:fd:a0:c0:98:8f:ea:
                    0e:17:07:e6:43:95:20:4e:db:11:a8:f9:e3:d3:b8:
                    27:47:0c:27:db:12:eb:81:55:cc:75:db:9f:d3:17:
                    43:c4:fb:eb:8a:28:6d:e9:af:44:50:5a:43:fb:f1:
                    39:e2:93:50:cf:98:fc:44:96:58:38:a5:a5:ed:45:
                    c3:52:42:05:a7:ef:e5:3c:a4:ac:3d:e7:d6:a9:56:
                    05:aa:b0:c3:a7:19:e4:e5:3d:d7:57:44:6d:94:11:
                    1f:ca:70:c8:fc:b9:4c:cc:41:5a:83:74:53:90:78:
                    cf:d6:d4:2e:4f:b1:aa:4d:2e:f5:d1:08:5b:3a:64:
                    ef:c8:a7:a8:7a:61:ec:ec:a6:d5:88:4e:b6:54:d4:
                    58:91:c2:25:64:91:bc:0a:14:3d:92:14:9a:b5:0b:
                    06:e9:2f
                Exponent: 65537 (0x10001)
        X509v3 extensions:
            X509v3 Basic Constraints: critical
                CA:TRUE
            X509v3 Authority Key Identifier: 
                29:82:25:35:0A:3A:BE:92:2B:E4:09:03:E4:EC:8F:8D:38:72:39:CB
            X509v3 Subject Key Identifier: 
                29:82:25:35:0A:3A:BE:92:2B:E4:09:03:E4:EC:8F:8D:38:72:39:CB
            X509v3 Key Usage: critical
                Digital Signature, Certificate Sign, CRL Sign
    Signature Algorithm: sha384WithRSAEncryption
    Signature Value:
        6d:23:86:c2:ff:f5:e0:c8:c0:55:8a:60:31:cc:97:43:47:70:
        43:d3:e3:ec:52:fa:d3:c2:9e:fb:89:32:1a:ca:46:93:4f:04:
        97:2b:db:d0:9c:84:0d:95:07:42:54:fe:ef:69:21:df:92:03:
        2e:8f:37:21:23:77:a9:77:37:6c:a0:c4:ae:9c:a7:58:39:4a:
        15:97:62:46:83:51:20:ed:3f:c2:a3:f1:c3:62:27:d0:ac:13:
        1e:fe:3c:52:1d:90:d5:63:f1:a9:5e:ea:7f:e7:e7:eb:96:5a:
        51:ec:d4:a9:1b:e3:0c:94:66:ac:cb:88:92:49:be:73:5c:8a:
        e0:6a:bc:a6:81:cd:b3:5c:d4:23:92:c8:4d:f9:20:8c:70:94:
        4b:68:6d:f2:8f:1e:6c:35:f7:e8:5f:d4:d7:bd:20:37:52:66:
        ff:2b:bb:49:66:b7:71:a8:2c:5f:73:0f:07:92:e7:4e:5f:a5:
        06:db:c9:8a:3c:97:c5:42:ea:7d:0f:81:1b:57:eb:9e:0c:0f:
        ff:a3:27:20:49:53:a6:b3:3a:4c:cb:6d:30:35:da:f2:f0:9a:
        fe:50:df:6d:5c:24:3d:4d:77:6a:7d:86:5f:4c:d0:e1:a6:b4:
        ae:04:13:01:90:f1:80:68:84:07:94:82:07:83:eb:91:e5:93:
        0e:75:91:ae:a3:23:20:49:64:d4:ba:39:96:57:70:ee:55:34:
        28:7c:d6:af:ca:a9:9e:e6:c9:01:c9:07:c1:d0:44:b1:80:b4:
        51:50:aa:8f:f6:9c:e5:67:73:d0:1b:ea:83:35:17:2f:50:c6:
        de:56:c7:bb:a3:03:cb:e2:a1:18:e8:f8:ce:51:06:a3:d2:03:
        40:61:1a:a7:67:57:83:fc:d1:12:b9:28:aa:da:4e:6b:d5:9c:
        d8:85:37:da:bd:22:d7:34:59:9c:1a:a6:ce:78:d6:94:78:07:
        06:0f:b1:93:21:a0:49:c7:10:9e:0a:ae:51:77:1a:f9:71:90:
        c3:ad:98:0f:8a:29:6a:60:01:aa:4f:ad:20:03:2d:6a:8e:a3:
        0b:6a:d6:fd:93:0c:8a:61:cb:bd:28:f1:5f:71:fd:b8:33:39:
        d6:4a:f1:f6:b2:68:52:3e:65:8f:43:9d:81:24:24:f6:28:4c:
        35:a7:fd:33:0a:a5:78:c1:04:1f:ec:49:6a:c4:ae:d5:44:16:
        a6:a7:8d:7f:da:21:96:3e:a8:ba:16:67:d4:a9:a1:e7:c2:9a:
        f8:10:d9:3b:9a:ee:68:f6:2f:00:ee:cb:bb:66:8d:22:38:86:
        f4:bf:5f:78:a9:c8:a0:1d:5a:bb:75:50:f9:52:0b:0f:1d:02:
        2c:14:1a:f3:87:6a:77:f3
SHA1 Fingerprint=BD:A8:13:20:E0:BF:97:ED:A2:8E:9E:18:5F:F2:D5:FE:E5:2B:13:D5
-----BEGIN CERTIFICATE-----
MIIFgzCCA2ugAwIBAgIQNBdvWQGIG6ql3chIu7Q7czANBgkqhkiG9w0BAQwFADBL
MQswCQYDVQQGEwJDSDEZMBcGA1UECgwQT0lTVEUgRm91bmRhdGlvbjEhMB8GA1UE
AwwYT0lTVEUgQ2xpZW50IFJvb3QgUlNBIEcxMB4XDTIzMDUzMTE0MjMyOVoXDTQ4
MDUyNDE0MjMyOFowSzELMAkGA1UEBhMCQ0gxGTAXBgNVBAoMEE9JU1RFIEZvdW5k
YXRpb24xITAfBgNVBAMMGE9JU1RFIENsaWVudCBSb290IFJTQSBHMTCCAiIwDQYJ
KoZIhvcNAQEBBQADggIPADCCAgoCggIBALpP/v5UE7WEPLzg0zHxHW7cxFNx+uQ5
UUN2fZIfgX8Aa0HC5trcGE1sF1lwCTNi7GmILbDdWflhYGBW8ba07+uH0BP+w89v
j345WFGziQKOVJUeIl+rKAVDJ/hF9AlCJpT+vRN4u5HyEBCcDWd82mQg63owGrpI
DXhUKpkxNKvLpmrnDGc5ZqQmqCco5/PmPHPkK8xvMS4TdGHLaObSM85SvH5lJFoh
gTFDqrKc0RjnYTxSr4CJ6TRG3vlNmVptHb3GJdGTVY74J5JDOoyVRUDjiRinhsFZ
mMrbJhwTwIyBuZiwrWmtbhjje2JB9a02/gu0eyBfn6lu+ZmCElLSisRUeLR890Gb
A+cHXrPCuUlkZ5IWxGCQDrCCfTOt0Dbq0XZrfIhHmKwb+bRQjGGBadgx8436PvL1
S6/Owx3vXygb6xjWoFhSMr5Cb81JlyLBcLnT42BP3oOCoE4wvXNTwr0X/aDAmI/q
DhcH5kOVIE7bEaj549O4J0cMJ9sS64FVzHXbn9MXQ8T764oobemvRFBaQ/vxOeKT
UM+Y/ESWWDilpe1Fw1JCBafv5TykrD3n1qlWBaqww6cZ5OU911dEbZQRH8pwyPy5
TMxBWoN0U5B4z9bULk+xqk0u9dEIWzpk78inqHph7Oym1YhOtlTUWJHCJWSRvAoU
PZIUmrULBukvAgMBAAGjYzBhMA8GA1UdEwEB/wQFMAMBAf8wHwYDVR0jBBgwFoAU
KYIlNQo6vpIr5AkD5OyPjThyOcswHQYDVR0OBBYEFCmCJTUKOr6SK+QJA+Tsj404
cjnLMA4GA1UdDwEB/wQEAwIBhjANBgkqhkiG9w0BAQwFAAOCAgEAbSOGwv/14MjA
VYpgMcyXQ0dwQ9Pj7FL608Ke+4kyGspGk08Elyvb0JyEDZUHQlT+72kh35IDLo83
ISN3qXc3bKDErpynWDlKFZdiRoNRIO0/wqPxw2In0KwTHv48Uh2Q1WPxqV7qf+fn
65ZaUezUqRvjDJRmrMuIkkm+c1yK4Gq8poHNs1zUI5LITfkgjHCUS2ht8o8ebDX3
6F/U170gN1Jm/yu7SWa3cagsX3MPB5LnTl+lBtvJijyXxULqfQ+BG1frngwP/6Mn
IElTprM6TMttMDXa8vCa/lDfbVwkPU13an2GX0zQ4aa0rgQTAZDxgGiEB5SCB4Pr
keWTDnWRrqMjIElk1Lo5lldw7lU0KHzWr8qpnubJAckHwdBEsYC0UVCqj/ac5Wdz
0BvqgzUXL1DG3lbHu6MDy+KhGOj4zlEGo9IDQGEap2dXg/zRErkoqtpOa9Wc2IU3
2r0i1zRZnBqmznjWlHgHBg+xkyGgSccQngquUXca+XGQw62YD4opamABqk+tIAMt
ao6jC2rW/ZMMimHLvSjxX3H9uDM51krx9rJoUj5lj0OdgSQk9ihMNaf9MwqleMEE
H+xJasSu1UQWpqeNf9ohlj6ouhZn1Kmh58Ka+BDZO5ruaPYvAO7Lu2aNIjiG9L9f
eKnIoB1au3VQ+VILDx0CLBQa84dqd/M=
-----END CERTIFICATE-----
