##
##  OISTE Client Root ECC G1
##
##  This is a single X.509 certificate for a public Certificate
##  Authority (CA). It was automatically extracted from Mozilla's
##  root CA list (the file `certdata.txt' in security/nss)
##  licensed under the MPL 2.0, http://mozilla.org/MPL/2.0/.
##
##  @generated
##
Certificate:
    Data:
        Version: 3 (0x2)
        Serial Number:
            54:ec:97:d6:8b:b4:c4:0b:21:6e:0e:b2:d0:53:c8:7a
        Signature Algorithm: ecdsa-with-SHA384
        Issuer: C=CH, O=OISTE Foundation, CN=OISTE Client Root ECC G1
        Validity
            Not Before: May 31 14:31:40 2023 GMT
            Not After : May 24 14:31:39 2048 GMT
        Subject: C=CH, O=OISTE Foundation, CN=OISTE Client Root ECC G1
        Subject Public Key Info:
            Public Key Algorithm: id-ecPublicKey
                Public-Key: (384 bit)
                pub:
                    04:88:4e:68:1f:c9:9e:be:3a:04:5b:15:c3:35:f4:
                    cc:50:c5:08:ad:38:6e:a8:3c:d2:02:ba:cc:ab:25:
                    fd:75:40:fd:67:19:9f:1b:0a:5d:f6:cb:16:7b:f9:
                    5c:1e:82:dc:15:44:d4:9c:3c:6d:61:93:45:f4:4f:
                    cf:62:b9:df:3e:53:8d:9a:d4:4a:de:88:aa:0b:a6:
                    f1:d4:61:d6:1e:74:d5:18:b2:c5:4d:4c:ef:80:7b:
                    ec:0d:eb:83:39:54:96
                ASN1 OID: secp384r1
                NIST CURVE: P-384
        X509v3 extensions:
            X509v3 Basic Constraints: critical
                CA:TRUE
            X509v3 Authority Key Identifier: 
                99:57:3B:39:B1:2D:00:8C:21:66:8C:95:69:9C:6D:75:EC:8C:3F:FA
            X509v3 Subject Key Identifier: 
                99:57:3B:39:B1:2D:00:8C:21:66:8C:95:69:9C:6D:75:EC:8C:3F:FA
            X509v3 Key Usage: critical
                Digital Signature, Certificate Sign, CRL Sign
    Signature Algorithm: ecdsa-with-SHA384
    Signature Value:
        30:65:02:31:00:96:ff:e4:82:4e:16:22:5b:a0:85:18:3c:3d:
        3a:8f:20:06:08:25:e7:f5:91:36:19:ad:7b:b4:df:5b:66:12:
        37:73:70:ed:cd:05:28:07:5e:08:ce:0d:42:5f:19:91:02:02:
        30:67:49:87:ae:06:41:1d:20:d3:31:a6:aa:26:37:f1:27:8a:
        61:0d:fe:9a:06:43:a7:2e:9e:26:47:a3:32:18:8b:e8:5e:50:
        05:f1:b0:7a:48:76:de:db:a1:62:4a:ba:77
SHA1 Fingerprint=C0:2B:13:F9:1D:77:56:ED:6C:92:83:F1:86:DF:2A:D5:1E:6E:F2:BC
-----BEGIN CERTIFICATE-----
MIICNDCCAbqgAwIBAgIQVOyX1ou0xAshbg6y0FPIejAKBggqhkjOPQQDAzBLMQsw
CQYDVQQGEwJDSDEZMBcGA1UECgwQT0lTVEUgRm91bmRhdGlvbjEhMB8GA1UEAwwY
T0lTVEUgQ2xpZW50IFJvb3QgRUNDIEcxMB4XDTIzMDUzMTE0MzE0MFoXDTQ4MDUy
NDE0MzEzOVowSzELMAkGA1UEBhMCQ0gxGTAXBgNVBAoMEE9JU1RFIEZvdW5kYXRp
b24xITAfBgNVBAMMGE9JU1RFIENsaWVudCBSb290IEVDQyBHMTB2MBAGByqGSM49
AgEGBSuBBAAiA2IABIhOaB/Jnr46BFsVwzX0zFDFCK04bqg80gK6zKsl/XVA/WcZ
nxsKXfbLFnv5XB6C3BVE1Jw8bWGTRfRPz2K53z5TjZrUSt6Iqgum8dRh1h501Riy
xU1M74B77A3rgzlUlqNjMGEwDwYDVR0TAQH/BAUwAwEB/zAfBgNVHSMEGDAWgBSZ
Vzs5sS0AjCFmjJVpnG117Iw/+jAdBgNVHQ4EFgQUmVc7ObEtAIwhZoyVaZxtdeyM
P/owDgYDVR0PAQH/BAQDAgGGMAoGCCqGSM49BAMDA2gAMGUCMQCW/+SCThYiW6CF
GDw9Oo8gBggl5/WRNhmte7TfW2YSN3Nw7c0FKAdeCM4NQl8ZkQICMGdJh64GQR0g
0zGmqiY38SeKYQ3+mgZDpy6eJkejMhiL6F5QBfGwekh23tuhYkq6dw==
-----END CERTIFICATE-----
