##
##  Sectigo Public Email Protection Root R46
##
##  This is a single X.509 certificate for a public Certificate
##  Authority (CA). It was automatically extracted from Mozilla's
##  root CA list (the file `certdata.txt' in security/nss)
##  licensed under the MPL 2.0, http://mozilla.org/MPL/2.0/.
##
##  @generated
##
Certificate:
    Data:
        Version: 3 (0x2)
        Serial Number:
            1d:44:9e:b9:0d:83:91:74:ae:dd:f2:eb:88:b7:a6:a3
        Signature Algorithm: sha384WithRSAEncryption
        Issuer: C=GB, O=Sectigo Limited, CN=Sectigo Public Email Protection Root R46
        Validity
            Not Before: Mar 22 00:00:00 2021 GMT
            Not After : Mar 21 23:59:59 2046 GMT
        Subject: C=GB, O=Sectigo Limited, CN=Sectigo Public Email Protection Root R46
        Subject Public Key Info:
            Public Key Algorithm: rsaEncryption
                Public-Key: (4096 bit)
                Modulus:
                    00:91:e5:1b:fa:aa:6d:37:2b:75:c7:2e:5f:14:a5:
                    db:2c:97:b6:2c:46:8f:69:d9:ec:96:2d:f3:1d:5a:
                    be:d3:1d:23:e6:68:09:ff:4a:11:73:1a:ae:67:9f:
                    76:9a:d2:e7:ec:b8:d9:5f:2b:f9:26:56:51:af:76:
                    9d:a9:fc:17:ef:32:0a:d0:23:3c:ba:2c:4f:47:83:
                    ec:9d:05:68:42:5e:06:e0:d5:e8:2b:68:48:97:b2:
                    fa:f3:a4:71:35:7d:34:9b:17:8b:7f:4d:0d:db:dc:
                    4f:05:4c:94:62:bf:35:fa:2f:c8:a7:1c:66:d9:71:
                    5f:e5:e6:5a:55:ca:ab:f4:b8:77:19:45:50:45:4e:
                    4a:ab:db:9e:66:c1:19:b7:37:42:c8:56:a5:40:12:
                    f9:33:e8:38:45:3a:c6:84:a3:02:8e:2f:24:b0:c3:
                    41:85:07:49:9c:cf:dc:d1:f2:26:6f:ed:33:1c:33:
                    67:2a:45:37:d9:85:65:22:1a:b1:b5:10:52:09:6b:
                    03:c6:1f:70:3d:91:c4:7d:90:3d:ed:66:f8:90:ff:
                    25:e0:ed:92:a2:8b:31:29:ad:9c:12:66:78:63:9d:
                    57:ec:fb:0b:de:8e:dc:8b:cb:3a:a9:77:f4:ba:e5:
                    ec:38:8c:8b:e6:13:66:a7:69:58:c3:82:1a:1a:cd:
                    f1:9f:d8:53:92:4e:49:7d:a9:45:e7:f1:43:21:5a:
                    b7:3e:40:cd:63:89:cf:d9:bf:c7:50:0b:e1:bc:e7:
                    88:96:ad:9e:d4:17:da:5d:cf:e0:91:fd:a6:10:d4:
                    b9:03:81:9b:69:ac:fb:84:a8:81:35:eb:1b:eb:68:
                    6c:7c:60:3e:c3:df:c9:b4:ae:74:1d:48:ad:dd:6e:
                    11:86:e1:2a:6a:36:16:ae:c8:ce:bc:db:58:fc:40:
                    93:40:d8:8e:53:97:c2:ac:22:38:e5:88:31:b3:2e:
                    a1:ef:ec:e0:42:0d:ea:ff:93:56:4a:06:a4:9b:4c:
                    02:68:64:8f:56:50:c1:81:05:fd:cb:db:c5:d7:15:
                    f2:6b:b5:76:c3:a3:f9:32:ce:ca:b5:4a:a9:1b:7d:
                    19:dc:7f:c7:6a:7e:95:ec:b6:b8:8d:fd:95:4a:9c:
                    a3:2b:6d:8b:f1:70:e5:47:2b:00:5c:e4:b9:9e:d4:
                    f8:d9:58:29:d0:cb:e0:28:62:6c:ae:9c:62:e2:cc:
                    bc:36:93:41:f5:ef:fe:46:62:95:b0:57:4a:74:2c:
                    47:52:29:9d:dd:a2:a1:4f:42:c2:92:ce:2d:50:52:
                    5e:8c:0a:a1:f7:d8:9d:c5:f8:fd:36:87:4e:57:fd:
                    68:a1:5f:99:83:1c:f0:b5:dd:e8:92:d3:65:40:55:
                    ca:96:85
                Exponent: 65537 (0x10001)
        X509v3 extensions:
            X509v3 Subject Key Identifier: 
                A7:D7:95:77:EB:4A:C3:27:CD:93:BE:37:4C:26:84:21:14:7D:5D:98
            X509v3 Key Usage: critical
                Digital Signature, Certificate Sign, CRL Sign
            X509v3 Basic Constraints: critical
                CA:TRUE
    Signature Algorithm: sha384WithRSAEncryption
    Signature Value:
        34:d2:f1:15:f3:93:01:d4:72:8b:f0:ab:08:1f:13:3c:73:b4:
        b0:ab:e8:78:d9:6c:ba:9a:af:26:ec:10:80:e5:0d:53:31:dd:
        e3:fa:8c:51:22:24:33:37:b8:18:7e:3a:fa:58:e8:34:e5:8c:
        e0:a1:1f:09:41:d2:37:3f:cc:cb:09:35:42:88:e9:fc:11:d7:
        cf:42:aa:a4:70:b6:71:c1:53:bd:c5:74:af:c4:22:24:63:cf:
        62:82:7d:c9:cb:51:c1:88:90:6d:5b:5c:be:fb:99:a8:ba:b6:
        86:b0:e9:66:0b:e5:1b:6b:af:ea:2b:86:a7:df:a8:23:4c:96:
        3f:4f:57:42:18:15:83:43:f1:86:26:b7:2a:03:ce:0b:9d:e8:
        a5:68:1e:8c:6f:bd:85:e3:1b:51:8f:e7:17:2f:2b:d0:d6:78:
        c2:2d:dd:72:88:d4:65:9e:fa:99:d4:7e:e7:97:0a:92:01:9a:
        a5:a9:84:3a:0c:2a:74:3d:33:18:c8:87:f7:e8:a4:f5:86:42:
        39:fd:6b:75:29:fc:00:06:ac:a2:a5:1a:54:8e:e9:50:49:17:
        66:af:4b:04:2d:9b:94:80:a5:54:ab:8c:57:17:44:9f:0f:d6:
        68:64:72:b4:4b:1e:01:c7:d9:9b:94:d9:83:99:af:12:05:11:
        a3:98:22:d2:f2:57:ca:24:f9:ba:38:15:12:48:ba:63:3b:fc:
        8b:95:78:d6:72:07:56:cc:cd:fc:9d:1c:d0:c5:64:3b:63:34:
        cf:04:99:8a:b7:30:79:7a:b6:f2:c6:d5:d9:54:7a:87:0b:7e:
        4e:f7:84:ec:14:f3:88:16:12:f1:d5:ae:0a:1a:09:ee:86:ad:
        e5:ab:fd:ae:c3:29:79:74:c3:01:5f:11:9b:df:75:99:c6:4a:
        f7:9b:8f:6c:49:ec:21:2f:b4:02:59:b3:2d:d0:72:90:ba:0b:
        14:74:78:4b:cf:c1:5f:55:72:8e:54:2b:13:ce:fa:58:0c:d3:
        bb:2c:d9:a9:91:61:f8:f8:f1:b6:7b:de:bc:a9:cc:92:04:cc:
        4b:6b:5f:73:80:b6:21:ed:50:4f:d7:76:87:6e:ce:df:d2:b7:
        bd:62:a1:7d:58:62:68:45:52:b6:3f:de:12:db:ed:04:69:9e:
        76:88:aa:01:6d:da:86:c7:60:1b:c3:52:ac:37:ec:50:71:80:
        72:2a:21:45:0a:53:47:3c:19:eb:8d:d2:59:04:de:25:b0:eb:
        1f:35:6f:60:7d:d7:b5:c6:bb:0b:27:8d:e0:4d:54:e5:cf:1d:
        26:01:6e:3b:35:c8:20:12:89:83:f0:d2:ed:58:3b:34:9d:bb:
        31:f5:32:fd:31:f3:56:1a
SHA1 Fingerprint=D3:7B:8B:0A:E8:42:44:FB:6B:80:38:EE:AE:91:80:26:1A:48:70:66
-----BEGIN CERTIFICATE-----
MIIFgDCCA2igAwIBAgIQHUSeuQ2DkXSu3fLriLemozANBgkqhkiG9w0BAQwFADBa
MQswCQYDVQQGEwJHQjEYMBYGA1UEChMPU2VjdGlnbyBMaW1pdGVkMTEwLwYDVQQD
EyhTZWN0aWdvIFB1YmxpYyBFbWFpbCBQcm90ZWN0aW9uIFJvb3QgUjQ2MB4XDTIx
MDMyMjAwMDAwMFoXDTQ2MDMyMTIzNTk1OVowWjELMAkGA1UEBhMCR0IxGDAWBgNV
BAoTD1NlY3RpZ28gTGltaXRlZDExMC8GA1UEAxMoU2VjdGlnbyBQdWJsaWMgRW1h
aWwgUHJvdGVjdGlvbiBSb290IFI0NjCCAiIwDQYJKoZIhvcNAQEBBQADggIPADCC
AgoCggIBAJHlG/qqbTcrdccuXxSl2yyXtixGj2nZ7JYt8x1avtMdI+ZoCf9KEXMa
rmefdprS5+y42V8r+SZWUa92nan8F+8yCtAjPLosT0eD7J0FaEJeBuDV6CtoSJey
+vOkcTV9NJsXi39NDdvcTwVMlGK/NfovyKccZtlxX+XmWlXKq/S4dxlFUEVOSqvb
nmbBGbc3QshWpUAS+TPoOEU6xoSjAo4vJLDDQYUHSZzP3NHyJm/tMxwzZypFN9mF
ZSIasbUQUglrA8YfcD2RxH2QPe1m+JD/JeDtkqKLMSmtnBJmeGOdV+z7C96O3IvL
Oql39Lrl7DiMi+YTZqdpWMOCGhrN8Z/YU5JOSX2pRefxQyFatz5AzWOJz9m/x1AL
4bzniJatntQX2l3P4JH9phDUuQOBm2ms+4SogTXrG+tobHxgPsPfybSudB1Ird1u
EYbhKmo2Fq7IzrzbWPxAk0DYjlOXwqwiOOWIMbMuoe/s4EIN6v+TVkoGpJtMAmhk
j1ZQwYEF/cvbxdcV8mu1dsOj+TLOyrVKqRt9Gdx/x2p+ley2uI39lUqcoytti/Fw
5UcrAFzkuZ7U+NlYKdDL4ChibK6cYuLMvDaTQfXv/kZilbBXSnQsR1Ipnd2ioU9C
wpLOLVBSXowKoffYncX4/TaHTlf9aKFfmYMc8LXd6JLTZUBVypaFAgMBAAGjQjBA
MB0GA1UdDgQWBBSn15V360rDJ82TvjdMJoQhFH1dmDAOBgNVHQ8BAf8EBAMCAYYw
DwYDVR0TAQH/BAUwAwEB/zANBgkqhkiG9w0BAQwFAAOCAgEANNLxFfOTAdRyi/Cr
CB8TPHO0sKvoeNlsupqvJuwQgOUNUzHd4/qMUSIkMze4GH46+ljoNOWM4KEfCUHS
Nz/Mywk1Qojp/BHXz0KqpHC2ccFTvcV0r8QiJGPPYoJ9yctRwYiQbVtcvvuZqLq2
hrDpZgvlG2uv6iuGp9+oI0yWP09XQhgVg0Pxhia3KgPOC53opWgejG+9heMbUY/n
Fy8r0NZ4wi3dcojUZZ76mdR+55cKkgGapamEOgwqdD0zGMiH9+ik9YZCOf1rdSn8
AAasoqUaVI7pUEkXZq9LBC2blIClVKuMVxdEnw/WaGRytEseAcfZm5TZg5mvEgUR
o5gi0vJXyiT5ujgVEki6Yzv8i5V41nIHVszN/J0c0MVkO2M0zwSZircweXq28sbV
2VR6hwt+TveE7BTziBYS8dWuChoJ7oat5av9rsMpeXTDAV8Rm991mcZK95uPbEns
IS+0AlmzLdBykLoLFHR4S8/BX1VyjlQrE876WAzTuyzZqZFh+PjxtnvevKnMkgTM
S2tfc4C2Ie1QT9d2h27O39K3vWKhfVhiaEVStj/eEtvtBGmedoiqAW3ahsdgG8NS
rDfsUHGAciohRQpTRzwZ643SWQTeJbDrHzVvYH3Xtca7CyeN4E1U5c8dJgFuOzXI
IBKJg/DS7Vg7NJ27MfUy/THzVho=
-----END CERTIFICATE-----
