##
##  SSL.com Client ECC Root CA 2022
##
##  This is a single X.509 certificate for a public Certificate
##  Authority (CA). It was automatically extracted from Mozilla's
##  root CA list (the file `certdata.txt' in security/nss)
##  licensed under the MPL 2.0, http://mozilla.org/MPL/2.0/.
##
##  @generated
##
Certificate:
    Data:
        Version: 3 (0x2)
        Serial Number:
            76:f8:48:1e:ae:f0:3c:70:1f:e0:3f:25:54:01:83:d5
        Signature Algorithm: ecdsa-with-SHA384
        Issuer: C=US, O=SSL Corporation, CN=SSL.com Client ECC Root CA 2022
        Validity
            Not Before: Aug 25 16:30:32 2022 GMT
            Not After : Aug 19 16:30:31 2046 GMT
        Subject: C=US, O=SSL Corporation, CN=SSL.com Client ECC Root CA 2022
        Subject Public Key Info:
            Public Key Algorithm: id-ecPublicKey
                Public-Key: (384 bit)
                pub:
                    04:2d:53:7e:9f:8b:3e:b3:36:ba:50:e2:cc:eb:dc:
                    ba:26:8a:d3:8c:06:3f:67:0f:ef:f5:17:e5:d4:ae:
                    9a:46:2a:41:01:07:69:e7:67:71:f1:c2:03:36:c6:
                    f0:2b:52:8e:cf:14:92:68:a4:3e:70:51:12:69:8d:
                    78:a2:82:ca:29:14:c0:e4:94:22:b2:44:92:60:6f:
                    c8:04:a4:67:d5:a2:d0:f3:d0:d7:ea:8e:3c:0f:ba:
                    d2:40:47:90:34:ee:7d
                ASN1 OID: secp384r1
                NIST CURVE: P-384
        X509v3 extensions:
            X509v3 Basic Constraints: critical
                CA:TRUE
            X509v3 Authority Key Identifier: 
                B7:FE:2D:62:C5:81:53:CD:52:1A:2F:5D:60:A0:C3:5D:FB:B2:1C:1C
            X509v3 Subject Key Identifier: 
                B7:FE:2D:62:C5:81:53:CD:52:1A:2F:5D:60:A0:C3:5D:FB:B2:1C:1C
            X509v3 Key Usage: critical
                Digital Signature, Certificate Sign, CRL Sign
    Signature Algorithm: ecdsa-with-SHA384
    Signature Value:
        30:65:02:30:4d:07:11:2d:11:fb:b9:26:c3:21:dd:72:e1:17:
        fc:c1:cf:14:ea:49:ce:71:87:8e:d6:53:dc:11:cd:5d:54:8a:
        af:d9:2d:f4:8c:51:ea:bc:66:47:e2:7f:95:83:60:65:02:31:
        00:8c:21:4c:4f:bb:e5:b0:50:df:90:62:49:e6:cc:91:db:f8:
        3f:5d:71:91:08:8e:4f:92:c9:7f:a6:5c:ea:13:7e:ed:6d:c4:
        e8:c3:2a:6f:5c:11:e1:a5:f3:6a:5a:9a:4d
SHA1 Fingerprint=80:7B:1D:9D:65:72:3D:C7:56:F9:EC:C5:00:83:49:F6:F2:AC:F4:86
-----BEGIN CERTIFICATE-----
MIICQDCCAcagAwIBAgIQdvhIHq7wPHAf4D8lVAGD1TAKBggqhkjOPQQDAzBRMQsw
CQYDVQQGEwJVUzEYMBYGA1UECgwPU1NMIENvcnBvcmF0aW9uMSgwJgYDVQQDDB9T
U0wuY29tIENsaWVudCBFQ0MgUm9vdCBDQSAyMDIyMB4XDTIyMDgyNTE2MzAzMloX
DTQ2MDgxOTE2MzAzMVowUTELMAkGA1UEBhMCVVMxGDAWBgNVBAoMD1NTTCBDb3Jw
b3JhdGlvbjEoMCYGA1UEAwwfU1NMLmNvbSBDbGllbnQgRUNDIFJvb3QgQ0EgMjAy
MjB2MBAGByqGSM49AgEGBSuBBAAiA2IABC1Tfp+LPrM2ulDizOvcuiaK04wGP2cP
7/UX5dSumkYqQQEHaedncfHCAzbG8CtSjs8UkmikPnBREmmNeKKCyikUwOSUIrJE
kmBvyASkZ9Wi0PPQ1+qOPA+60kBHkDTufaNjMGEwDwYDVR0TAQH/BAUwAwEB/zAf
BgNVHSMEGDAWgBS3/i1ixYFTzVIaL11goMNd+7IcHDAdBgNVHQ4EFgQUt/4tYsWB
U81SGi9dYKDDXfuyHBwwDgYDVR0PAQH/BAQDAgGGMAoGCCqGSM49BAMDA2gAMGUC
ME0HES0R+7kmwyHdcuEX/MHPFOpJznGHjtZT3BHNXVSKr9kt9IxR6rxmR+J/lYNg
ZQIxAIwhTE+75bBQ35BiSebMkdv4P11xkQiOT5LJf6Zc6hN+7W3E6MMqb1wR4aXz
alqaTQ==
-----END CERTIFICATE-----
