##
##  SSL.com Client RSA Root CA 2022
##
##  This is a single X.509 certificate for a public Certificate
##  Authority (CA). It was automatically extracted from Mozilla's
##  root CA list (the file `certdata.txt' in security/nss)
##  licensed under the MPL 2.0, http://mozilla.org/MPL/2.0/.
##
##  @generated
##
Certificate:
    Data:
        Version: 3 (0x2)
        Serial Number:
            76:af:ee:88:93:15:45:b6:50:53:9b:80:9c:a4:df:9a
        Signature Algorithm: sha256WithRSAEncryption
        Issuer: C=US, O=SSL Corporation, CN=SSL.com Client RSA Root CA 2022
        Validity
            Not Before: Aug 25 16:31:07 2022 GMT
            Not After : Aug 19 16:31:06 2046 GMT
        Subject: C=US, O=SSL Corporation, CN=SSL.com Client RSA Root CA 2022
        Subject Public Key Info:
            Public Key Algorithm: rsaEncryption
                Public-Key: (4096 bit)
                Modulus:
                    00:b8:58:db:46:30:fb:c9:3f:e3:c8:f0:01:33:34:
                    e2:da:48:a8:18:e9:20:6e:9a:d7:01:e1:d5:29:8f:
                    30:b4:23:6a:e4:cb:62:b0:be:e2:9f:20:bd:3e:54:
                    a0:39:68:c7:86:37:66:74:06:06:ef:74:2b:da:dc:
                    9f:84:a9:52:2f:90:d2:ee:7e:7c:fb:a5:22:ad:6f:
                    70:46:67:96:3d:29:d4:a3:bb:56:7b:14:04:59:c1:
                    21:63:44:1e:b2:1f:12:5c:90:87:65:0d:88:f6:1e:
                    88:22:e2:63:54:bb:f3:36:f8:d6:7f:dc:da:ff:29:
                    35:a9:c6:6e:0e:69:5b:3f:d8:be:82:87:15:70:5d:
                    b0:c7:5c:12:0f:63:a6:38:cd:cf:73:b9:c3:0e:89:
                    26:37:1b:3f:62:1c:32:69:d1:9b:d9:ff:55:90:31:
                    de:b1:63:dd:cf:c5:74:77:fc:ef:88:21:53:bf:00:
                    31:1a:26:2c:00:30:a5:5f:6c:e3:e4:f6:00:8a:ca:
                    98:87:9c:74:03:7a:8b:66:ec:7e:fd:a3:8f:35:25:
                    5c:78:a5:b3:a4:fb:3d:6d:a9:8a:f0:6c:88:82:8b:
                    fd:4a:d0:6f:e4:d7:a3:b4:8e:34:49:38:be:ce:45:
                    e5:d2:1c:ca:5e:c2:37:14:8b:cd:66:56:33:37:9d:
                    e5:6b:ec:43:92:64:a0:42:da:75:6f:c0:15:ec:f9:
                    69:bd:34:b9:8a:7b:fa:16:fb:55:fe:52:20:e8:04:
                    04:56:56:65:f5:37:44:98:c8:8a:46:e9:b7:ac:b8:
                    e8:be:62:8e:54:36:5b:f7:3b:70:bf:5d:ee:2d:ba:
                    5f:de:42:19:86:f0:7f:8b:eb:08:cb:d8:be:ea:0e:
                    42:42:a0:36:73:57:17:ed:32:ea:d0:8d:e8:07:1b:
                    9b:99:e8:c4:9a:62:04:0e:48:f7:3c:12:ba:f7:58:
                    c1:9a:8c:e9:c7:b0:23:36:56:34:1d:cb:6c:da:ba:
                    07:84:1d:fd:d1:ac:9f:e6:c2:89:ef:c3:b9:6c:18:
                    b3:69:87:57:5f:b5:0c:38:5b:a7:21:24:2a:3b:a7:
                    34:91:9e:b4:54:ea:28:4f:d3:c1:a3:8b:e4:e6:2b:
                    d5:f2:9d:bf:9b:61:00:22:dd:d6:4b:44:1f:3f:5d:
                    56:fe:de:9c:78:cc:99:5b:aa:e4:bd:ba:db:43:4b:
                    ad:4c:26:4c:a3:4d:34:8a:6c:74:36:13:db:62:fc:
                    9b:b2:05:81:ff:ae:3f:0c:cd:f6:1b:a2:f4:39:e7:
                    ca:f5:4c:5c:fb:54:77:35:80:5a:c0:12:a1:13:01:
                    33:67:3d:9d:81:a1:a9:f5:85:24:58:88:78:e7:f4:
                    e3:68:55
                Exponent: 65537 (0x10001)
        X509v3 extensions:
            X509v3 Basic Constraints: critical
                CA:TRUE
            X509v3 Authority Key Identifier: 
                F0:38:42:94:34:A9:3C:00:7F:52:EE:39:A5:F7:4B:0D:BC:6A:7D:23
            X509v3 Subject Key Identifier: 
                F0:38:42:94:34:A9:3C:00:7F:52:EE:39:A5:F7:4B:0D:BC:6A:7D:23
            X509v3 Key Usage: critical
                Digital Signature, Certificate Sign, CRL Sign
    Signature Algorithm: sha256WithRSAEncryption
    Signature Value:
        99:4f:db:f0:ea:d6:11:fa:2a:fd:c8:ab:6d:e4:0e:73:62:d2:
        42:9f:15:fe:7c:70:52:3f:64:87:82:31:3f:45:40:2e:e1:22:
        9f:06:66:29:fc:96:d3:2d:8d:b6:38:c7:d9:f3:27:c1:59:29:
        a0:8c:f6:73:24:0f:28:22:d7:4e:61:dd:13:dd:db:9f:32:52:
        93:fb:4f:cc:ea:38:3c:98:6a:03:ab:16:af:21:d1:42:ae:7d:
        45:2b:ea:c4:cf:8a:59:9f:82:70:76:3a:f8:62:26:c9:10:97:
        58:40:24:a4:2d:b9:2f:29:80:27:e1:89:6b:72:ca:49:08:71:
        37:53:05:f1:80:ce:d3:42:02:d2:fc:c2:d1:94:06:ee:07:e2:
        f6:83:e2:7f:9f:e7:bb:56:c3:5b:bf:dd:95:93:09:1e:24:c1:
        cf:26:cd:ad:a4:ae:c2:b4:69:e7:aa:b5:ed:37:94:e9:dd:d1:
        63:85:6b:9a:7a:4a:56:76:dc:19:85:28:d4:e4:c6:a4:d8:b8:
        96:41:77:d0:b4:59:f1:46:05:87:87:02:1f:69:b9:82:18:d0:
        43:d9:26:da:1a:67:a8:d6:75:76:ea:f2:6d:0e:42:ff:88:26:
        a2:6e:84:fe:7e:62:1b:f0:c6:3d:ed:c0:1c:6a:c7:91:d6:b8:
        00:37:49:9b:b9:84:05:a1:cd:6e:31:d6:44:ea:53:8b:ba:53:
        98:1d:a1:90:8a:e9:85:f8:1b:f2:93:58:c3:c8:dc:9a:26:4f:
        3e:20:cf:4f:43:f3:10:8c:7f:10:61:7a:36:ca:aa:0b:7d:cc:
        9f:47:44:59:ae:a5:95:c6:99:53:e3:07:6b:3d:49:10:b0:18:
        ff:5d:0e:85:43:14:4b:e7:6b:d3:4a:b5:b2:60:61:dc:69:49:
        02:23:5d:e8:92:71:c3:9c:9f:45:67:79:1e:dc:32:86:ba:aa:
        55:3c:64:6f:32:b5:10:40:15:de:72:40:78:e0:6e:70:bb:6e:
        eb:09:e8:39:d9:ac:ba:92:75:dd:43:ca:ba:01:95:ad:1a:81:
        2b:3a:f0:e3:c5:2f:0c:18:4d:10:c6:ae:c0:ed:fe:05:52:7f:
        19:05:cb:a9:af:35:08:0c:38:22:e4:fe:56:e5:53:3e:bf:e4:
        d6:b3:d9:08:c3:3d:d5:33:32:81:24:c5:a9:e1:65:11:b8:32:
        33:30:71:18:49:1d:1a:45:c6:9a:14:8a:58:39:28:6e:f3:cb:
        51:b9:49:26:64:78:03:c7:91:11:83:a9:b9:90:34:b6:6f:aa:
        05:9e:85:28:57:99:be:7f:27:06:49:62:4d:a1:fc:09:e1:2b:
        46:09:4c:14:9b:56:8f:45
SHA1 Fingerprint=AA:59:70:E5:20:32:9F:CB:D0:D5:79:9F:FB:1B:82:1D:FD:1F:79:65
-----BEGIN CERTIFICATE-----
MIIFjzCCA3egAwIBAgIQdq/uiJMVRbZQU5uAnKTfmjANBgkqhkiG9w0BAQsFADBR
MQswCQYDVQQGEwJVUzEYMBYGA1UECgwPU1NMIENvcnBvcmF0aW9uMSgwJgYDVQQD
DB9TU0wuY29tIENsaWVudCBSU0EgUm9vdCBDQSAyMDIyMB4XDTIyMDgyNTE2MzEw
N1oXDTQ2MDgxOTE2MzEwNlowUTELMAkGA1UEBhMCVVMxGDAWBgNVBAoMD1NTTCBD
b3Jwb3JhdGlvbjEoMCYGA1UEAwwfU1NMLmNvbSBDbGllbnQgUlNBIFJvb3QgQ0Eg
MjAyMjCCAiIwDQYJKoZIhvcNAQEBBQADggIPADCCAgoCggIBALhY20Yw+8k/48jw
ATM04tpIqBjpIG6a1wHh1SmPMLQjauTLYrC+4p8gvT5UoDlox4Y3ZnQGBu90K9rc
n4SpUi+Q0u5+fPulIq1vcEZnlj0p1KO7VnsUBFnBIWNEHrIfElyQh2UNiPYeiCLi
Y1S78zb41n/c2v8pNanGbg5pWz/YvoKHFXBdsMdcEg9jpjjNz3O5ww6JJjcbP2Ic
MmnRm9n/VZAx3rFj3c/FdHf874ghU78AMRomLAAwpV9s4+T2AIrKmIecdAN6i2bs
fv2jjzUlXHils6T7PW2pivBsiIKL/UrQb+TXo7SONEk4vs5F5dIcyl7CNxSLzWZW
Mzed5WvsQ5JkoELadW/AFez5ab00uYp7+hb7Vf5SIOgEBFZWZfU3RJjIikbpt6y4
6L5ijlQ2W/c7cL9d7i26X95CGYbwf4vrCMvYvuoOQkKgNnNXF+0y6tCN6Acbm5no
xJpiBA5I9zwSuvdYwZqM6cewIzZWNB3LbNq6B4Qd/dGsn+bCie/DuWwYs2mHV1+1
DDhbpyEkKjunNJGetFTqKE/TwaOL5OYr1fKdv5thACLd1ktEHz9dVv7enHjMmVuq
5L2620NLrUwmTKNNNIpsdDYT22L8m7IFgf+uPwzN9hui9DnnyvVMXPtUdzWAWsAS
oRMBM2c9nYGhqfWFJFiIeOf042hVAgMBAAGjYzBhMA8GA1UdEwEB/wQFMAMBAf8w
HwYDVR0jBBgwFoAU8DhClDSpPAB/Uu45pfdLDbxqfSMwHQYDVR0OBBYEFPA4QpQ0
qTwAf1LuOaX3Sw28an0jMA4GA1UdDwEB/wQEAwIBhjANBgkqhkiG9w0BAQsFAAOC
AgEAmU/b8OrWEfoq/cirbeQOc2LSQp8V/nxwUj9kh4IxP0VALuEinwZmKfyW0y2N
tjjH2fMnwVkpoIz2cyQPKCLXTmHdE93bnzJSk/tPzOo4PJhqA6sWryHRQq59RSvq
xM+KWZ+CcHY6+GImyRCXWEAkpC25LymAJ+GJa3LKSQhxN1MF8YDO00IC0vzC0ZQG
7gfi9oPif5/nu1bDW7/dlZMJHiTBzybNraSuwrRp56q17TeU6d3RY4VrmnpKVnbc
GYUo1OTGpNi4lkF30LRZ8UYFh4cCH2m5ghjQQ9km2hpnqNZ1durybQ5C/4gmom6E
/n5iG/DGPe3AHGrHkda4ADdJm7mEBaHNbjHWROpTi7pTmB2hkIrphfgb8pNYw8jc
miZPPiDPT0PzEIx/EGF6NsqqC33Mn0dEWa6llcaZU+MHaz1JELAY/10OhUMUS+dr
00q1smBh3GlJAiNd6JJxw5yfRWd5HtwyhrqqVTxkbzK1EEAV3nJAeOBucLtu6wno
OdmsupJ13UPKugGVrRqBKzrw48UvDBhNEMauwO3+BVJ/GQXLqa81CAw4IuT+VuVT
Pr/k1rPZCMM91TMygSTFqeFlEbgyMzBxGEkdGkXGmhSKWDkobvPLUblJJmR4A8eR
EYOpuZA0tm+qBZ6FKFeZvn8nBkliTaH8CeErRglMFJtWj0U=
-----END CERTIFICATE-----
