##
##  SwissSign RSA SMIME Root CA 2022 - 1
##
##  This is a single X.509 certificate for a public Certificate
##  Authority (CA). It was automatically extracted from Mozilla's
##  root CA list (the file `certdata.txt' in security/nss)
##  licensed under the MPL 2.0, http://mozilla.org/MPL/2.0/.
##
##  @generated
##
Certificate:
    Data:
        Version: 3 (0x2)
        Serial Number:
            46:0e:d4:01:71:90:a0:1a:83:2c:4a:42:10:28:15:d2:61:1b:ad:32
        Signature Algorithm: sha256WithRSAEncryption
        Issuer: C=CH, O=SwissSign AG, CN=SwissSign RSA SMIME Root CA 2022 - 1
        Validity
            Not Before: Jun  8 10:53:13 2022 GMT
            Not After : Jun  8 10:53:13 2047 GMT
        Subject: C=CH, O=SwissSign AG, CN=SwissSign RSA SMIME Root CA 2022 - 1
        Subject Public Key Info:
            Public Key Algorithm: rsaEncryption
                Public-Key: (4096 bit)
                Modulus:
                    00:d4:fb:fa:3f:86:a2:99:70:09:3a:c9:d6:a1:4e:
                    01:ce:46:b5:2d:24:48:0d:45:e9:ac:c9:1a:d7:32:
                    80:a4:e6:d3:ca:d6:f2:29:37:ec:9a:2c:d6:81:ce:
                    e6:1b:9d:b1:0f:41:df:58:d3:5f:aa:a0:79:59:0b:
                    8c:ad:f9:c5:f9:1c:fb:c3:e9:35:40:74:c3:c1:0c:
                    cb:67:fb:9c:5e:0c:23:f9:d0:2f:fa:4c:82:45:1c:
                    b5:f5:1f:f8:19:6e:da:93:b7:4e:68:83:7e:62:2d:
                    1d:8c:95:1f:70:d9:ce:5a:8c:21:5d:a8:be:08:a9:
                    56:6d:d9:f7:b9:90:99:c7:3b:d7:bd:9e:2e:c9:67:
                    57:2e:21:ce:f0:32:83:fb:04:01:f9:b7:82:44:0d:
                    b2:cb:7a:09:a1:48:3e:4f:c0:0b:6a:1b:1b:ec:cf:
                    1d:9e:7f:06:90:ac:28:05:0b:a8:e6:54:3b:a2:a7:
                    2c:39:13:99:a8:fb:34:eb:f5:f0:bd:01:d8:88:11:
                    c8:ae:ba:19:02:49:02:dc:8a:2c:b4:bd:61:60:ec:
                    9d:78:5c:6a:8b:2f:17:86:5e:f2:4f:93:00:6b:5d:
                    c5:b2:a9:a5:18:ea:e6:6d:7e:57:05:fb:07:fc:bc:
                    7c:a1:43:b1:66:1c:a8:67:fb:ab:37:f6:aa:aa:b8:
                    7a:41:f7:39:d5:8c:9f:ae:72:36:27:e4:62:c6:43:
                    99:f1:a1:41:e9:ff:89:9f:0f:49:af:c9:14:06:17:
                    27:64:39:0d:a5:b4:2a:5b:ec:3c:fb:9f:c5:5f:c6:
                    3b:5d:26:19:f2:84:29:b8:95:44:09:52:fd:6c:30:
                    d0:62:8f:28:a5:81:96:2b:94:2f:26:75:e4:09:8c:
                    0a:df:38:f3:7e:5d:38:8e:82:9a:8c:dc:9e:ae:ce:
                    12:42:3a:22:f2:35:8d:4f:d2:1a:c8:49:33:0b:fa:
                    36:3f:ff:2c:6b:6a:20:71:4c:cd:ad:10:3f:69:32:
                    84:8e:5c:ee:53:88:44:e2:dd:cc:03:30:92:86:79:
                    90:2a:4b:75:fb:52:62:c4:f4:6f:4d:f7:db:23:a1:
                    18:dd:45:53:17:9a:63:24:48:89:22:cd:7e:9b:01:
                    1c:80:28:03:8f:5b:2b:fa:1f:e3:7c:19:bd:e6:8f:
                    b1:40:76:a0:f2:c7:37:b2:32:94:10:32:cd:a7:13:
                    97:f1:3b:2c:7a:34:22:7b:74:3a:40:e2:af:82:f8:
                    c1:c1:78:fc:5f:e4:35:7f:c0:f4:4c:f0:4c:b2:ea:
                    87:03:72:25:59:83:2a:08:a4:51:de:cf:ee:a8:e7:
                    e8:40:3f:88:f0:36:ab:09:4e:d8:a0:a8:7f:f3:e1:
                    09:db:b9
                Exponent: 65537 (0x10001)
        X509v3 extensions:
            X509v3 Basic Constraints: critical
                CA:TRUE
            X509v3 Key Usage: critical
                Certificate Sign, CRL Sign
            X509v3 Authority Key Identifier: 
                CC:2E:AD:89:8C:83:E3:40:A3:25:69:A5:EA:92:7D:D2:37:3A:C7:C6
            X509v3 Subject Key Identifier: 
                CC:2E:AD:89:8C:83:E3:40:A3:25:69:A5:EA:92:7D:D2:37:3A:C7:C6
    Signature Algorithm: sha256WithRSAEncryption
    Signature Value:
        00:07:66:16:a5:ed:c7:b9:bf:bc:c8:91:ad:58:ed:5e:12:05:
        b3:f6:46:9b:7b:e4:84:10:2f:07:b1:5a:5e:32:6e:6d:00:f0:
        5e:c7:9a:62:39:87:4d:e4:3c:f3:be:f6:ba:6a:53:6c:84:6d:
        07:d4:61:ca:67:66:be:9b:3e:45:30:9d:51:d2:d7:5a:42:ae:
        9d:92:0e:23:ab:d0:15:94:3e:a8:9a:ca:9b:ed:c1:c2:5f:21:
        a3:99:80:fc:b9:a6:61:0e:50:80:80:27:c7:e8:7d:a0:d4:94:
        7a:98:03:e7:ee:42:8b:f3:52:50:5c:ef:be:b0:76:5a:1c:09:
        a1:bf:83:c0:1e:76:65:d0:25:41:5b:69:91:93:77:f9:8c:4b:
        f0:2c:db:9b:06:00:17:83:fa:5a:94:b4:86:89:ef:bc:0a:0b:
        12:f8:06:4d:d2:73:e2:91:38:5d:b9:6a:4b:4f:a7:af:da:26:
        25:92:23:1a:7c:1f:27:0d:91:84:ef:17:72:f6:46:eb:6b:3b:
        37:a9:d4:d5:9a:63:ba:5e:79:8c:2a:b5:9b:a2:34:b5:cc:96:
        27:f9:79:08:3c:7f:6d:e0:ff:7c:dc:c5:26:af:c3:a1:7a:69:
        16:dd:87:35:73:c6:6b:31:6b:56:01:2d:4f:99:d9:ee:ca:e1:
        d0:83:de:b6:85:e7:16:f8:d1:ae:33:48:fb:1a:cf:5d:5f:8a:
        84:61:74:07:6f:19:b0:51:21:b2:a1:04:b1:7b:53:8f:ef:a2:
        45:ad:1f:98:dd:f9:6a:04:6c:aa:36:c5:af:8c:ea:29:49:4a:
        e7:ff:57:b3:c6:3c:11:49:18:17:e6:66:85:e1:e8:23:f2:8b:
        0e:3c:93:c4:3f:76:4e:7e:62:a2:29:cb:16:30:de:2c:69:af:
        91:a7:e2:57:e5:33:4c:bf:d8:8e:07:a2:7f:a1:35:46:69:4a:
        a8:20:29:ff:eb:de:20:95:59:b1:ae:4d:30:6b:d8:9a:b4:03:
        1f:c2:38:e4:20:d5:0e:d6:1a:30:4c:68:9c:8c:e0:ed:a1:0f:
        8e:42:5d:eb:80:2a:12:79:a6:17:17:b4:95:2a:8e:34:91:a7:
        bd:d1:ac:a8:1a:43:21:8b:de:ef:e0:ac:46:25:65:0a:c6:2b:
        a1:9b:3e:22:e8:18:38:b5:26:f6:2c:ca:08:20:de:30:d1:ad:
        54:fd:dc:48:15:9f:cd:a7:41:d7:37:38:85:30:4f:12:88:43:
        34:83:d7:2a:4d:d4:00:57:5c:e5:ca:f0:dd:e1:92:28:2b:18:
        75:bd:47:a4:42:13:e9:56:5a:8d:4a:5e:ce:0e:75:35:80:73:
        19:0f:2c:29:8b:bb:95:b8
SHA1 Fingerprint=14:D7:65:62:74:10:50:47:9F:8B:32:C6:86:8A:18:FA:E1:19:99:B0
-----BEGIN CERTIFICATE-----
MIIFlzCCA3+gAwIBAgIURg7UAXGQoBqDLEpCECgV0mEbrTIwDQYJKoZIhvcNAQEL
BQAwUzELMAkGA1UEBhMCQ0gxFTATBgNVBAoTDFN3aXNzU2lnbiBBRzEtMCsGA1UE
AxMkU3dpc3NTaWduIFJTQSBTTUlNRSBSb290IENBIDIwMjIgLSAxMB4XDTIyMDYw
ODEwNTMxM1oXDTQ3MDYwODEwNTMxM1owUzELMAkGA1UEBhMCQ0gxFTATBgNVBAoT
DFN3aXNzU2lnbiBBRzEtMCsGA1UEAxMkU3dpc3NTaWduIFJTQSBTTUlNRSBSb290
IENBIDIwMjIgLSAxMIICIjANBgkqhkiG9w0BAQEFAAOCAg8AMIICCgKCAgEA1Pv6
P4aimXAJOsnWoU4Bzka1LSRIDUXprMka1zKApObTytbyKTfsmizWgc7mG52xD0Hf
WNNfqqB5WQuMrfnF+Rz7w+k1QHTDwQzLZ/ucXgwj+dAv+kyCRRy19R/4GW7ak7dO
aIN+Yi0djJUfcNnOWowhXai+CKlWbdn3uZCZxzvXvZ4uyWdXLiHO8DKD+wQB+beC
RA2yy3oJoUg+T8ALahsb7M8dnn8GkKwoBQuo5lQ7oqcsOROZqPs06/XwvQHYiBHI
rroZAkkC3IostL1hYOydeFxqiy8Xhl7yT5MAa13FsqmlGOrmbX5XBfsH/Lx8oUOx
ZhyoZ/urN/aqqrh6Qfc51YyfrnI2J+RixkOZ8aFB6f+Jnw9Jr8kUBhcnZDkNpbQq
W+w8+5/FX8Y7XSYZ8oQpuJVECVL9bDDQYo8opYGWK5QvJnXkCYwK3zjzfl04joKa
jNyers4SQjoi8jWNT9IayEkzC/o2P/8sa2ogcUzNrRA/aTKEjlzuU4hE4t3MAzCS
hnmQKkt1+1JixPRvTffbI6EY3UVTF5pjJEiJIs1+mwEcgCgDj1sr+h/jfBm95o+x
QHag8sc3sjKUEDLNpxOX8TssejQie3Q6QOKvgvjBwXj8X+Q1f8D0TPBMsuqHA3Il
WYMqCKRR3s/uqOfoQD+I8DarCU7YoKh/8+EJ27kCAwEAAaNjMGEwDwYDVR0TAQH/
BAUwAwEB/zAOBgNVHQ8BAf8EBAMCAQYwHwYDVR0jBBgwFoAUzC6tiYyD40CjJWml
6pJ90jc6x8YwHQYDVR0OBBYEFMwurYmMg+NAoyVppeqSfdI3OsfGMA0GCSqGSIb3
DQEBCwUAA4ICAQAAB2YWpe3Hub+8yJGtWO1eEgWz9kabe+SEEC8HsVpeMm5tAPBe
x5piOYdN5Dzzvva6alNshG0H1GHKZ2a+mz5FMJ1R0tdaQq6dkg4jq9AVlD6omsqb
7cHCXyGjmYD8uaZhDlCAgCfH6H2g1JR6mAPn7kKL81JQXO++sHZaHAmhv4PAHnZl
0CVBW2mRk3f5jEvwLNubBgAXg/palLSGie+8CgsS+AZN0nPikThduWpLT6ev2iYl
kiMafB8nDZGE7xdy9kbrazs3qdTVmmO6XnmMKrWbojS1zJYn+XkIPH9t4P983MUm
r8OhemkW3Yc1c8ZrMWtWAS1PmdnuyuHQg962hecW+NGuM0j7Gs9dX4qEYXQHbxmw
USGyoQSxe1OP76JFrR+Y3flqBGyqNsWvjOopSUrn/1ezxjwRSRgX5maF4egj8osO
PJPEP3ZOfmKiKcsWMN4saa+Rp+JX5TNMv9iOB6J/oTVGaUqoICn/694glVmxrk0w
a9iatAMfwjjkINUO1howTGicjODtoQ+OQl3rgCoSeaYXF7SVKo40kae90ayoGkMh
i97v4KxGJWUKxiuhmz4i6Bg4tSb2LMoIIN4w0a1U/dxIFZ/Np0HXNziFME8SiEM0
g9cqTdQAV1zlyvDd4ZIoKxh1vUekQhPpVlqNSl7ODnU1gHMZDywpi7uVuA==
-----END CERTIFICATE-----
