##
##  Symantec Class 1 Public Primary Certification Authority - G4
##
##  This is a single X.509 certificate for a public Certificate
##  Authority (CA). It was automatically extracted from Mozilla's
##  root CA list (the file `certdata.txt' in security/nss).
##
##  Extracted from nss
##  with $FreeBSD: head/secure/caroot/MAca-bundle.pl 352951 2019-10-02 01:27:50Z kevans $
##
##  @generated
##
Certificate:
    Data:
        Version: 3 (0x2)
        Serial Number:
            21:6e:33:a5:cb:d3:88:a4:6f:29:07:b4:27:3c:c4:d8
        Signature Algorithm: ecdsa-with-SHA384
        Issuer: C = US, O = Symantec Corporation, OU = Symantec Trust Network, CN = Symantec Class 1 Public Primary Certification Authority - G4
        Validity
            Not Before: Oct  5 00:00:00 2011 GMT
            Not After : Jan 18 23:59:59 2038 GMT
        Subject: C = US, O = Symantec Corporation, OU = Symantec Trust Network, CN = Symantec Class 1 Public Primary Certification Authority - G4
        Subject Public Key Info:
            Public Key Algorithm: id-ecPublicKey
                Public-Key: (384 bit)
                pub:
                    04:d7:66:b5:1b:db:ae:b3:60:ee:46:ea:88:63:75:
                    3b:2a:94:6d:f3:5f:12:f6:e3:0f:9e:b6:0a:14:53:
                    48:52:c8:dc:3a:b3:cb:48:20:26:12:4e:fa:89:84:
                    d4:df:91:e4:29:7d:28:01:d9:db:18:43:69:a1:1f:
                    b5:d3:86:16:dc:c7:7f:67:23:df:df:31:31:83:03:
                    35:70:b1:4b:b7:c8:17:bb:51:cb:dc:94:17:db:ea:
                    09:3b:76:12:de:aa:b5
                ASN1 OID: secp384r1
                NIST CURVE: P-384
        X509v3 extensions:
            X509v3 Key Usage: critical
                Certificate Sign, CRL Sign
            X509v3 Basic Constraints: critical
                CA:TRUE
            X509v3 Subject Key Identifier: 
                65:C0:8D:25:F5:0C:BA:97:77:90:3F:9E:2E:E0:5A:F5:CE:D5:E1:E4
    Signature Algorithm: ecdsa-with-SHA384
    Signature Value:
        30:66:02:31:00:a5:ae:e3:46:53:f8:98:36:e3:22:fa:2e:28:
        49:0d:ee:30:7e:33:f3:ec:3f:71:5e:cc:55:89:78:99:ac:b2:
        fd:dc:1c:5c:33:8e:29:b9:6b:17:c8:11:68:b5:dc:83:07:02:
        31:00:9c:c8:44:da:69:c2:36:c3:54:19:10:85:02:da:9d:47:
        ef:41:e7:6c:26:9d:09:3d:f7:6d:90:d1:05:44:2f:b0:bc:83:
        93:68:f2:0c:45:49:39:bf:99:04:1c:d3:10:a0
SHA1 Fingerprint=84:F2:E3:DD:83:13:3E:A9:1D:19:52:7F:02:D7:29:BF:C1:5F:E6:67
-----BEGIN CERTIFICATE-----
MIICqDCCAi2gAwIBAgIQIW4zpcvTiKRvKQe0JzzE2DAKBggqhkjOPQQDAzCBlDEL
MAkGA1UEBhMCVVMxHTAbBgNVBAoTFFN5bWFudGVjIENvcnBvcmF0aW9uMR8wHQYD
VQQLExZTeW1hbnRlYyBUcnVzdCBOZXR3b3JrMUUwQwYDVQQDEzxTeW1hbnRlYyBD
bGFzcyAxIFB1YmxpYyBQcmltYXJ5IENlcnRpZmljYXRpb24gQXV0aG9yaXR5IC0g
RzQwHhcNMTExMDA1MDAwMDAwWhcNMzgwMTE4MjM1OTU5WjCBlDELMAkGA1UEBhMC
VVMxHTAbBgNVBAoTFFN5bWFudGVjIENvcnBvcmF0aW9uMR8wHQYDVQQLExZTeW1h
bnRlYyBUcnVzdCBOZXR3b3JrMUUwQwYDVQQDEzxTeW1hbnRlYyBDbGFzcyAxIFB1
YmxpYyBQcmltYXJ5IENlcnRpZmljYXRpb24gQXV0aG9yaXR5IC0gRzQwdjAQBgcq
hkjOPQIBBgUrgQQAIgNiAATXZrUb266zYO5G6ohjdTsqlG3zXxL24w+etgoUU0hS
yNw6s8tIICYSTvqJhNTfkeQpfSgB2dsYQ2mhH7XThhbcx39nI9/fMTGDAzVwsUu3
yBe7UcvclBfb6gk7dhLeqrWjQjBAMA4GA1UdDwEB/wQEAwIBBjAPBgNVHRMBAf8E
BTADAQH/MB0GA1UdDgQWBBRlwI0l9Qy6l3eQP54u4Fr1ztXh5DAKBggqhkjOPQQD
AwNpADBmAjEApa7jRlP4mDbjIvouKEkN7jB+M/PsP3FezFWJeJmssv3cHFwzjim5
axfIEWi13IMHAjEAnMhE2mnCNsNUGRCFAtqdR+9B52wmnQk9922Q0QVEL7C8g5No
8gxFSTm/mQQc0xCg
-----END CERTIFICATE-----
