##
##  Symantec Class 2 Public Primary Certification Authority - G4
##
##  This is a single X.509 certificate for a public Certificate
##  Authority (CA). It was automatically extracted from Mozilla's
##  root CA list (the file `certdata.txt' in security/nss).
##
##  Extracted from nss
##  with $FreeBSD: head/secure/caroot/MAca-bundle.pl 352951 2019-10-02 01:27:50Z kevans $
##
##  @generated
##
Certificate:
    Data:
        Version: 3 (0x2)
        Serial Number:
            34:17:65:12:40:3b:b7:56:80:2d:80:cb:79:55:a6:1e
        Signature Algorithm: ecdsa-with-SHA384
        Issuer: C = US, O = Symantec Corporation, OU = Symantec Trust Network, CN = Symantec Class 2 Public Primary Certification Authority - G4
        Validity
            Not Before: Oct  5 00:00:00 2011 GMT
            Not After : Jan 18 23:59:59 2038 GMT
        Subject: C = US, O = Symantec Corporation, OU = Symantec Trust Network, CN = Symantec Class 2 Public Primary Certification Authority - G4
        Subject Public Key Info:
            Public Key Algorithm: id-ecPublicKey
                Public-Key: (384 bit)
                pub:
                    04:d1:d9:4a:8e:4c:0d:84:4a:51:ba:7c:ef:d3:cc:
                    fa:3a:9a:b5:a7:63:13:3d:01:e0:49:3e:fa:c1:47:
                    c9:92:b3:3a:d7:fe:6f:9c:f7:9a:3a:0f:f5:0e:0a:
                    0a:c3:3f:c8:e7:12:14:8e:d5:d5:6d:98:2c:b3:71:
                    32:0a:eb:2a:bd:f6:d7:6a:20:0b:67:45:9c:d2:b2:
                    bf:53:22:66:09:5d:db:11:f3:f1:05:33:58:a3:e2:
                    b8:cf:7c:cd:82:9b:bd
                ASN1 OID: secp384r1
                NIST CURVE: P-384
        X509v3 extensions:
            X509v3 Key Usage: critical
                Certificate Sign, CRL Sign
            X509v3 Basic Constraints: critical
                CA:TRUE
            X509v3 Subject Key Identifier: 
                3D:32:F3:3A:A9:0C:90:84:F9:A2:8C:69:06:61:54:2F:87:72:FE:05
    Signature Algorithm: ecdsa-with-SHA384
    Signature Value:
        30:66:02:31:00:c8:a6:a9:af:41:7f:b5:c9:11:42:16:68:69:
        4c:5c:b8:27:18:b6:98:f1:c0:7f:90:6d:87:d3:8c:46:17:f0:
        3e:4f:fc:ea:b0:08:c4:7a:4b:bc:08:2f:c7:e2:a7:6f:65:02:
        31:00:d6:59:de:86:ce:5f:0e:ca:54:d5:c6:d0:15:0e:fc:8b:
        94:72:d4:8e:00:58:53:cf:7e:b1:4b:0d:e5:50:86:eb:9e:6b:
        df:ff:29:a6:d8:47:d9:a0:96:18:db:f2:45:b3
SHA1 Fingerprint=67:24:90:2E:48:01:B0:22:96:40:10:46:B4:B1:67:2C:A9:75:FD:2B
-----BEGIN CERTIFICATE-----
MIICqDCCAi2gAwIBAgIQNBdlEkA7t1aALYDLeVWmHjAKBggqhkjOPQQDAzCBlDEL
MAkGA1UEBhMCVVMxHTAbBgNVBAoTFFN5bWFudGVjIENvcnBvcmF0aW9uMR8wHQYD
VQQLExZTeW1hbnRlYyBUcnVzdCBOZXR3b3JrMUUwQwYDVQQDEzxTeW1hbnRlYyBD
bGFzcyAyIFB1YmxpYyBQcmltYXJ5IENlcnRpZmljYXRpb24gQXV0aG9yaXR5IC0g
RzQwHhcNMTExMDA1MDAwMDAwWhcNMzgwMTE4MjM1OTU5WjCBlDELMAkGA1UEBhMC
VVMxHTAbBgNVBAoTFFN5bWFudGVjIENvcnBvcmF0aW9uMR8wHQYDVQQLExZTeW1h
bnRlYyBUcnVzdCBOZXR3b3JrMUUwQwYDVQQDEzxTeW1hbnRlYyBDbGFzcyAyIFB1
YmxpYyBQcmltYXJ5IENlcnRpZmljYXRpb24gQXV0aG9yaXR5IC0gRzQwdjAQBgcq
hkjOPQIBBgUrgQQAIgNiAATR2UqOTA2ESlG6fO/TzPo6mrWnYxM9AeBJPvrBR8mS
szrX/m+c95o6D/UOCgrDP8jnEhSO1dVtmCyzcTIK6yq99tdqIAtnRZzSsr9TImYJ
XdsR8/EFM1ij4rjPfM2Cm72jQjBAMA4GA1UdDwEB/wQEAwIBBjAPBgNVHRMBAf8E
BTADAQH/MB0GA1UdDgQWBBQ9MvM6qQyQhPmijGkGYVQvh3L+BTAKBggqhkjOPQQD
AwNpADBmAjEAyKapr0F/tckRQhZoaUxcuCcYtpjxwH+QbYfTjEYX8D5P/OqwCMR6
S7wIL8fip29lAjEA1lnehs5fDspU1cbQFQ78i5Ry1I4AWFPPfrFLDeVQhuuea9//
KabYR9mglhjb8kWz
-----END CERTIFICATE-----
