##
##  Symantec Class 2 Public Primary Certification Authority - G6
##
##  This is a single X.509 certificate for a public Certificate
##  Authority (CA). It was automatically extracted from Mozilla's
##  root CA list (the file `certdata.txt' in security/nss).
##
##  Extracted from nss
##
##  @generated
##
Certificate:
    Data:
        Version: 3 (0x2)
        Serial Number:
            64:82:9e:fc:37:1e:74:5d:fc:97:ff:97:c8:b1:ff:41
        Signature Algorithm: sha256WithRSAEncryption
        Issuer: C = US, O = Symantec Corporation, OU = Symantec Trust Network, CN = Symantec Class 2 Public Primary Certification Authority - G6
        Validity
            Not Before: Oct 18 00:00:00 2011 GMT
            Not After : Dec  1 23:59:59 2037 GMT
        Subject: C = US, O = Symantec Corporation, OU = Symantec Trust Network, CN = Symantec Class 2 Public Primary Certification Authority - G6
        Subject Public Key Info:
            Public Key Algorithm: rsaEncryption
                Public-Key: (2048 bit)
                Modulus:
                    00:cd:cc:e9:05:c8:63:85:cb:3f:40:63:17:bd:18:
                    fa:35:e6:04:67:57:65:98:29:a4:4f:c9:5c:8f:0f:
                    34:d2:f8:da:a8:13:62:aa:b8:1e:50:67:78:b0:16:
                    4c:a0:39:a9:15:7a:ae:ed:d2:a2:c0:f0:90:37:29:
                    18:26:5c:e8:0d:3c:b6:6c:49:3f:c1:e0:dc:d9:4b:
                    b6:14:19:0b:a6:d3:96:e1:d6:09:e3:19:26:1c:f9:
                    1f:65:4b:f9:1a:43:1c:00:83:d6:d0:aa:49:a2:d4:
                    db:e6:62:38:ba:50:14:43:6d:f9:31:f8:56:16:d9:
                    38:02:91:cf:eb:6c:dd:bb:39:4e:99:e1:30:67:45:
                    f1:d4:f0:8d:c3:df:fe:f2:38:07:21:7d:00:5e:56:
                    44:b3:e4:60:bd:91:2b:9c:ab:5b:04:72:0f:b2:28:
                    d9:72:ab:05:20:42:25:a9:5b:03:6a:20:10:cc:31:
                    f0:2b:da:35:2c:d0:fb:9a:97:4e:f0:82:4b:2b:d8:
                    5f:36:a3:0b:2d:af:63:0d:1d:25:7f:a1:6e:5c:62:
                    a1:8d:28:3e:a1:fc:1c:20:f8:01:2f:ba:55:9a:11:
                    b0:19:d2:c8:50:79:6b:0e:6a:05:d7:aa:04:36:b2:
                    a3:f2:e1:5f:77:a7:77:9c:e5:1e:dc:e9:df:6a:c1:
                    65:5d
                Exponent: 65537 (0x10001)
        X509v3 extensions:
            X509v3 Key Usage: critical
                Certificate Sign, CRL Sign
            X509v3 Basic Constraints: critical
                CA:TRUE
            X509v3 Subject Key Identifier: 
                87:8C:20:95:C8:98:4A:D1:D6:80:06:4A:90:34:44:DF:1C:4D:BF:B0
    Signature Algorithm: sha256WithRSAEncryption
    Signature Value:
        81:8e:b2:a5:66:96:b7:21:a5:b6:ef:6f:23:5a:5f:db:81:c5:
        42:a5:78:c1:69:fd:f4:3c:d7:f9:5c:6b:70:72:1a:fc:5a:97:
        4d:00:80:88:88:82:8a:c3:71:0d:8e:c5:89:9b:2c:ed:8d:0b:
        d2:72:54:f5:7d:d4:5c:43:57:e9:f3:ae:a5:02:11:f6:76:2b:
        81:57:dd:7d:da:74:30:fd:54:47:f6:e0:16:6e:a6:b4:0a:48:
        e6:e7:75:07:0f:29:19:39:ce:79:f4:b6:6c:c5:5f:99:d5:1f:
        4b:fa:df:6d:2c:3c:0d:54:80:70:f0:88:0b:80:cf:c6:68:a2:
        b8:1d:70:d9:76:8c:fc:ee:a5:c9:cf:ad:1d:cf:99:25:57:5a:
        62:45:cb:16:6b:bd:49:cd:a5:a3:8c:69:79:25:ae:b8:4c:6c:
        8b:40:66:4b:16:3f:cf:02:1a:dd:e1:6c:6b:07:61:6a:76:15:
        29:99:7f:1b:dd:88:80:c1:bf:b5:8f:73:c5:a6:96:23:84:a6:
        28:86:24:33:6a:01:2e:57:73:25:b6:5e:bf:8f:e6:1d:61:a8:
        40:29:67:1d:87:9b:1d:7f:9b:9f:99:cd:31:d6:54:be:62:bb:
        39:ac:68:12:48:91:20:a5:cb:b1:dd:fe:6f:fc:5a:e4:82:55:
        59:af:31:a9
SHA1 Fingerprint=40:B3:31:A0:E9:BF:E8:55:BC:39:93:CA:70:4F:4E:C2:51:D4:1D:8F
-----BEGIN CERTIFICATE-----
MIID9jCCAt6gAwIBAgIQZIKe/DcedF38l/+XyLH/QTANBgkqhkiG9w0BAQsFADCB
lDELMAkGA1UEBhMCVVMxHTAbBgNVBAoTFFN5bWFudGVjIENvcnBvcmF0aW9uMR8w
HQYDVQQLExZTeW1hbnRlYyBUcnVzdCBOZXR3b3JrMUUwQwYDVQQDEzxTeW1hbnRl
YyBDbGFzcyAyIFB1YmxpYyBQcmltYXJ5IENlcnRpZmljYXRpb24gQXV0aG9yaXR5
IC0gRzYwHhcNMTExMDE4MDAwMDAwWhcNMzcxMjAxMjM1OTU5WjCBlDELMAkGA1UE
BhMCVVMxHTAbBgNVBAoTFFN5bWFudGVjIENvcnBvcmF0aW9uMR8wHQYDVQQLExZT
eW1hbnRlYyBUcnVzdCBOZXR3b3JrMUUwQwYDVQQDEzxTeW1hbnRlYyBDbGFzcyAy
IFB1YmxpYyBQcmltYXJ5IENlcnRpZmljYXRpb24gQXV0aG9yaXR5IC0gRzYwggEi
MA0GCSqGSIb3DQEBAQUAA4IBDwAwggEKAoIBAQDNzOkFyGOFyz9AYxe9GPo15gRn
V2WYKaRPyVyPDzTS+NqoE2KquB5QZ3iwFkygOakVeq7t0qLA8JA3KRgmXOgNPLZs
ST/B4NzZS7YUGQum05bh1gnjGSYc+R9lS/kaQxwAg9bQqkmi1NvmYji6UBRDbfkx
+FYW2TgCkc/rbN27OU6Z4TBnRfHU8I3D3/7yOAchfQBeVkSz5GC9kSucq1sEcg+y
KNlyqwUgQiWpWwNqIBDMMfAr2jUs0Pual07wgksr2F82owstr2MNHSV/oW5cYqGN
KD6h/Bwg+AEvulWaEbAZ0shQeWsOagXXqgQ2sqPy4V93p3ec5R7c6d9qwWVdAgMB
AAGjQjBAMA4GA1UdDwEB/wQEAwIBBjAPBgNVHRMBAf8EBTADAQH/MB0GA1UdDgQW
BBSHjCCVyJhK0daABkqQNETfHE2/sDANBgkqhkiG9w0BAQsFAAOCAQEAgY6ypWaW
tyGltu9vI1pf24HFQqV4wWn99DzX+VxrcHIa/FqXTQCAiIiCisNxDY7FiZss7Y0L
0nJU9X3UXENX6fOupQIR9nYrgVfdfdp0MP1UR/bgFm6mtApI5ud1Bw8pGTnOefS2
bMVfmdUfS/rfbSw8DVSAcPCIC4DPxmiiuB1w2XaM/O6lyc+tHc+ZJVdaYkXLFmu9
Sc2lo4xpeSWuuExsi0BmSxY/zwIa3eFsawdhanYVKZl/G92IgMG/tY9zxaaWI4Sm
KIYkM2oBLldzJbZev4/mHWGoQClnHYebHX+bn5nNMdZUvmK7OaxoEkiRIKXLsd3+
b/xa5IJVWa8xqQ==
-----END CERTIFICATE-----
