##
##  Telekom Security SMIME RSA Root 2023
##
##  This is a single X.509 certificate for a public Certificate
##  Authority (CA). It was automatically extracted from Mozilla's
##  root CA list (the file `certdata.txt' in security/nss)
##  licensed under the MPL 2.0, http://mozilla.org/MPL/2.0/.
##
##  @generated
##
Certificate:
    Data:
        Version: 3 (0x2)
        Serial Number:
            0c:7e:62:f5:79:73:3b:9d:43:8e:8b:63:ed:91:95:b8
        Signature Algorithm: sha384WithRSAEncryption
        Issuer: C=DE, O=Deutsche Telekom Security GmbH, CN=Telekom Security SMIME RSA Root 2023
        Validity
            Not Before: Mar 28 12:09:22 2023 GMT
            Not After : Mar 27 23:59:59 2048 GMT
        Subject: C=DE, O=Deutsche Telekom Security GmbH, CN=Telekom Security SMIME RSA Root 2023
        Subject Public Key Info:
            Public Key Algorithm: rsaEncryption
                Public-Key: (4096 bit)
                Modulus:
                    00:ef:c5:0e:8b:be:32:d2:67:47:ff:0a:4c:67:b3:
                    2a:bf:c8:c3:c5:91:eb:b5:c7:1e:91:e1:66:a8:88:
                    8b:55:20:80:1f:51:5e:77:97:9e:19:0a:5c:c7:6b:
                    37:21:7c:03:36:01:f4:88:25:d9:a8:2e:41:aa:fc:
                    d8:26:e0:96:40:62:79:ae:57:9e:03:38:1a:1c:b2:
                    77:14:3e:e9:a1:72:d0:e4:e0:37:d1:17:46:ed:50:
                    5c:7a:58:c5:f8:2b:f7:75:2f:cf:81:9e:5a:2c:b7:
                    3a:ac:a0:59:98:04:51:0c:ff:49:c5:50:fd:1e:d3:
                    47:85:4b:33:4f:a2:37:b5:af:04:9a:27:32:9d:56:
                    d5:3f:55:61:e3:8b:6f:ae:51:fe:97:fe:69:07:fa:
                    62:5b:26:e6:14:79:15:a5:13:38:ae:5f:37:be:94:
                    4a:d6:0d:80:16:69:a4:91:b2:3a:49:98:75:9d:46:
                    10:8a:5c:7a:7f:84:a5:e8:af:1e:c7:ab:b3:5a:46:
                    b5:a3:4b:f5:a6:23:36:00:46:b1:db:05:b6:1b:ce:
                    9e:7a:32:5c:9a:d5:72:c3:9d:86:4d:2b:84:d3:1e:
                    b5:88:da:10:78:9c:22:c3:3b:23:b5:eb:13:07:bd:
                    6f:53:ec:9b:ec:9b:d3:65:f5:07:09:e3:5d:a7:99:
                    b5:7e:86:8e:d5:02:ff:b7:85:09:e3:47:14:dd:96:
                    66:18:34:de:08:d5:df:cb:18:99:62:0b:2b:ec:00:
                    5d:52:44:d3:c6:96:fc:32:56:25:91:cf:cd:19:3b:
                    95:39:3e:02:87:99:63:b6:d5:3e:34:7a:0f:11:75:
                    81:bc:7d:04:ca:60:b4:28:75:d7:02:51:dd:52:00:
                    2e:c7:fd:89:f1:5c:f3:cb:a4:27:12:38:8f:bb:fb:
                    89:f0:e4:c4:38:2c:be:82:a0:71:61:62:91:8f:48:
                    0c:2f:2b:a9:b0:f1:cb:10:04:e7:74:bf:37:90:ef:
                    4f:2a:43:35:97:12:c6:2a:70:0d:de:2c:55:47:79:
                    63:29:f5:ca:1f:6a:06:52:1c:ae:2d:24:22:83:22:
                    af:d0:aa:30:b7:2a:1f:ff:65:23:58:65:93:c8:8e:
                    7d:40:10:31:86:78:d9:55:cb:3c:30:f0:de:51:2a:
                    00:36:d2:27:45:5f:d8:e8:a1:21:3d:7e:46:56:3b:
                    29:45:f1:1d:05:09:ce:b6:43:30:dc:45:90:10:30:
                    4c:a4:6b:86:8b:3f:3d:2f:31:91:71:ef:26:b9:f6:
                    be:9d:b0:6c:df:11:ee:58:3f:43:79:86:39:80:f1:
                    26:17:07:98:f0:99:aa:30:2c:43:59:14:ce:ed:e2:
                    40:13:85
                Exponent: 65537 (0x10001)
        X509v3 extensions:
            X509v3 Key Usage: critical
                Certificate Sign, CRL Sign
            X509v3 Subject Key Identifier: 
                9A:CE:AC:2A:EC:01:FA:65:70:DE:97:9D:F1:D2:00:8C:A5:A3:64:BB
            X509v3 Basic Constraints: critical
                CA:TRUE
            X509v3 Authority Key Identifier: 
                9A:CE:AC:2A:EC:01:FA:65:70:DE:97:9D:F1:D2:00:8C:A5:A3:64:BB
    Signature Algorithm: sha384WithRSAEncryption
    Signature Value:
        e3:50:fd:f5:40:16:22:09:96:3a:0d:a9:ef:81:e7:2e:32:f0:
        a1:f1:49:5e:7b:88:0d:04:72:d7:be:67:a8:ba:1d:ee:50:bb:
        72:6e:7a:d1:bb:0c:72:30:46:c8:d5:d7:02:12:16:99:4e:1e:
        df:5a:96:ee:8f:91:be:ae:86:f8:10:77:a5:c4:6e:47:61:c0:
        f2:26:d9:4f:61:68:05:48:75:08:15:a5:a1:7b:d5:b8:b3:89:
        79:e6:ed:f1:f3:61:00:86:7b:2e:31:fe:a3:5c:f8:79:3d:b4:
        5b:88:7b:e0:23:bb:0d:a1:17:fa:cb:68:0d:98:77:71:08:e2:
        6d:43:74:6b:c4:36:c5:94:41:a4:00:d6:57:2d:99:8a:8b:20:
        12:15:02:32:0e:d2:49:ec:81:48:c5:6a:27:52:d7:b2:73:55:
        53:96:3c:9e:4f:4c:b5:a0:d0:4f:57:d0:67:28:48:64:be:c6:
        b8:ba:ec:64:cf:c8:7b:c5:6a:e7:2a:e6:59:57:b6:d6:d4:d6:
        c0:67:5c:d9:9e:28:09:40:bf:f3:a9:35:31:65:60:03:cb:19:
        6c:82:95:03:1e:5f:3f:e1:bd:ea:49:71:e5:5b:b7:0b:47:16:
        1b:20:89:6d:94:99:0c:7e:88:6c:1d:0d:f4:b7:21:1a:59:97:
        ac:cb:e8:be:17:1f:95:7c:53:9b:af:50:52:aa:8d:0b:2e:af:
        5a:d7:60:f2:2a:69:2a:b9:ee:54:70:18:aa:bd:f5:a1:3f:d2:
        dd:a1:63:19:00:f8:a7:0c:eb:a3:79:f2:70:59:a3:f8:a2:12:
        03:ec:13:ff:e4:02:86:36:d7:c1:c3:a4:b5:d4:a4:c2:37:45:
        b6:94:70:3d:c5:bd:eb:a3:15:1d:e3:36:7a:15:69:2a:56:34:
        39:cf:a5:9a:36:aa:c8:ed:79:bc:cf:f6:ce:04:53:0b:da:b2:
        50:23:7c:bc:3e:26:ad:f0:0e:43:bb:26:cb:ae:c2:40:de:37:
        1f:0a:a0:51:cd:63:9d:b6:4f:d8:c6:47:7c:bc:d8:b4:ed:9e:
        8b:f3:11:e2:a8:b5:3e:ec:ae:70:3e:7e:22:bb:35:48:17:60:
        62:14:91:30:a3:76:3d:a6:51:36:8b:1f:0d:dd:6a:31:1c:a5:
        ed:dd:96:a3:6e:72:0f:13:4d:aa:a7:a9:5c:78:f9:03:12:18:
        93:37:45:12:89:3d:f8:be:ca:bd:d9:be:0c:d9:18:64:a7:c8:
        41:3e:75:82:21:38:7d:65:f4:a0:d4:13:4b:07:78:29:f9:9d:
        7e:cc:87:3f:c4:da:2e:88:dd:e3:0b:dc:5a:51:5a:e9:d9:12:
        4f:9e:02:db:f7:05:25:51
SHA1 Fingerprint=89:3F:6F:1C:E2:4D:7F:FB:C3:D3:14:7A:05:80:A7:DE:E1:0A:5E:4D
-----BEGIN CERTIFICATE-----
MIIFtzCCA5+gAwIBAgIQDH5i9XlzO51Djotj7ZGVuDANBgkqhkiG9w0BAQwFADBl
MQswCQYDVQQGEwJERTEnMCUGA1UECgweRGV1dHNjaGUgVGVsZWtvbSBTZWN1cml0
eSBHbWJIMS0wKwYDVQQDDCRUZWxla29tIFNlY3VyaXR5IFNNSU1FIFJTQSBSb290
IDIwMjMwHhcNMjMwMzI4MTIwOTIyWhcNNDgwMzI3MjM1OTU5WjBlMQswCQYDVQQG
EwJERTEnMCUGA1UECgweRGV1dHNjaGUgVGVsZWtvbSBTZWN1cml0eSBHbWJIMS0w
KwYDVQQDDCRUZWxla29tIFNlY3VyaXR5IFNNSU1FIFJTQSBSb290IDIwMjMwggIi
MA0GCSqGSIb3DQEBAQUAA4ICDwAwggIKAoICAQDvxQ6LvjLSZ0f/Ckxnsyq/yMPF
keu1xx6R4WaoiItVIIAfUV53l54ZClzHazchfAM2AfSIJdmoLkGq/Ngm4JZAYnmu
V54DOBocsncUPumhctDk4DfRF0btUFx6WMX4K/d1L8+BnlostzqsoFmYBFEM/0nF
UP0e00eFSzNPoje1rwSaJzKdVtU/VWHji2+uUf6X/mkH+mJbJuYUeRWlEziuXze+
lErWDYAWaaSRsjpJmHWdRhCKXHp/hKXorx7Hq7NaRrWjS/WmIzYARrHbBbYbzp56
Mlya1XLDnYZNK4TTHrWI2hB4nCLDOyO16xMHvW9T7Jvsm9Nl9QcJ412nmbV+ho7V
Av+3hQnjRxTdlmYYNN4I1d/LGJliCyvsAF1SRNPGlvwyViWRz80ZO5U5PgKHmWO2
1T40eg8RdYG8fQTKYLQoddcCUd1SAC7H/YnxXPPLpCcSOI+7+4nw5MQ4LL6CoHFh
YpGPSAwvK6mw8csQBOd0vzeQ708qQzWXEsYqcA3eLFVHeWMp9cofagZSHK4tJCKD
Iq/QqjC3Kh//ZSNYZZPIjn1AEDGGeNlVyzww8N5RKgA20idFX9jooSE9fkZWOylF
8R0FCc62QzDcRZAQMEyka4aLPz0vMZFx7ya59r6dsGzfEe5YP0N5hjmA8SYXB5jw
maowLENZFM7t4kAThQIDAQABo2MwYTAOBgNVHQ8BAf8EBAMCAQYwHQYDVR0OBBYE
FJrOrCrsAfplcN6XnfHSAIylo2S7MA8GA1UdEwEB/wQFMAMBAf8wHwYDVR0jBBgw
FoAUms6sKuwB+mVw3ped8dIAjKWjZLswDQYJKoZIhvcNAQEMBQADggIBAONQ/fVA
FiIJljoNqe+B5y4y8KHxSV57iA0Ecte+Z6i6He5Qu3JuetG7DHIwRsjV1wISFplO
Ht9alu6Pkb6uhvgQd6XEbkdhwPIm2U9haAVIdQgVpaF71biziXnm7fHzYQCGey4x
/qNc+Hk9tFuIe+Ajuw2hF/rLaA2Yd3EI4m1DdGvENsWUQaQA1lctmYqLIBIVAjIO
0knsgUjFaidS17JzVVOWPJ5PTLWg0E9X0GcoSGS+xri67GTPyHvFaucq5llXttbU
1sBnXNmeKAlAv/OpNTFlYAPLGWyClQMeXz/hvepJceVbtwtHFhsgiW2UmQx+iGwd
DfS3IRpZl6zL6L4XH5V8U5uvUFKqjQsur1rXYPIqaSq57lRwGKq99aE/0t2hYxkA
+KcM66N58nBZo/iiEgPsE//kAoY218HDpLXUpMI3RbaUcD3FveujFR3jNnoVaSpW
NDnPpZo2qsjtebzP9s4EUwvaslAjfLw+Jq3wDkO7JsuuwkDeNx8KoFHNY522T9jG
R3y82LTtnovzEeKotT7srnA+fiK7NUgXYGIUkTCjdj2mUTaLHw3dajEcpe3dlqNu
cg8TTaqnqVx4+QMSGJM3RRKJPfi+yr3ZvgzZGGSnyEE+dYIhOH1l9KDUE0sHeCn5
nX7Mhz/E2i6I3eML3FpRWunZEk+eAtv3BSVR
-----END CERTIFICATE-----
