##
##  Telekom Security SMIME ECC Root 2021
##
##  This is a single X.509 certificate for a public Certificate
##  Authority (CA). It was automatically extracted from Mozilla's
##  root CA list (the file `certdata.txt' in security/nss)
##  licensed under the MPL 2.0, http://mozilla.org/MPL/2.0/.
##
##  @generated
##
Certificate:
    Data:
        Version: 3 (0x2)
        Serial Number:
            15:2a:dd:14:c9:18:d1:a4:56:40:86:a6:25:af:07:5f
        Signature Algorithm: ecdsa-with-SHA384
        Issuer: C=DE, O=Deutsche Telekom Security GmbH, CN=Telekom Security SMIME ECC Root 2021
        Validity
            Not Before: Mar 18 11:08:30 2021 GMT
            Not After : Mar 17 23:59:59 2046 GMT
        Subject: C=DE, O=Deutsche Telekom Security GmbH, CN=Telekom Security SMIME ECC Root 2021
        Subject Public Key Info:
            Public Key Algorithm: id-ecPublicKey
                Public-Key: (384 bit)
                pub:
                    04:b0:19:8f:a2:6b:b5:c7:cd:0f:30:99:37:0c:c3:
                    60:5b:f1:f1:27:20:55:3d:c0:92:8b:ab:57:a1:6f:
                    73:83:21:c2:43:13:0c:5e:89:aa:c7:05:35:79:93:
                    62:90:d6:5d:13:1f:d1:7a:a0:bc:9e:10:a7:66:7c:
                    46:0a:b0:57:6c:bf:e6:54:39:38:21:6c:12:5c:71:
                    cc:d3:5a:5f:6d:b7:a7:86:df:b3:df:ee:c2:e7:89:
                    41:96:35:f6:2f:4a:b5
                ASN1 OID: secp384r1
                NIST CURVE: P-384
        X509v3 extensions:
            X509v3 Subject Key Identifier: 
                2B:CB:01:0C:63:C3:53:12:A5:A8:57:AF:D0:9C:83:FB:BD:90:3A:4B
            X509v3 Basic Constraints: critical
                CA:TRUE
            X509v3 Key Usage: critical
                Certificate Sign, CRL Sign
    Signature Algorithm: ecdsa-with-SHA384
    Signature Value:
        30:65:02:31:00:d6:bc:48:92:87:47:03:c7:70:3b:25:b6:1f:
        ae:46:67:73:74:00:27:4b:e4:a5:04:a2:03:df:5e:28:ad:6e:
        5e:03:c8:dd:68:9c:b6:bf:94:10:48:95:2f:0f:ff:18:8b:02:
        30:01:40:33:9e:97:97:4d:05:f2:74:54:0c:cd:39:fd:6a:6b:
        09:c1:24:3f:61:8e:38:a1:b7:e8:d7:44:15:11:62:ff:0e:61:
        37:47:4b:40:7f:4a:5f:b2:67:5a:73:75:c2
SHA1 Fingerprint=B7:F9:1D:98:EC:25:93:F3:50:14:84:9A:A8:7E:22:10:3C:C4:39:27
-----BEGIN CERTIFICATE-----
MIICRzCCAc2gAwIBAgIQFSrdFMkY0aRWQIamJa8HXzAKBggqhkjOPQQDAzBlMQsw
CQYDVQQGEwJERTEnMCUGA1UECgweRGV1dHNjaGUgVGVsZWtvbSBTZWN1cml0eSBH
bWJIMS0wKwYDVQQDDCRUZWxla29tIFNlY3VyaXR5IFNNSU1FIEVDQyBSb290IDIw
MjEwHhcNMjEwMzE4MTEwODMwWhcNNDYwMzE3MjM1OTU5WjBlMQswCQYDVQQGEwJE
RTEnMCUGA1UECgweRGV1dHNjaGUgVGVsZWtvbSBTZWN1cml0eSBHbWJIMS0wKwYD
VQQDDCRUZWxla29tIFNlY3VyaXR5IFNNSU1FIEVDQyBSb290IDIwMjEwdjAQBgcq
hkjOPQIBBgUrgQQAIgNiAASwGY+ia7XHzQ8wmTcMw2Bb8fEnIFU9wJKLq1ehb3OD
IcJDEwxeiarHBTV5k2KQ1l0TH9F6oLyeEKdmfEYKsFdsv+ZUOTghbBJccczTWl9t
t6eG37Pf7sLniUGWNfYvSrWjQjBAMB0GA1UdDgQWBBQrywEMY8NTEqWoV6/QnIP7
vZA6SzAPBgNVHRMBAf8EBTADAQH/MA4GA1UdDwEB/wQEAwIBBjAKBggqhkjOPQQD
AwNoADBlAjEA1rxIkodHA8dwOyW2H65GZ3N0ACdL5KUEogPfXiitbl4DyN1onLa/
lBBIlS8P/xiLAjABQDOel5dNBfJ0VAzNOf1qawnBJD9hjjiht+jXRBURYv8OYTdH
S0B/Sl+yZ1pzdcI=
-----END CERTIFICATE-----
