##
##  thawte Primary Root CA - G2
##
##  This is a single X.509 certificate for a public Certificate
##  Authority (CA). It was automatically extracted from Mozilla's
##  root CA list (the file `certdata.txt' in security/nss).
##
##  Extracted from nss
##  with $FreeBSD: head/secure/caroot/MAca-bundle.pl 352951 2019-10-02 01:27:50Z kevans $
##
##  @generated
##
Certificate:
    Data:
        Version: 3 (0x2)
        Serial Number:
            35:fc:26:5c:d9:84:4f:c9:3d:26:3d:57:9b:ae:d7:56
        Signature Algorithm: ecdsa-with-SHA384
        Issuer: C = US, O = "thawte, Inc.", OU = "(c) 2007 thawte, Inc. - For authorized use only", CN = thawte Primary Root CA - G2
        Validity
            Not Before: Nov  5 00:00:00 2007 GMT
            Not After : Jan 18 23:59:59 2038 GMT
        Subject: C = US, O = "thawte, Inc.", OU = "(c) 2007 thawte, Inc. - For authorized use only", CN = thawte Primary Root CA - G2
        Subject Public Key Info:
            Public Key Algorithm: id-ecPublicKey
                Public-Key: (384 bit)
                pub:
                    04:a2:d5:9c:82:7b:95:9d:f1:52:78:87:fe:8a:16:
                    bf:05:e6:df:a3:02:4f:0d:07:c6:00:51:ba:0c:02:
                    52:2d:22:a4:42:39:c4:fe:8f:ea:c9:c1:be:d4:4d:
                    ff:9f:7a:9e:e2:b1:7c:9a:ad:a7:86:09:73:87:d1:
                    e7:9a:e3:7a:a5:aa:6e:fb:ba:b3:70:c0:67:88:a2:
                    35:d4:a3:9a:b1:fd:ad:c2:ef:31:fa:a8:b9:f3:fb:
                    08:c6:91:d1:fb:29:95
                ASN1 OID: secp384r1
                NIST CURVE: P-384
        X509v3 extensions:
            X509v3 Basic Constraints: critical
                CA:TRUE
            X509v3 Key Usage: critical
                Certificate Sign, CRL Sign
            X509v3 Subject Key Identifier: 
                9A:D8:00:30:00:E7:6B:7F:85:18:EE:8B:B6:CE:8A:0C:F8:11:E1:BB
    Signature Algorithm: ecdsa-with-SHA384
    Signature Value:
        30:66:02:31:00:dd:f8:e0:57:47:5b:a7:e6:0a:c3:bd:f5:80:
        8a:97:35:0d:1b:89:3c:54:86:77:28:ca:a1:f4:79:de:b5:e6:
        38:b0:f0:65:70:8c:7f:02:54:c2:bf:ff:d8:a1:3e:d9:cf:02:
        31:00:c4:8d:94:fc:dc:53:d2:dc:9d:78:16:1f:15:33:23:53:
        52:e3:5a:31:5d:9d:ca:ae:bd:13:29:44:0d:27:5b:a8:e7:68:
        9c:12:f7:58:3f:2e:72:02:57:a3:8f:a1:14:2e
SHA1 Fingerprint=AA:DB:BC:22:23:8F:C4:01:A1:27:BB:38:DD:F4:1D:DB:08:9E:F0:12
-----BEGIN CERTIFICATE-----
MIICiDCCAg2gAwIBAgIQNfwmXNmET8k9Jj1Xm67XVjAKBggqhkjOPQQDAzCBhDEL
MAkGA1UEBhMCVVMxFTATBgNVBAoTDHRoYXd0ZSwgSW5jLjE4MDYGA1UECxMvKGMp
IDIwMDcgdGhhd3RlLCBJbmMuIC0gRm9yIGF1dGhvcml6ZWQgdXNlIG9ubHkxJDAi
BgNVBAMTG3RoYXd0ZSBQcmltYXJ5IFJvb3QgQ0EgLSBHMjAeFw0wNzExMDUwMDAw
MDBaFw0zODAxMTgyMzU5NTlaMIGEMQswCQYDVQQGEwJVUzEVMBMGA1UEChMMdGhh
d3RlLCBJbmMuMTgwNgYDVQQLEy8oYykgMjAwNyB0aGF3dGUsIEluYy4gLSBGb3Ig
YXV0aG9yaXplZCB1c2Ugb25seTEkMCIGA1UEAxMbdGhhd3RlIFByaW1hcnkgUm9v
dCBDQSAtIEcyMHYwEAYHKoZIzj0CAQYFK4EEACIDYgAEotWcgnuVnfFSeIf+iha/
BebfowJPDQfGAFG6DAJSLSKkQjnE/o/qycG+1E3/n3qe4rF8mq2nhglzh9HnmuN6
papu+7qzcMBniKI11KOasf2twu8x+qi58/sIxpHR+ymVo0IwQDAPBgNVHRMBAf8E
BTADAQH/MA4GA1UdDwEB/wQEAwIBBjAdBgNVHQ4EFgQUmtgAMADna3+FGO6Lts6K
DPgR4bswCgYIKoZIzj0EAwMDaQAwZgIxAN344FdHW6fmCsO99YCKlzUNG4k8VIZ3
KMqh9HneteY4sPBlcIx/AlTCv//YoT7ZzwIxAMSNlPzcU9LcnXgWHxUzI1NS41ox
XZ3Krr0TKUQNJ1uo52icEvdYPy5yAlejj6EULg==
-----END CERTIFICATE-----
