##
##  TrustAsia SMIME RSA Root CA
##
##  This is a single X.509 certificate for a public Certificate
##  Authority (CA). It was automatically extracted from Mozilla's
##  root CA list (the file `certdata.txt' in security/nss)
##  licensed under the MPL 2.0, http://mozilla.org/MPL/2.0/.
##
##  @generated
##
Certificate:
    Data:
        Version: 3 (0x2)
        Serial Number:
            5a:ee:71:df:de:0c:57:85:b5:bb:36:22:d7:b8:76:46:02:73:ca:ff
        Signature Algorithm: sha384WithRSAEncryption
        Issuer: C=CN, O=TrustAsia Technologies, Inc., CN=TrustAsia SMIME RSA Root CA
        Validity
            Not Before: May 15 05:42:01 2024 GMT
            Not After : May 15 05:42:00 2044 GMT
        Subject: C=CN, O=TrustAsia Technologies, Inc., CN=TrustAsia SMIME RSA Root CA
        Subject Public Key Info:
            Public Key Algorithm: rsaEncryption
                Public-Key: (4096 bit)
                Modulus:
                    00:98:95:9c:ad:3c:59:73:d3:93:76:a6:48:54:a6:
                    1c:88:72:4c:4d:e1:82:ff:1a:13:1f:50:de:8c:d9:
                    90:42:d1:bc:99:d3:37:a3:d7:71:3a:ca:dd:5e:1b:
                    90:61:42:6e:8f:40:01:73:7d:1f:31:ba:d4:1d:6e:
                    04:d2:aa:90:84:4a:33:0a:44:9f:5a:19:1f:b4:6e:
                    2d:68:fc:af:c0:9f:4a:10:12:bf:3e:82:c2:82:b0:
                    2f:e7:90:6f:90:64:10:83:ec:ec:36:94:0c:7c:4f:
                    e0:02:0d:3d:87:79:42:4d:00:e5:30:ae:70:1f:15:
                    fd:fa:cf:52:25:36:4d:79:20:bb:f1:10:98:e0:60:
                    87:c9:f5:78:0c:22:ed:02:e6:11:6c:f1:9b:5a:91:
                    11:74:86:d0:fe:78:92:96:04:c3:98:ef:c6:70:af:
                    a9:90:aa:16:f6:22:ed:d8:fa:46:28:71:e2:c9:08:
                    c0:50:bc:76:a3:ba:2d:96:f2:11:f9:a4:bd:10:56:
                    f8:27:6d:2b:4b:64:88:dc:17:5d:cf:00:08:8a:92:
                    ae:1a:cc:12:d7:df:f0:10:28:f3:cd:3a:ea:3a:12:
                    8c:1b:e7:61:09:43:6a:e4:38:e9:fe:74:39:db:cd:
                    0a:3b:c3:4f:53:d6:ae:71:d5:38:83:87:1f:ce:e7:
                    4c:f3:11:55:87:df:b7:af:f7:eb:1a:86:10:6d:a8:
                    ed:48:dd:32:d0:db:aa:2a:0b:72:77:29:77:fd:7a:
                    e8:3f:78:20:2a:68:be:de:6f:08:e6:b5:85:47:80:
                    37:f9:71:96:8b:a5:98:56:97:7c:11:65:16:8e:d4:
                    ce:d8:27:d4:f9:5a:c5:a7:8d:bb:d1:37:0d:a5:ab:
                    65:5d:da:74:93:88:5e:db:75:f6:7f:9b:c2:9a:b1:
                    6d:08:02:0c:98:4a:bb:cd:30:af:76:35:02:85:56:
                    23:51:09:40:09:05:f7:f0:3d:1e:c2:c8:7a:1a:ba:
                    c5:41:15:b9:0d:76:b4:b4:a4:b8:45:fd:8d:a3:3b:
                    3d:03:2a:cd:b3:95:7f:34:7b:dd:a1:4f:d9:3a:ff:
                    27:f5:0d:c2:01:9c:ff:59:75:5a:1a:c9:e7:d2:fd:
                    7f:4f:0f:b5:fe:0d:3c:e6:a0:d6:fb:b5:76:5c:b4:
                    30:4d:10:3f:fe:e2:eb:5a:0e:b1:4f:4f:50:7e:08:
                    33:02:91:57:32:49:89:a7:40:10:50:17:6b:9f:63:
                    ba:b2:b2:56:98:76:f4:ff:72:e9:04:9c:d4:a7:4c:
                    4f:f6:3a:1f:5a:54:31:6f:cb:ba:32:ad:f8:6d:af:
                    45:c7:7b:63:44:df:c2:fd:78:e8:4a:8a:b0:74:75:
                    16:de:8f
                Exponent: 65537 (0x10001)
        X509v3 extensions:
            X509v3 Basic Constraints: critical
                CA:TRUE
            X509v3 Subject Key Identifier: 
                80:1A:AA:43:C1:C9:7F:8B:1A:96:45:BC:3D:BB:6B:48:52:6C:5B:AB
            X509v3 Key Usage: critical
                Certificate Sign, CRL Sign
    Signature Algorithm: sha384WithRSAEncryption
    Signature Value:
        2a:75:81:a1:82:20:ea:7f:56:ae:09:30:97:10:78:f4:d9:40:
        14:52:a4:ee:6a:7f:f0:09:28:d6:10:63:e0:4e:7b:c9:31:c7:
        08:a5:17:eb:af:86:e2:97:07:4f:a9:0e:a2:85:cc:ed:a4:80:
        81:1d:5a:53:06:3c:4c:1a:a9:b7:84:86:cf:7c:f5:85:0a:70:
        99:d0:ed:36:91:8d:e7:77:2e:ce:84:9c:28:86:2d:25:35:8c:
        4c:01:e6:7d:db:61:5d:e2:77:84:d3:01:d1:62:dd:0c:a2:0a:
        64:a4:fc:f0:ed:3a:48:f2:39:ec:35:d6:a1:7a:17:71:ec:d3:
        d2:ec:b8:26:fb:ad:15:70:56:4a:cf:64:c0:b9:60:5b:f7:e6:
        cd:a0:c2:03:2b:f9:b2:e5:da:ba:a5:37:1c:d8:8d:da:79:74:
        2a:67:e4:a2:7a:c7:2c:8d:a5:c1:6a:81:6c:cc:f5:a9:39:6a:
        22:7d:a2:e2:08:cd:e9:93:db:ba:cb:1f:75:77:9e:f7:98:af:
        14:e4:3b:a0:4c:a7:72:e7:b5:5e:53:49:cc:ff:92:57:f1:59:
        2b:09:ba:e9:52:93:c0:0f:45:0b:61:d6:6c:59:73:0b:d8:f9:
        01:2f:da:03:4f:37:1c:f4:df:83:5e:0b:41:a0:b1:7c:39:00:
        a1:6c:d0:d8:b4:91:72:2b:1b:3f:a2:9a:d1:c4:df:2b:d5:c8:
        95:7d:84:cd:76:1b:dc:e4:24:c6:3f:15:22:3d:85:a7:42:2b:
        ed:7e:71:59:61:48:c2:3d:91:63:40:7c:29:b3:80:16:0a:25:
        fc:18:60:0e:53:ad:0e:2a:ce:fc:41:3a:cd:b1:e4:6a:6b:cc:
        39:6d:c8:4d:65:b8:aa:93:88:78:6e:0f:02:8b:e0:96:8e:74:
        1f:d0:7e:e1:74:b7:f6:81:6a:e4:23:ac:8e:fd:8f:35:1d:9a:
        71:0a:4f:2a:55:2f:fe:18:c1:00:f7:7b:48:8a:65:af:6f:08:
        1d:43:e7:5a:b8:1f:a4:e8:03:eb:fd:4c:b5:b4:93:a8:31:de:
        43:9d:12:bd:e7:e9:a4:d2:df:6f:fc:6f:46:a3:ef:31:4e:8d:
        17:ab:1b:a9:e0:f8:a9:34:56:a1:0e:e7:74:ec:a8:87:85:d8:
        77:35:4b:8d:3e:6e:72:7c:48:cc:1f:72:b3:71:74:d4:24:86:
        bc:c8:c0:e3:79:14:01:ce:d9:fa:81:c6:5c:b3:f9:5d:0c:38:
        be:ce:f2:8e:8d:5f:3d:25:e1:51:39:23:a8:ea:00:8e:04:b3:
        bf:72:a0:c2:ba:83:fb:cd:a4:97:75:20:9a:bf:a7:50:e2:dd:
        ad:2c:1f:f4:3f:a3:c8:31
SHA1 Fingerprint=8C:69:21:7C:CE:49:73:36:5A:5C:EF:2B:B0:86:97:50:E3:E3:33:65
-----BEGIN CERTIFICATE-----
MIIFhDCCA2ygAwIBAgIUWu5x394MV4W1uzYi17h2RgJzyv8wDQYJKoZIhvcNAQEM
BQAwWjELMAkGA1UEBhMCQ04xJTAjBgNVBAoTHFRydXN0QXNpYSBUZWNobm9sb2dp
ZXMsIEluYy4xJDAiBgNVBAMTG1RydXN0QXNpYSBTTUlNRSBSU0EgUm9vdCBDQTAe
Fw0yNDA1MTUwNTQyMDFaFw00NDA1MTUwNTQyMDBaMFoxCzAJBgNVBAYTAkNOMSUw
IwYDVQQKExxUcnVzdEFzaWEgVGVjaG5vbG9naWVzLCBJbmMuMSQwIgYDVQQDExtU
cnVzdEFzaWEgU01JTUUgUlNBIFJvb3QgQ0EwggIiMA0GCSqGSIb3DQEBAQUAA4IC
DwAwggIKAoICAQCYlZytPFlz05N2pkhUphyIckxN4YL/GhMfUN6M2ZBC0byZ0zej
13E6yt1eG5BhQm6PQAFzfR8xutQdbgTSqpCESjMKRJ9aGR+0bi1o/K/An0oQEr8+
gsKCsC/nkG+QZBCD7Ow2lAx8T+ACDT2HeUJNAOUwrnAfFf36z1IlNk15ILvxEJjg
YIfJ9XgMIu0C5hFs8ZtakRF0htD+eJKWBMOY78Zwr6mQqhb2Iu3Y+kYoceLJCMBQ
vHajui2W8hH5pL0QVvgnbStLZIjcF13PAAiKkq4azBLX3/AQKPPNOuo6Eowb52EJ
Q2rkOOn+dDnbzQo7w09T1q5x1TiDhx/O50zzEVWH37ev9+sahhBtqO1I3TLQ26oq
C3J3KXf9eug/eCAqaL7ebwjmtYVHgDf5cZaLpZhWl3wRZRaO1M7YJ9T5WsWnjbvR
Nw2lq2Vd2nSTiF7bdfZ/m8KasW0IAgyYSrvNMK92NQKFViNRCUAJBffwPR7CyHoa
usVBFbkNdrS0pLhF/Y2jOz0DKs2zlX80e92hT9k6/yf1DcIBnP9ZdVoayefS/X9P
D7X+DTzmoNb7tXZctDBNED/+4utaDrFPT1B+CDMCkVcySYmnQBBQF2ufY7qyslaY
dvT/cukEnNSnTE/2Oh9aVDFvy7oyrfhtr0XHe2NE38L9eOhKirB0dRbejwIDAQAB
o0IwQDAPBgNVHRMBAf8EBTADAQH/MB0GA1UdDgQWBBSAGqpDwcl/ixqWRbw9u2tI
UmxbqzAOBgNVHQ8BAf8EBAMCAQYwDQYJKoZIhvcNAQEMBQADggIBACp1gaGCIOp/
Vq4JMJcQePTZQBRSpO5qf/AJKNYQY+BOe8kxxwilF+uvhuKXB0+pDqKFzO2kgIEd
WlMGPEwaqbeEhs989YUKcJnQ7TaRjed3Ls6EnCiGLSU1jEwB5n3bYV3id4TTAdFi
3QyiCmSk/PDtOkjyOew11qF6F3Hs09LsuCb7rRVwVkrPZMC5YFv35s2gwgMr+bLl
2rqlNxzYjdp5dCpn5KJ6xyyNpcFqgWzM9ak5aiJ9ouIIzemT27rLH3V3nveYrxTk
O6BMp3LntV5TScz/klfxWSsJuulSk8APRQth1mxZcwvY+QEv2gNPNxz034NeC0Gg
sXw5AKFs0Ni0kXIrGz+imtHE3yvVyJV9hM12G9zkJMY/FSI9hadCK+1+cVlhSMI9
kWNAfCmzgBYKJfwYYA5TrQ4qzvxBOs2x5GprzDltyE1luKqTiHhuDwKL4JaOdB/Q
fuF0t/aBauQjrI79jzUdmnEKTypVL/4YwQD3e0iKZa9vCB1D51q4H6ToA+v9TLW0
k6gx3kOdEr3n6aTS32/8b0aj7zFOjRerG6ng+Kk0VqEO53TsqIeF2Hc1S40+bnJ8
SMwfcrNxdNQkhrzIwON5FAHO2fqBxlyz+V0MOL7O8o6NXz0l4VE5I6jqAI4Es79y
oMK6g/vNpJd1IJq/p1Di3a0sH/Q/o8gx
-----END CERTIFICATE-----
