##
##  TrustAsia SMIME ECC Root CA
##
##  This is a single X.509 certificate for a public Certificate
##  Authority (CA). It was automatically extracted from Mozilla's
##  root CA list (the file `certdata.txt' in security/nss)
##  licensed under the MPL 2.0, http://mozilla.org/MPL/2.0/.
##
##  @generated
##
Certificate:
    Data:
        Version: 3 (0x2)
        Serial Number:
            5a:c2:f8:29:4f:e3:7d:c5:5e:1d:18:6f:3b:93:20:1f:ff:7b:ba:2d
        Signature Algorithm: ecdsa-with-SHA384
        Issuer: C=CN, O=TrustAsia Technologies, Inc., CN=TrustAsia SMIME ECC Root CA
        Validity
            Not Before: May 15 05:41:59 2024 GMT
            Not After : May 15 05:41:58 2044 GMT
        Subject: C=CN, O=TrustAsia Technologies, Inc., CN=TrustAsia SMIME ECC Root CA
        Subject Public Key Info:
            Public Key Algorithm: id-ecPublicKey
                Public-Key: (384 bit)
                pub:
                    04:cd:d9:fb:27:bd:69:ec:86:c9:90:43:b1:70:17:
                    94:a7:c9:77:23:3a:3f:23:65:d3:1c:a3:1d:1e:42:
                    54:20:eb:d0:42:bb:59:b9:8b:ac:f2:86:8d:4b:8e:
                    1d:aa:96:22:23:39:76:6d:92:9b:eb:22:cb:7a:43:
                    a2:73:fd:73:4b:c2:25:0f:2a:b1:69:c6:ff:45:df:
                    a9:3c:95:80:bb:a9:1e:4a:93:2f:ec:1c:1d:88:f4:
                    11:92:37:9f:37:98:72
                ASN1 OID: secp384r1
                NIST CURVE: P-384
        X509v3 extensions:
            X509v3 Basic Constraints: critical
                CA:TRUE
            X509v3 Subject Key Identifier: 
                31:67:E6:72:B2:0D:E6:22:A0:AC:CF:7E:22:A7:59:32:E3:66:23:A5
            X509v3 Key Usage: critical
                Certificate Sign, CRL Sign
    Signature Algorithm: ecdsa-with-SHA384
    Signature Value:
        30:66:02:31:00:dd:3a:4c:8d:a4:c6:7f:ed:bd:a5:c6:4f:3e:
        fd:31:4b:28:d6:8a:56:df:65:16:77:87:4d:fb:ba:32:08:81:
        e0:9e:33:48:8b:9f:94:86:ef:01:2b:94:e6:8c:d6:d4:8e:02:
        31:00:9f:81:9c:b0:26:fd:2b:d6:f2:f5:71:84:9e:a8:c7:8a:
        8c:d6:58:11:52:b5:b8:04:cb:cc:71:75:63:e2:c6:19:38:d9:
        6d:6c:19:71:a4:16:19:21:93:ba:06:44:28:6c
SHA1 Fingerprint=8C:0D:AA:FE:13:FA:59:F2:DB:9D:0C:97:DA:12:A2:45:1A:02:13:54
-----BEGIN CERTIFICATE-----
MIICNjCCAbugAwIBAgIUWsL4KU/jfcVeHRhvO5MgH/97ui0wCgYIKoZIzj0EAwMw
WjELMAkGA1UEBhMCQ04xJTAjBgNVBAoTHFRydXN0QXNpYSBUZWNobm9sb2dpZXMs
IEluYy4xJDAiBgNVBAMTG1RydXN0QXNpYSBTTUlNRSBFQ0MgUm9vdCBDQTAeFw0y
NDA1MTUwNTQxNTlaFw00NDA1MTUwNTQxNThaMFoxCzAJBgNVBAYTAkNOMSUwIwYD
VQQKExxUcnVzdEFzaWEgVGVjaG5vbG9naWVzLCBJbmMuMSQwIgYDVQQDExtUcnVz
dEFzaWEgU01JTUUgRUNDIFJvb3QgQ0EwdjAQBgcqhkjOPQIBBgUrgQQAIgNiAATN
2fsnvWnshsmQQ7FwF5SnyXcjOj8jZdMcox0eQlQg69BCu1m5i6zyho1Ljh2qliIj
OXZtkpvrIst6Q6Jz/XNLwiUPKrFpxv9F36k8lYC7qR5Kky/sHB2I9BGSN583mHKj
QjBAMA8GA1UdEwEB/wQFMAMBAf8wHQYDVR0OBBYEFDFn5nKyDeYioKzPfiKnWTLj
ZiOlMA4GA1UdDwEB/wQEAwIBBjAKBggqhkjOPQQDAwNpADBmAjEA3TpMjaTGf+29
pcZPPv0xSyjWilbfZRZ3h037ujIIgeCeM0iLn5SG7wErlOaM1tSOAjEAn4GcsCb9
K9by9XGEnqjHiozWWBFStbgEy8xxdWPixhk42W1sGXGkFhkhk7oGRChs
-----END CERTIFICATE-----
