##
##  TWCA Global Root CA G2
##
##  This is a single X.509 certificate for a public Certificate
##  Authority (CA). It was automatically extracted from Mozilla's
##  root CA list (the file `certdata.txt' in security/nss)
##  licensed under the MPL 2.0, http://mozilla.org/MPL/2.0/.
##
##  @generated
##
Certificate:
    Data:
        Version: 3 (0x2)
        Serial Number:
            40:01:34:8c:c2:00:00:00:00:00:00:00:01:97:58:f4
        Signature Algorithm: sha384WithRSAEncryption
        Issuer: C=TW, O=TAIWAN-CA, OU=Root CA, CN=TWCA Global Root CA G2
        Validity
            Not Before: Nov 22 06:42:21 2022 GMT
            Not After : Nov 22 15:59:59 2047 GMT
        Subject: C=TW, O=TAIWAN-CA, OU=Root CA, CN=TWCA Global Root CA G2
        Subject Public Key Info:
            Public Key Algorithm: rsaEncryption
                Public-Key: (4096 bit)
                Modulus:
                    00:aa:0e:d5:20:92:01:ad:82:f9:0c:08:91:34:6b:
                    8a:16:d0:46:16:ff:03:b8:d8:8d:ea:93:34:fb:ff:
                    2b:bd:fd:6e:aa:dc:9b:f2:86:81:55:f5:89:1c:c4:
                    8d:75:6a:58:78:91:13:1e:02:13:70:3d:ef:be:0a:
                    e7:00:8f:b8:31:e5:74:c5:30:be:ff:7d:d6:99:e5:
                    c2:42:a3:cf:21:d6:b3:08:7f:91:d5:61:e6:a2:95:
                    10:0d:ef:5e:97:0b:49:38:d5:22:b0:d7:8b:59:6f:
                    9f:35:9b:7f:d2:91:cc:7a:7f:bb:a0:9f:de:55:33:
                    f6:4b:8d:0a:ea:7d:09:c0:79:dc:bd:44:e2:fe:1c:
                    e7:64:21:28:cf:04:4a:e2:b4:bf:86:79:2a:bb:0e:
                    93:c9:8f:5e:ac:30:39:52:90:07:b9:ea:9c:26:42:
                    14:c4:67:46:fe:d1:1a:68:a1:3e:50:19:a3:26:0a:
                    27:29:90:c2:f6:b4:eb:73:9a:78:1e:e1:98:f4:65:
                    0c:35:21:06:f8:0b:de:62:e5:4d:c1:b3:5d:d9:b9:
                    fa:61:97:2a:e3:ea:c7:44:55:24:92:fe:12:a7:3f:
                    c4:77:e0:2d:02:81:07:d5:fb:7d:e6:10:9e:3a:b4:
                    a8:ef:ec:fb:50:ea:35:cf:cc:7e:bb:42:b9:44:6c:
                    52:e9:bf:2a:72:1f:3f:de:9b:70:e9:dc:5a:c5:3b:
                    bb:bf:f0:59:85:af:2f:c1:b0:14:79:05:ac:75:9f:
                    25:f5:11:27:06:60:21:c7:6d:65:be:a8:89:9c:e5:
                    ac:46:df:f8:5d:44:03:8d:60:bd:f7:b1:0d:cc:2f:
                    ef:41:54:2f:ee:6b:95:b9:4e:7c:34:df:3b:f9:77:
                    9d:7d:cd:07:3d:1c:06:33:12:80:ec:72:9c:f2:2d:
                    82:da:d5:3b:c4:c7:f9:04:c3:64:02:7c:f5:35:60:
                    a7:b4:46:29:2e:1b:ef:a5:58:80:2e:7a:89:51:38:
                    36:3c:fd:a1:77:b8:80:30:d0:8a:de:8d:a7:34:26:
                    ec:23:bb:18:55:18:36:45:ee:ed:01:06:aa:4d:bf:
                    64:0c:ca:98:97:1a:31:02:66:f8:78:68:5b:88:df:
                    09:a8:e7:9b:fa:34:6d:70:1c:21:ad:08:8b:f2:a1:
                    b6:ac:76:6a:bf:f1:80:25:00:be:3c:1e:4d:ae:b9:
                    3c:b6:95:63:bd:6b:7e:47:12:90:55:45:11:8d:ec:
                    17:1f:c1:be:27:81:93:57:63:69:00:26:77:8b:c3:
                    59:e5:7b:d1:0d:44:f2:a8:f0:f7:85:9a:05:f7:c2:
                    2e:70:9a:93:85:d8:95:90:31:90:54:a6:ec:0b:9f:
                    37:45:0f
                Exponent: 65537 (0x10001)
        X509v3 extensions:
            X509v3 Key Usage: critical
                Certificate Sign, CRL Sign
            X509v3 Basic Constraints: critical
                CA:TRUE
            X509v3 Authority Key Identifier: 
                92:8C:D4:36:D1:5B:47:53:C4:71:0D:84:DD:64:2A:F5:36:64:40:E7
            X509v3 Subject Key Identifier: 
                92:8C:D4:36:D1:5B:47:53:C4:71:0D:84:DD:64:2A:F5:36:64:40:E7
    Signature Algorithm: sha384WithRSAEncryption
    Signature Value:
        25:fc:4b:da:90:b4:da:75:e7:41:3a:81:d1:a6:fe:a0:6a:f3:
        18:71:62:6a:24:08:8b:a9:7a:4d:c9:55:ce:cf:10:28:2e:04:
        19:96:05:cf:5d:02:20:2a:3b:b3:55:3f:01:cd:42:cd:b2:77:
        ed:ff:75:f3:7c:77:db:96:a5:cf:8c:67:06:f4:a4:9b:72:f6:
        21:49:09:98:a3:32:5e:77:5a:63:09:ef:62:43:97:02:38:b5:
        ea:3c:18:50:68:fc:59:5b:d9:79:d4:f1:e4:56:48:13:56:d8:
        d3:71:0b:5e:78:94:38:11:45:fa:05:17:f5:0e:75:1e:62:52:
        61:46:ba:2e:19:ad:86:b4:88:0f:b1:50:e6:40:00:34:1a:95:
        9d:93:e0:51:f9:d4:55:46:e9:95:3c:25:86:2e:97:d7:01:31:
        18:44:ec:1c:60:e9:7d:69:af:32:f8:97:40:25:24:b6:8d:1a:
        55:3c:c5:b7:f7:bc:06:52:3b:71:30:70:3e:71:17:7e:f1:66:
        04:5e:5d:bc:8a:31:43:a6:92:1d:7b:54:d2:a5:36:8b:6f:8d:
        d6:5e:da:d4:c3:2e:1d:df:39:55:60:82:30:9e:27:ff:8e:80:
        dd:63:4c:a6:55:35:d8:d0:33:a9:80:6d:3e:5e:9d:cc:a8:67:
        80:66:fa:99:57:0c:52:ca:19:75:b0:38:35:55:2a:81:c5:8c:
        1e:56:d7:5f:90:f2:20:d8:da:e0:66:71:e9:b2:78:ab:67:b9:
        24:6e:6b:36:72:fc:6f:8d:fd:7f:72:39:28:67:52:91:05:1f:
        57:65:d2:a3:a7:0d:61:fa:a1:e7:d5:35:46:95:c9:06:87:f6:
        30:ec:32:51:a9:ac:56:c0:21:4e:a3:14:74:05:3a:bc:e3:bf:
        6d:3d:4e:3f:5e:a5:a4:6d:29:bf:84:51:75:53:8e:86:1a:f5:
        51:70:2a:0d:1c:4e:40:e1:fd:a3:e3:a5:2b:67:90:92:c7:6c:
        ae:85:bf:3a:9b:17:15:ca:9c:2a:93:d4:4d:39:0d:bc:20:08:
        a3:8d:88:6c:09:0d:8c:ae:44:21:4d:c9:71:ec:d8:26:d7:17:
        9e:2d:11:18:3c:a3:22:7d:b8:27:54:bf:68:c8:3b:42:cc:8f:
        5e:4e:e7:dc:c2:c5:fa:6a:44:0f:8d:56:88:7a:df:89:84:6c:
        a0:b3:3e:3d:f1:65:00:09:88:ea:2a:eb:40:ce:b3:5d:ac:32:
        17:ae:c1:9b:e9:d0:c1:f5:49:94:dd:a7:ce:7c:5a:07:eb:ae:
        20:9c:17:30:92:69:93:72:f3:9a:5b:71:9b:fe:6a:df:7a:30:
        69:8e:b3:2e:db:0f:2c:dd
SHA1 Fingerprint=73:FE:92:2F:83:63:91:FF:C8:C6:C4:DA:D6:20:2F:6B:07:2E:7F:1B
-----BEGIN CERTIFICATE-----
MIIFlTCCA32gAwIBAgIQQAE0jMIAAAAAAAAAAZdY9DANBgkqhkiG9w0BAQwFADBU
MQswCQYDVQQGEwJUVzESMBAGA1UEChMJVEFJV0FOLUNBMRAwDgYDVQQLEwdSb290
IENBMR8wHQYDVQQDExZUV0NBIEdsb2JhbCBSb290IENBIEcyMB4XDTIyMTEyMjA2
NDIyMVoXDTQ3MTEyMjE1NTk1OVowVDELMAkGA1UEBhMCVFcxEjAQBgNVBAoTCVRB
SVdBTi1DQTEQMA4GA1UECxMHUm9vdCBDQTEfMB0GA1UEAxMWVFdDQSBHbG9iYWwg
Um9vdCBDQSBHMjCCAiIwDQYJKoZIhvcNAQEBBQADggIPADCCAgoCggIBAKoO1SCS
Aa2C+QwIkTRrihbQRhb/A7jYjeqTNPv/K739bqrcm/KGgVX1iRzEjXVqWHiREx4C
E3A9774K5wCPuDHldMUwvv991pnlwkKjzyHWswh/kdVh5qKVEA3vXpcLSTjVIrDX
i1lvnzWbf9KRzHp/u6Cf3lUz9kuNCup9CcB53L1E4v4c52QhKM8ESuK0v4Z5KrsO
k8mPXqwwOVKQB7nqnCZCFMRnRv7RGmihPlAZoyYKJymQwva063OaeB7hmPRlDDUh
BvgL3mLlTcGzXdm5+mGXKuPqx0RVJJL+Eqc/xHfgLQKBB9X7feYQnjq0qO/s+1Dq
Nc/MfrtCuURsUum/KnIfP96bcOncWsU7u7/wWYWvL8GwFHkFrHWfJfURJwZgIcdt
Zb6oiZzlrEbf+F1EA41gvfexDcwv70FUL+5rlblOfDTfO/l3nX3NBz0cBjMSgOxy
nPItgtrVO8TH+QTDZAJ89TVgp7RGKS4b76VYgC56iVE4Njz9oXe4gDDQit6NpzQm
7CO7GFUYNkXu7QEGqk2/ZAzKmJcaMQJm+HhoW4jfCajnm/o0bXAcIa0Ii/Khtqx2
ar/xgCUAvjweTa65PLaVY71rfkcSkFVFEY3sFx/BvieBk1djaQAmd4vDWeV70Q1E
8qjw94WaBffCLnCak4XYlZAxkFSm7AufN0UPAgMBAAGjYzBhMA4GA1UdDwEB/wQE
AwIBBjAPBgNVHRMBAf8EBTADAQH/MB8GA1UdIwQYMBaAFJKM1DbRW0dTxHENhN1k
KvU2ZEDnMB0GA1UdDgQWBBSSjNQ20VtHU8RxDYTdZCr1NmRA5zANBgkqhkiG9w0B
AQwFAAOCAgEAJfxL2pC02nXnQTqB0ab+oGrzGHFiaiQIi6l6TclVzs8QKC4EGZYF
z10CICo7s1U/Ac1CzbJ37f9183x325alz4xnBvSkm3L2IUkJmKMyXndaYwnvYkOX
Aji16jwYUGj8WVvZedTx5FZIE1bY03ELXniUOBFF+gUX9Q51HmJSYUa6LhmthrSI
D7FQ5kAANBqVnZPgUfnUVUbplTwlhi6X1wExGETsHGDpfWmvMviXQCUkto0aVTzF
t/e8BlI7cTBwPnEXfvFmBF5dvIoxQ6aSHXtU0qU2i2+N1l7a1MMuHd85VWCCMJ4n
/46A3WNMplU12NAzqYBtPl6dzKhngGb6mVcMUsoZdbA4NVUqgcWMHlbXX5DyINja
4GZx6bJ4q2e5JG5rNnL8b439f3I5KGdSkQUfV2XSo6cNYfqh59U1RpXJBof2MOwy
UamsVsAhTqMUdAU6vOO/bT1OP16lpG0pv4RRdVOOhhr1UXAqDRxOQOH9o+OlK2eQ
ksdsroW/OpsXFcqcKpPUTTkNvCAIo42IbAkNjK5EIU3JcezYJtcXni0RGDyjIn24
J1S/aMg7QsyPXk7n3MLF+mpED41WiHrfiYRsoLM+PfFlAAmI6irrQM6zXawyF67B
m+nQwfVJlN2nznxaB+uuIJwXMJJpk3Lzmltxm/5q33owaY6zLtsPLN0=
-----END CERTIFICATE-----
