Certificate:
    Data:
        Version: 3 (0x2)
        Serial Number: 1 (0x1)
        Signature Algorithm: sha1WithRSAEncryption
        Issuer: CN=hx509 Test Root CA, C=SE
        Validity
            Not Before: Nov 15 06:58:56 2007 GMT
            Not After : Nov 12 06:58:56 2017 GMT
        Subject: C=SE, CN=OCSP responder
        Subject Public Key Info:
            Public Key Algorithm: rsaEncryption
            RSA Public Key: (1024 bit)
                Modulus (1024 bit):
                    00:d9:10:2f:04:de:99:10:61:02:ff:4e:b5:54:6f:
                    98:80:70:fb:a1:e0:97:ee:a9:0f:74:47:a9:8c:a5:
                    86:ff:b8:ea:80:d9:ae:45:07:bd:33:93:e2:f4:f1:
                    dd:dc:86:6e:9a:6c:b7:67:11:50:ad:9c:b0:0f:68:
                    5d:4d:74:2a:24:4e:5e:c6:c0:9e:6a:a2:ed:80:31:
                    d9:ac:79:c7:09:07:1f:9c:c3:12:33:88:72:9d:99:
                    c5:f4:fd:c6:a1:9f:09:04:e0:7d:b0:ed:1f:91:4c:
                    8e:de:9b:6d:7d:cb:2e:83:32:0e:32:57:f1:16:07:
                    ed:69:fc:0e:a8:2a:ad:82:9d
                Exponent: 65537 (0x10001)
        X509v3 extensions:
            X509v3 Basic Constraints: 
                CA:FALSE
            X509v3 Key Usage: 
                Digital Signature, Non Repudiation, Key Encipherment
            X509v3 Extended Key Usage: 
                OCSP No Check, OCSP Signing
            X509v3 Subject Key Identifier: 
                9C:BE:33:AF:C2:52:C6:F2:46:5F:A8:67:71:02:F1:70:4B:A7:B7:14
    Signature Algorithm: sha1WithRSAEncryption
        8b:c5:8e:d6:dc:ba:e3:77:da:66:2b:be:c4:a6:4c:b0:30:6d:
        fd:26:3d:8d:1d:ad:c5:8c:88:61:86:0a:da:48:e8:39:cf:c5:
        83:98:e7:f9:ff:92:a7:ba:fe:b4:b4:6c:bb:84:17:fd:e3:71:
        9e:a7:39:af:d3:08:0b:1f:05:29:cf:ef:e4:3c:82:7e:ee:aa:
        4a:19:3b:17:e6:e9:2d:b4:f7:4f:e2:f3:6b:04:20:58:42:fa:
        e2:b6:d4:80:c4:db:22:32:ce:cb:59:23:8b:df:ba:87:bb:bf:
        4e:ea:b0:1e:7a:73:b4:c9:06:aa:f1:59:cf:d3:28:db:d2:6c:
        a0:dd
-----BEGIN CERTIFICATE-----
MIICHzCCAYigAwIBAgIBATANBgkqhkiG9w0BAQUFADAqMRswGQYDVQQDDBJoeDUw
OSBUZXN0IFJvb3QgQ0ExCzAJBgNVBAYTAlNFMB4XDTA3MTExNTA2NTg1NloXDTE3
MTExMjA2NTg1NlowJjELMAkGA1UEBhMCU0UxFzAVBgNVBAMMDk9DU1AgcmVzcG9u
ZGVyMIGfMA0GCSqGSIb3DQEBAQUAA4GNADCBiQKBgQDZEC8E3pkQYQL/TrVUb5iA
cPuh4JfuqQ90R6mMpYb/uOqA2a5FB70zk+L08d3chm6abLdnEVCtnLAPaF1NdCok
Tl7GwJ5qou2AMdmseccJBx+cwxIziHKdmcX0/cahnwkE4H2w7R+RTI7em219yy6D
Mg4yV/EWB+1p/A6oKq2CnQIDAQABo1kwVzAJBgNVHRMEAjAAMAsGA1UdDwQEAwIF
4DAeBgNVHSUEFzAVBgkrBgEFBQcwAQUGCCsGAQUFBwMJMB0GA1UdDgQWBBScvjOv
wlLG8kZfqGdxAvFwS6e3FDANBgkqhkiG9w0BAQUFAAOBgQCLxY7W3Lrjd9pmK77E
pkywMG39Jj2NHa3FjIhhhgraSOg5z8WDmOf5/5Knuv60tGy7hBf943Gepzmv0wgL
HwUpz+/kPIJ+7qpKGTsX5ukttPdP4vNrBCBYQvrittSAxNsiMs7LWSOL37qHu79O
6rAeenO0yQaq8VnP0yjb0myg3Q==
-----END CERTIFICATE-----
