Certificate:
    Data:
        Version: 3 (0x2)
        Serial Number: 9 (0x9)
        Signature Algorithm: sha1WithRSAEncryption
        Issuer: CN=hx509 Test Root CA, C=SE
        Validity
            Not Before: Nov 15 06:58:59 2007 GMT
            Not After : Nov 12 06:58:59 2017 GMT
        Subject: C=SE, CN=Sub CA
        Subject Public Key Info:
            Public Key Algorithm: rsaEncryption
            RSA Public Key: (1024 bit)
                Modulus (1024 bit):
                    00:f3:ab:db:06:fa:f9:a1:84:35:a6:fb:a4:a9:39:
                    5f:54:10:a2:a4:3f:1a:ae:2c:7e:bd:dd:aa:63:4a:
                    7a:62:99:07:25:af:eb:62:b4:20:93:67:46:59:b4:
                    30:85:81:24:41:9d:49:97:fb:a3:ce:74:61:f7:ff:
                    d5:9e:b1:9b:d3:5a:8b:59:51:76:99:69:2a:73:02:
                    e9:2d:39:3f:21:b8:2f:f1:af:91:1f:f1:c3:e3:4d:
                    c0:e4:87:95:df:e7:d2:e7:27:a6:cd:c4:cf:97:e6:
                    b8:24:31:d1:66:d3:af:f8:06:8b:9c:81:bf:66:54:
                    53:08:0a:ee:15:71:b2:a5:a5
                Exponent: 65537 (0x10001)
        X509v3 extensions:
            X509v3 Subject Key Identifier: 
                36:04:CF:AD:8B:30:E2:5D:C0:43:8C:09:0B:4D:50:7B:1F:39:41:17
            X509v3 Authority Key Identifier: 
                keyid:8C:E7:0D:B5:C5:DE:69:85:75:2C:08:A1:DE:53:15:30:9C:A1:E8:00
                DirName:/CN=hx509 Test Root CA/C=SE
                serial:B7:94:5E:85:B2:19:80:58

            X509v3 Basic Constraints: 
                CA:TRUE
            X509v3 Key Usage: 
                Digital Signature, Non Repudiation, Key Encipherment, Certificate Sign, CRL Sign
    Signature Algorithm: sha1WithRSAEncryption
        5b:f9:bb:2c:d2:d6:4d:bb:20:b1:05:fc:67:45:de:9c:5e:83:
        35:24:9a:f6:33:bc:3d:ca:27:dc:be:3c:cb:c6:d7:c5:b4:d3:
        9e:c4:c2:60:4d:dc:21:2c:f4:88:ec:dd:41:37:58:63:45:d6:
        9b:32:7d:f8:e0:d1:41:0f:f3:30:20:7d:15:af:49:15:2b:cb:
        db:fe:90:6e:db:84:fa:92:a3:ac:83:25:5a:ab:49:7a:1e:2b:
        dc:c9:74:7b:9f:2b:62:a9:6f:ef:b9:89:72:4b:ea:02:5a:27:
        93:b7:9d:fd:e2:a3:73:04:52:d0:98:5a:a3:23:f5:02:56:b6:
        c6:8f
-----BEGIN CERTIFICATE-----
MIICWDCCAcGgAwIBAgIBCTANBgkqhkiG9w0BAQUFADAqMRswGQYDVQQDDBJoeDUw
OSBUZXN0IFJvb3QgQ0ExCzAJBgNVBAYTAlNFMB4XDTA3MTExNTA2NTg1OVoXDTE3
MTExMjA2NTg1OVowHjELMAkGA1UEBhMCU0UxDzANBgNVBAMMBlN1YiBDQTCBnzAN
BgkqhkiG9w0BAQEFAAOBjQAwgYkCgYEA86vbBvr5oYQ1pvukqTlfVBCipD8arix+
vd2qY0p6YpkHJa/rYrQgk2dGWbQwhYEkQZ1Jl/ujznRh9//VnrGb01qLWVF2mWkq
cwLpLTk/Ibgv8a+RH/HD403A5IeV3+fS5yemzcTPl+a4JDHRZtOv+AaLnIG/ZlRT
CAruFXGypaUCAwEAAaOBmTCBljAdBgNVHQ4EFgQUNgTPrYsw4l3AQ4wJC01Qex85
QRcwWgYDVR0jBFMwUYAUjOcNtcXeaYV1LAih3lMVMJyh6AChLqQsMCoxGzAZBgNV
BAMMEmh4NTA5IFRlc3QgUm9vdCBDQTELMAkGA1UEBhMCU0WCCQC3lF6FshmAWDAM
BgNVHRMEBTADAQH/MAsGA1UdDwQEAwIB5jANBgkqhkiG9w0BAQUFAAOBgQBb+bss
0tZNuyCxBfxnRd6cXoM1JJr2M7w9yifcvjzLxtfFtNOexMJgTdwhLPSI7N1BN1hj
RdabMn344NFBD/MwIH0Vr0kVK8vb/pBu24T6kqOsgyVaq0l6HivcyXR7nytiqW/v
uYlyS+oCWieTt5394qNzBFLQmFqjI/UCVrbGjw==
-----END CERTIFICATE-----
