##
##  AC RAIZ FNMT-RCM SERVIDORES SEGUROS
##
##  This is a single X.509 certificate for a public Certificate
##  Authority (CA). It was automatically extracted from Mozilla's
##  root CA list (the file `certdata.txt' in security/nss).
##
##  It contains a certificate trusted for server authentication.
##
##  Extracted from nss
##
##  @generated
##
Certificate:
    Data:
        Version: 3 (0x2)
        Serial Number:
            62:f6:32:6c:e5:c4:e3:68:5c:1b:62:dd:9c:2e:9d:95
        Signature Algorithm: ecdsa-with-SHA384
        Issuer: C = ES, O = FNMT-RCM, OU = Ceres, organizationIdentifier = VATES-Q2826004J, CN = AC RAIZ FNMT-RCM SERVIDORES SEGUROS
        Validity
            Not Before: Dec 20 09:37:33 2018 GMT
            Not After : Dec 20 09:37:33 2043 GMT
        Subject: C = ES, O = FNMT-RCM, OU = Ceres, organizationIdentifier = VATES-Q2826004J, CN = AC RAIZ FNMT-RCM SERVIDORES SEGUROS
        Subject Public Key Info:
            Public Key Algorithm: id-ecPublicKey
                Public-Key: (384 bit)
                pub:
                    04:f6:ba:57:53:c8:ca:ab:df:36:4a:52:21:e4:97:
                    d2:83:67:9e:f0:65:51:d0:5e:87:c7:47:b1:59:f2:
                    57:47:9b:00:02:93:44:17:69:db:42:c7:b1:b2:3a:
                    18:0e:b4:5d:8c:b3:66:5d:a1:34:f9:36:2c:49:db:
                    f3:46:fc:b3:44:69:44:13:66:fd:d7:c5:fd:af:36:
                    4d:ce:03:4d:07:71:cf:af:6a:05:d2:a2:43:5a:0a:
                    52:6f:01:03:4e:8e:8b
                ASN1 OID: secp384r1
                NIST CURVE: P-384
        X509v3 extensions:
            X509v3 Basic Constraints: critical
                CA:TRUE
            X509v3 Key Usage: critical
                Certificate Sign, CRL Sign
            X509v3 Subject Key Identifier: 
                01:B9:2F:EF:BF:11:86:60:F2:4F:D0:41:6E:AB:73:1F:E7:D2:6E:49
    Signature Algorithm: ecdsa-with-SHA384
    Signature Value:
        30:66:02:31:00:ae:4a:e3:2b:40:c3:74:11:f2:95:ad:16:23:
        de:4e:0c:1a:e6:5d:a5:24:5e:6b:44:7b:fc:38:e2:4f:cb:9c:
        45:17:11:4c:14:27:26:55:39:75:4a:03:cc:13:90:9f:92:02:
        31:00:fa:4a:6c:60:88:73:f3:ee:b8:98:62:a9:ce:2b:c2:d9:
        8a:a6:70:31:1d:af:b0:94:4c:eb:4f:c6:e3:d1:f3:62:a7:3c:
        ff:93:2e:07:5c:49:01:67:69:12:02:72:bf:e7
SHA1 Fingerprint=62:FF:D9:9E:C0:65:0D:03:CE:75:93:D2:ED:3F:2D:32:C9:E3:E5:4A
-----BEGIN CERTIFICATE-----
MIICbjCCAfOgAwIBAgIQYvYybOXE42hcG2LdnC6dlTAKBggqhkjOPQQDAzB4MQsw
CQYDVQQGEwJFUzERMA8GA1UECgwIRk5NVC1SQ00xDjAMBgNVBAsMBUNlcmVzMRgw
FgYDVQRhDA9WQVRFUy1RMjgyNjAwNEoxLDAqBgNVBAMMI0FDIFJBSVogRk5NVC1S
Q00gU0VSVklET1JFUyBTRUdVUk9TMB4XDTE4MTIyMDA5MzczM1oXDTQzMTIyMDA5
MzczM1oweDELMAkGA1UEBhMCRVMxETAPBgNVBAoMCEZOTVQtUkNNMQ4wDAYDVQQL
DAVDZXJlczEYMBYGA1UEYQwPVkFURVMtUTI4MjYwMDRKMSwwKgYDVQQDDCNBQyBS
QUlaIEZOTVQtUkNNIFNFUlZJRE9SRVMgU0VHVVJPUzB2MBAGByqGSM49AgEGBSuB
BAAiA2IABPa6V1PIyqvfNkpSIeSX0oNnnvBlUdBeh8dHsVnyV0ebAAKTRBdp20LH
sbI6GA60XYyzZl2hNPk2LEnb80b8s0RpRBNm/dfF/a82Tc4DTQdxz69qBdKiQ1oK
Um8BA06Oi6NCMEAwDwYDVR0TAQH/BAUwAwEB/zAOBgNVHQ8BAf8EBAMCAQYwHQYD
VR0OBBYEFAG5L++/EYZg8k/QQW6rcx/n0m5JMAoGCCqGSM49BAMDA2kAMGYCMQCu
SuMrQMN0EfKVrRYj3k4MGuZdpSRea0R7/DjiT8ucRRcRTBQnJlU5dUoDzBOQn5IC
MQD6SmxgiHPz7riYYqnOK8LZiqZwMR2vsJRM60/G49HzYqc8/5MuB1xJAWdpEgJy
v+c=
-----END CERTIFICATE-----
