##
##  ANF Secure Server Root CA
##
##  This is a single X.509 certificate for a public Certificate
##  Authority (CA). It was automatically extracted from Mozilla's
##  root CA list (the file `certdata.txt' in security/nss).
##
##  It contains a certificate trusted for server authentication.
##
##  Extracted from nss
##
##  @generated
##
Certificate:
    Data:
        Version: 3 (0x2)
        Serial Number: 996390341000653745 (0xdd3e3bc6cf96bb1)
        Signature Algorithm: sha256WithRSAEncryption
        Issuer: serialNumber = G63287510, C = ES, O = ANF Autoridad de Certificacion, OU = ANF CA Raiz, CN = ANF Secure Server Root CA
        Validity
            Not Before: Sep  4 10:00:38 2019 GMT
            Not After : Aug 30 10:00:38 2039 GMT
        Subject: serialNumber = G63287510, C = ES, O = ANF Autoridad de Certificacion, OU = ANF CA Raiz, CN = ANF Secure Server Root CA
        Subject Public Key Info:
            Public Key Algorithm: rsaEncryption
                Public-Key: (4096 bit)
                Modulus:
                    00:db:eb:6b:2b:e6:64:54:95:82:90:a3:72:a4:19:
                    01:9d:9c:0b:81:5f:73:49:ba:a7:ac:f3:04:4e:7b:
                    96:0b:ec:11:e0:5b:a6:1c:ce:1b:d2:0d:83:1c:2b:
                    b8:9e:1d:7e:45:32:60:0f:07:e9:77:58:7e:9f:6a:
                    c8:61:4e:b6:26:c1:4c:8d:ff:4c:ef:34:b2:1f:65:
                    d8:b9:78:f5:ad:a9:71:b9:ef:4f:58:1d:a5:de:74:
                    20:97:a1:ed:68:4c:de:92:17:4b:bc:ab:ff:65:9a:
                    9e:fb:47:d9:57:72:f3:09:a1:ae:76:44:13:6e:9c:
                    2d:44:39:bc:f9:c7:3b:a4:58:3d:41:bd:b4:c2:49:
                    a3:c8:0d:d2:97:2f:07:65:52:00:a7:6e:c8:af:68:
                    ec:f4:14:96:b6:57:1f:56:c3:39:9f:2b:6d:e4:f3:
                    3e:f6:35:64:da:0c:1c:a1:84:4b:2f:4b:4b:e2:2c:
                    24:9d:6d:93:40:eb:b5:23:8e:32:ca:6f:45:d3:a8:
                    89:7b:1e:cf:1e:fa:5b:43:8b:cd:cd:a8:0f:6a:ca:
                    0c:5e:b9:9e:47:8f:f0:d9:b6:0a:0b:58:65:17:33:
                    b9:23:e4:77:19:7d:cb:4a:2e:92:7b:4f:2f:10:77:
                    b1:8d:2f:68:9c:62:cc:e0:50:f8:ec:91:a7:54:4c:
                    57:09:d5:76:63:c5:e8:65:1e:ee:6d:6a:cf:09:9d:
                    fa:7c:4f:ad:60:08:fd:56:99:0f:15:2c:7b:a9:80:
                    ab:8c:61:8f:4a:07:76:42:de:3d:f4:dd:b2:24:33:
                    5b:b8:b5:a3:44:c9:ac:7f:77:3c:1d:23:ec:82:a9:
                    a6:e2:c8:06:4c:02:fe:ac:5c:99:99:0b:2f:10:8a:
                    a6:f4:7f:d5:87:74:0d:59:49:45:f6:f0:71:5c:39:
                    29:d6:bf:4a:23:8b:f5:5f:01:63:d2:87:73:28:b5:
                    4b:0a:f5:f8:ab:82:2c:7e:73:25:32:1d:0b:63:0a:
                    17:81:00:ff:b6:76:5e:e7:b4:b1:40:ca:21:bb:d5:
                    80:51:e5:48:52:67:2c:d2:61:89:07:0d:0f:ce:42:
                    77:c0:44:73:9c:44:50:a0:db:10:0a:2d:95:1c:81:
                    af:e4:1c:e5:14:1e:f1:36:41:01:02:2f:7d:73:a7:
                    de:42:cc:4c:e9:89:0d:56:f7:9f:91:d4:03:c6:6c:
                    c9:8f:db:d8:1c:e0:40:98:5d:66:99:98:80:6e:2d:
                    ff:01:c5:ce:cb:46:1f:ac:02:c6:43:e6:ae:a2:84:
                    3c:c5:4e:1e:3d:6d:c9:14:4c:e3:2e:41:bb:ca:39:
                    bf:36:3c:2a:19:aa:41:87:4e:a5:ce:4b:32:79:dd:
                    90:49:7f
                Exponent: 65537 (0x10001)
        X509v3 extensions:
            X509v3 Authority Key Identifier: 
                9C:5F:D0:6C:63:A3:5F:93:CA:93:98:08:AD:8C:87:A5:2C:5C:C1:37
            X509v3 Subject Key Identifier: 
                9C:5F:D0:6C:63:A3:5F:93:CA:93:98:08:AD:8C:87:A5:2C:5C:C1:37
            X509v3 Key Usage: critical
                Digital Signature, Certificate Sign, CRL Sign
            X509v3 Basic Constraints: critical
                CA:TRUE
    Signature Algorithm: sha256WithRSAEncryption
    Signature Value:
        4e:1e:b9:8a:c6:a0:98:3f:6e:c3:69:c0:6a:5c:49:52:ac:cb:
        2b:5d:78:38:c1:d5:54:84:9f:93:f0:87:19:3d:2c:66:89:eb:
        0d:42:fc:cc:f0:75:85:3f:8b:f4:80:5d:79:e5:17:67:bd:35:
        82:e2:f2:3c:8e:7d:5b:36:cb:5a:80:00:29:f2:ce:2b:2c:f1:
        8f:aa:6d:05:93:6c:72:c7:56:eb:df:50:23:28:e5:45:10:3d:
        e8:67:a3:af:0e:55:0f:90:09:62:ef:4b:59:a2:f6:53:f1:c0:
        35:e4:2f:c1:24:bd:79:2f:4e:20:22:3b:fd:1a:20:b0:a4:0e:
        2c:70:ed:74:3f:b8:13:95:06:51:c8:e8:87:26:ca:a4:5b:6a:
        16:21:92:dd:73:60:9e:10:18:de:3c:81:ea:e8:18:c3:7c:89:
        f2:8b:50:3e:bd:11:e2:15:03:a8:36:7d:33:01:6c:48:15:d7:
        88:90:99:04:c5:cc:e6:07:f4:bc:f4:90:ed:13:e2:ea:8b:c3:
        8f:a3:33:0f:c1:29:4c:13:4e:da:15:56:71:73:72:82:50:f6:
        9a:33:7c:a2:b1:a8:1a:34:74:65:5c:ce:d1:eb:ab:53:e0:1a:
        80:d8:ea:3a:49:e4:26:30:9b:e5:1c:8a:a8:a9:15:32:86:99:
        92:0a:10:23:56:12:e0:f6:ce:4c:e2:bb:be:db:8d:92:73:01:
        66:2f:62:3e:b2:72:27:45:36:ed:4d:56:e3:97:99:ff:3a:35:
        3e:a5:54:4a:52:59:4b:60:db:ee:fe:78:11:7f:4a:dc:14:79:
        60:b6:6b:64:03:db:15:83:e1:a2:be:f6:23:97:50:f0:09:33:
        36:a7:71:96:25:f3:b9:42:7d:db:38:3f:2c:58:ac:e8:42:e1:
        0e:d8:d3:3b:4c:2e:82:e9:83:2e:6b:31:d9:dd:47:86:4f:6d:
        97:91:2e:4f:e2:28:71:35:16:d1:f2:73:fe:25:2b:07:47:24:
        63:27:c8:f8:f6:d9:6b:fc:12:31:56:08:c0:53:42:af:9c:d0:
        33:7e:fc:06:f0:31:44:03:14:f1:58:ea:f2:6a:0d:a9:11:b2:
        83:be:c5:1a:bf:07:ea:59:dc:a3:88:35:ef:9c:76:32:3c:4d:
        06:22:ce:15:e5:dd:9e:d8:8f:da:de:d2:c4:39:e5:17:81:cf:
        38:47:eb:7f:88:6d:59:1b:df:9f:42:14:ae:7e:cf:a8:b0:66:
        65:da:37:af:9f:aa:3d:ea:28:b6:de:d5:31:58:16:82:5b:ea:
        bb:19:75:02:73:1a:ca:48:1a:21:93:90:0a:8e:93:84:a7:7d:
        3b:23:18:92:89:a0:8d:ac
SHA1 Fingerprint=5B:6E:68:D0:CC:15:B6:A0:5F:1E:C1:5F:AE:02:FC:6B:2F:5D:6F:74
-----BEGIN CERTIFICATE-----
MIIF7zCCA9egAwIBAgIIDdPjvGz5a7EwDQYJKoZIhvcNAQELBQAwgYQxEjAQBgNV
BAUTCUc2MzI4NzUxMDELMAkGA1UEBhMCRVMxJzAlBgNVBAoTHkFORiBBdXRvcmlk
YWQgZGUgQ2VydGlmaWNhY2lvbjEUMBIGA1UECxMLQU5GIENBIFJhaXoxIjAgBgNV
BAMTGUFORiBTZWN1cmUgU2VydmVyIFJvb3QgQ0EwHhcNMTkwOTA0MTAwMDM4WhcN
MzkwODMwMTAwMDM4WjCBhDESMBAGA1UEBRMJRzYzMjg3NTEwMQswCQYDVQQGEwJF
UzEnMCUGA1UEChMeQU5GIEF1dG9yaWRhZCBkZSBDZXJ0aWZpY2FjaW9uMRQwEgYD
VQQLEwtBTkYgQ0EgUmFpejEiMCAGA1UEAxMZQU5GIFNlY3VyZSBTZXJ2ZXIgUm9v
dCBDQTCCAiIwDQYJKoZIhvcNAQEBBQADggIPADCCAgoCggIBANvrayvmZFSVgpCj
cqQZAZ2cC4Ffc0m6p6zzBE57lgvsEeBbphzOG9INgxwruJ4dfkUyYA8H6XdYfp9q
yGFOtibBTI3/TO80sh9l2Ll49a2pcbnvT1gdpd50IJeh7WhM3pIXS7yr/2WanvtH
2Vdy8wmhrnZEE26cLUQ5vPnHO6RYPUG9tMJJo8gN0pcvB2VSAKduyK9o7PQUlrZX
H1bDOZ8rbeTzPvY1ZNoMHKGESy9LS+IsJJ1tk0DrtSOOMspvRdOoiXsezx76W0OL
zc2oD2rKDF65nkeP8Nm2CgtYZRczuSPkdxl9y0oukntPLxB3sY0vaJxizOBQ+OyR
p1RMVwnVdmPF6GUe7m1qzwmd+nxPrWAI/VaZDxUse6mAq4xhj0oHdkLePfTdsiQz
W7i1o0TJrH93PB0j7IKppuLIBkwC/qxcmZkLLxCKpvR/1Yd0DVlJRfbwcVw5Kda/
SiOL9V8BY9KHcyi1Swr1+KuCLH5zJTIdC2MKF4EA/7Z2Xue0sUDKIbvVgFHlSFJn
LNJhiQcND85Cd8BEc5xEUKDbEAotlRyBr+Qc5RQe8TZBAQIvfXOn3kLMTOmJDVb3
n5HUA8ZsyY/b2BzgQJhdZpmYgG4t/wHFzstGH6wCxkPmrqKEPMVOHj1tyRRM4y5B
u8o5vzY8KhmqQYdOpc5LMnndkEl/AgMBAAGjYzBhMB8GA1UdIwQYMBaAFJxf0Gxj
o1+TypOYCK2Mh6UsXME3MB0GA1UdDgQWBBScX9BsY6Nfk8qTmAitjIelLFzBNzAO
BgNVHQ8BAf8EBAMCAYYwDwYDVR0TAQH/BAUwAwEB/zANBgkqhkiG9w0BAQsFAAOC
AgEATh65isagmD9uw2nAalxJUqzLK114OMHVVISfk/CHGT0sZonrDUL8zPB1hT+L
9IBdeeUXZ701guLyPI59WzbLWoAAKfLOKyzxj6ptBZNscsdW699QIyjlRRA96Gej
rw5VD5AJYu9LWaL2U/HANeQvwSS9eS9OICI7/RogsKQOLHDtdD+4E5UGUcjohybK
pFtqFiGS3XNgnhAY3jyB6ugYw3yJ8otQPr0R4hUDqDZ9MwFsSBXXiJCZBMXM5gf0
vPSQ7RPi6ovDj6MzD8EpTBNO2hVWcXNyglD2mjN8orGoGjR0ZVzO0eurU+AagNjq
OknkJjCb5RyKqKkVMoaZkgoQI1YS4PbOTOK7vtuNknMBZi9iPrJyJ0U27U1W45eZ
/zo1PqVUSlJZS2Db7v54EX9K3BR5YLZrZAPbFYPhor72I5dQ8AkzNqdxliXzuUJ9
2zg/LFis6ELhDtjTO0wugumDLmsx2d1Hhk9tl5EuT+IocTUW0fJz/iUrB0ckYyfI
+PbZa/wSMVYIwFNCr5zQM378BvAxRAMU8Vjq8moNqRGyg77FGr8H6lnco4g175x2
MjxNBiLOFeXdntiP2t7SxDnlF4HPOEfrf4htWRvfn0IUrn7PqLBmZdo3r5+qPeoo
tt7VMVgWglvquxl1AnMaykgaIZOQCo6ThKd9OyMYkomgjaw=
-----END CERTIFICATE-----
