##
##  Atos TrustedRoot Root CA RSA TLS 2021
##
##  This is a single X.509 certificate for a public Certificate
##  Authority (CA). It was automatically extracted from Mozilla's
##  root CA list (the file `certdata.txt' in security/nss).
##
##  It contains a certificate trusted for server authentication.
##
##  Extracted from nss
##
##  @generated
##
Certificate:
    Data:
        Version: 3 (0x2)
        Serial Number:
            53:d5:cf:e6:19:93:0b:fb:2b:05:12:d8:c2:2a:a2:a4
        Signature Algorithm: sha384WithRSAEncryption
        Issuer: CN = Atos TrustedRoot Root CA RSA TLS 2021, O = Atos, C = DE
        Validity
            Not Before: Apr 22 09:21:10 2021 GMT
            Not After : Apr 17 09:21:09 2041 GMT
        Subject: CN = Atos TrustedRoot Root CA RSA TLS 2021, O = Atos, C = DE
        Subject Public Key Info:
            Public Key Algorithm: rsaEncryption
                Public-Key: (4096 bit)
                Modulus:
                    00:b6:80:0e:c4:79:bd:05:8c:7d:b0:a3:9d:4d:22:
                    4d:cb:f0:41:97:4d:59:e0:d1:fe:56:8c:97:f2:d7:
                    bd:8f:6c:b7:23:8f:5f:d5:c4:d8:41:cb:f2:02:1e:
                    71:e5:e9:f6:5e:cb:08:2a:5e:30:f2:2d:66:c7:84:
                    1b:64:57:38:9d:75:2d:56:c6:2f:61:ef:96:fc:20:
                    46:bd:eb:d4:7b:3f:3f:7c:47:38:04:a9:1b:aa:52:
                    df:13:37:d3:15:15:4e:bd:5f:7c:af:ad:63:c7:79:
                    dc:08:7b:d5:a0:e5:f7:5b:75:ac:80:55:99:92:61:
                    9b:cd:2a:17:7d:db:8f:f4:b5:6a:ea:17:4a:64:28:
                    66:15:29:6c:02:f1:6b:d5:ba:a3:33:dc:5a:67:a7:
                    05:e2:bf:65:b6:16:b0:10:ed:cd:50:33:c9:70:50:
                    ec:19:8e:b0:c7:f2:74:5b:6b:44:c6:7d:96:b9:98:
                    08:59:66:de:29:01:9b:f4:2a:6d:d3:15:3a:90:6a:
                    67:f1:b4:6b:66:d9:21:eb:ca:d9:62:7c:46:10:5c:
                    de:75:49:67:9e:42:f9:fe:75:a9:a3:ad:ff:76:0a:
                    67:40:e3:c5:f7:8d:c7:85:9a:59:9e:62:9a:6a:ed:
                    45:87:98:67:b2:d5:4a:3c:d7:b4:3b:00:0d:c0:8f:
                    1f:e1:40:c4:ae:6c:21:dc:49:7e:7e:ca:b2:8d:6d:
                    b6:bf:93:2f:a1:5c:3e:8f:ca:ed:80:8e:58:e1:db:
                    57:cf:85:36:38:b2:71:a4:09:8c:92:89:08:88:48:
                    f1:40:63:18:b2:5b:8c:5a:e3:c3:d3:17:aa:ab:19:
                    a3:2c:1b:e4:d5:c6:e2:66:7a:d7:82:19:a6:3b:16:
                    2c:2f:71:87:5f:45:9e:95:73:93:c2:42:81:21:13:
                    96:d7:9d:bb:93:68:15:fa:9d:a4:1d:8c:f2:81:e0:
                    58:06:bd:c9:b6:e3:f6:89:5d:89:f9:ac:44:a1:cb:
                    6b:fa:16:f1:c7:50:3d:24:da:f7:c3:e4:87:d5:56:
                    f1:4f:90:30:fa:45:09:59:da:34:ce:e0:13:1c:04:
                    7c:00:d4:9b:86:a4:40:bc:d9:dc:4c:57:7e:ae:b7:
                    33:b6:5e:76:e1:65:8b:66:df:8d:ca:d7:98:af:ce:
                    36:98:8c:9c:83:99:03:70:f3:af:74:ed:c6:0e:36:
                    e7:bd:ec:c1:73:a7:94:5a:cb:92:64:82:a6:00:c1:
                    70:a1:6e:2c:29:e1:58:57:ec:5a:7c:99:6b:25:a4:
                    90:3a:80:f4:20:9d:9a:ce:c7:2d:f9:b2:4b:29:95:
                    83:e9:35:8d:a7:49:48:a7:0f:4c:19:91:d0:f5:bf:
                    10:e0:71
                Exponent: 65537 (0x10001)
        X509v3 extensions:
            X509v3 Basic Constraints: critical
                CA:TRUE
            X509v3 Subject Key Identifier: 
                74:49:99:D1:FF:B4:7A:68:45:75:C3:7E:B4:DC:CC:CE:39:33:DA:08
            X509v3 Key Usage: critical
                Digital Signature, Certificate Sign, CRL Sign
    Signature Algorithm: sha384WithRSAEncryption
    Signature Value:
        23:43:53:24:62:5c:6d:fd:3e:c2:cf:55:00:6c:c5:56:88:b9:
        0e:dd:3a:e2:25:0d:95:4a:97:ca:80:89:ee:2a:cd:65:f8:db:
        16:e0:09:92:e0:18:c7:78:98:bb:f3:ec:42:52:fb:a9:a4:82:
        d7:4d:d8:8a:fc:e4:4e:fd:ab:90:c4:38:75:32:84:9f:ff:b3:
        b0:2b:02:33:36:c0:10:90:6f:1d:9c:af:e1:69:93:ec:a3:45:
        2f:14:9f:f5:4c:2a:65:43:72:0c:f7:c3:f8:95:8b:14:f3:85:
        20:62:dd:54:53:dd:2c:dc:18:95:69:4f:83:47:70:40:33:58:
        77:12:0c:a2:eb:52:31:1e:4c:c9:a8:ce:c5:ef:c3:d1:ad:e0:
        6b:03:00:34:26:b4:54:21:35:97:01:dc:5f:1b:f1:7c:e7:55:
        fa:2d:68:77:7b:d3:69:cc:d3:0e:6b:ba:4d:76:44:d6:c2:15:
        9a:26:ec:b0:c5:f5:bb:d1:7a:74:c2:6c:cd:c5:b5:5e:f6:4c:
        e6:5b:2d:81:db:b3:b7:3a:97:9e:ed:cf:46:b2:50:3d:84:60:
        99:71:b5:33:b5:57:45:e6:42:47:75:6a:0e:b0:08:0c:ae:bd:
        de:f7:bb:0f:58:3d:8f:03:31:e8:3d:82:50:ca:2f:5e:0c:5d:
        b4:97:be:20:34:07:f4:c4:12:e1:ee:d7:b0:d9:59:2d:69:f7:
        31:04:f4:f2:f9:ab:f9:13:31:f8:01:77:0e:3d:42:23:26:cc:
        9a:72:67:51:21:7a:cc:3c:85:a8:ea:21:6a:3b:db:5a:3c:a5:
        34:9e:9a:c0:2c:df:80:9c:29:e0:df:77:94:d1:a2:80:42:ff:
        6a:4c:5b:11:d0:f5:cd:a2:be:ae:cc:51:5c:c3:d5:54:7b:0c:
        ae:d6:b9:06:77:80:e2:ef:07:1a:68:cc:59:51:ad:7e:5c:67:
        6b:b9:db:e2:07:42:5b:b8:01:05:58:39:4d:e4:bb:98:a3:b1:
        32:ec:d9:a3:d6:6f:94:23:ff:3b:b7:29:65:e6:07:e9:ef:b6:
        19:ea:e7:c2:38:1d:32:88:90:3c:13:2b:6e:cc:ef:ab:77:06:
        34:77:84:4f:72:e4:81:84:f9:b9:74:34:de:76:4f:92:2a:53:
        b1:25:39:db:3c:ff:e5:3e:a6:0e:e5:6b:9e:ff:db:ec:2f:74:
        83:df:8e:b4:b3:a9:de:14:4d:ff:31:a3:45:73:24:fa:95:29:
        cc:12:97:04:a2:38:b6:8d:b0:f0:37:fc:c8:21:7f:3f:b3:24:
        1b:3d:8b:6e:cc:4d:b0:16:0d:96:1d:83:1f:46:c0:9b:bd:43:
        99:e7:c4:96:2e:ce:5f:c9
SHA1 Fingerprint=18:52:3B:0D:06:37:E4:D6:3A:DF:23:E4:98:FB:5B:16:FB:86:74:48
-----BEGIN CERTIFICATE-----
MIIFZDCCA0ygAwIBAgIQU9XP5hmTC/srBRLYwiqipDANBgkqhkiG9w0BAQwFADBM
MS4wLAYDVQQDDCVBdG9zIFRydXN0ZWRSb290IFJvb3QgQ0EgUlNBIFRMUyAyMDIx
MQ0wCwYDVQQKDARBdG9zMQswCQYDVQQGEwJERTAeFw0yMTA0MjIwOTIxMTBaFw00
MTA0MTcwOTIxMDlaMEwxLjAsBgNVBAMMJUF0b3MgVHJ1c3RlZFJvb3QgUm9vdCBD
QSBSU0EgVExTIDIwMjExDTALBgNVBAoMBEF0b3MxCzAJBgNVBAYTAkRFMIICIjAN
BgkqhkiG9w0BAQEFAAOCAg8AMIICCgKCAgEAtoAOxHm9BYx9sKOdTSJNy/BBl01Z
4NH+VoyX8te9j2y3I49f1cTYQcvyAh5x5en2XssIKl4w8i1mx4QbZFc4nXUtVsYv
Ye+W/CBGvevUez8/fEc4BKkbqlLfEzfTFRVOvV98r61jx3ncCHvVoOX3W3WsgFWZ
kmGbzSoXfduP9LVq6hdKZChmFSlsAvFr1bqjM9xaZ6cF4r9lthawEO3NUDPJcFDs
GY6wx/J0W2tExn2WuZgIWWbeKQGb9Cpt0xU6kGpn8bRrZtkh68rZYnxGEFzedUln
nkL5/nWpo63/dgpnQOPF943HhZpZnmKaau1Fh5hnstVKPNe0OwANwI8f4UDErmwh
3El+fsqyjW22v5MvoVw+j8rtgI5Y4dtXz4U2OLJxpAmMkokIiEjxQGMYsluMWuPD
0xeqqxmjLBvk1cbiZnrXghmmOxYsL3GHX0WelXOTwkKBIROW1527k2gV+p2kHYzy
geBYBr3JtuP2iV2J+axEoctr+hbxx1A9JNr3w+SH1VbxT5Aw+kUJWdo0zuATHAR8
ANSbhqRAvNncTFd+rrcztl524WWLZt+NyteYr842mIycg5kDcPOvdO3GDjbnvezB
c6eUWsuSZIKmAMFwoW4sKeFYV+xafJlrJaSQOoD0IJ2azsct+bJLKZWD6TWNp0lI
pw9MGZHQ9b8Q4HECAwEAAaNCMEAwDwYDVR0TAQH/BAUwAwEB/zAdBgNVHQ4EFgQU
dEmZ0f+0emhFdcN+tNzMzjkz2ggwDgYDVR0PAQH/BAQDAgGGMA0GCSqGSIb3DQEB
DAUAA4ICAQAjQ1MkYlxt/T7Cz1UAbMVWiLkO3TriJQ2VSpfKgInuKs1l+NsW4AmS
4BjHeJi78+xCUvuppILXTdiK/ORO/auQxDh1MoSf/7OwKwIzNsAQkG8dnK/haZPs
o0UvFJ/1TCplQ3IM98P4lYsU84UgYt1UU90s3BiVaU+DR3BAM1h3Egyi61IxHkzJ
qM7F78PRreBrAwA0JrRUITWXAdxfG/F851X6LWh3e9NpzNMOa7pNdkTWwhWaJuyw
xfW70Xp0wmzNxbVe9kzmWy2B27O3Opee7c9GslA9hGCZcbUztVdF5kJHdWoOsAgM
rr3e97sPWD2PAzHoPYJQyi9eDF20l74gNAf0xBLh7tew2VktafcxBPTy+av5EzH4
AXcOPUIjJsyacmdRIXrMPIWo6iFqO9taPKU0nprALN+AnCng33eU0aKAQv9qTFsR
0PXNor6uzFFcw9VUewyu1rkGd4Di7wcaaMxZUa1+XGdrudviB0JbuAEFWDlN5LuY
o7Ey7Nmj1m+UI/87tyll5gfp77YZ6ufCOB0yiJA8EytuzO+rdwY0d4RPcuSBhPm5
dDTedk+SKlOxJTnbPP/lPqYO5Wue/9vsL3SD3460s6neFE3/MaNFcyT6lSnMEpcE
oji2jbDwN/zIIX8/syQbPYtuzE2wFg2WHYMfRsCbvUOZ58SWLs5fyQ==
-----END CERTIFICATE-----
