##
##  Autoridad de Certificacion Firmaprofesional CIF A62634068
##
##  This is a single X.509 certificate for a public Certificate
##  Authority (CA). It was automatically extracted from Mozilla's
##  root CA list (the file `certdata.txt' in security/nss).
##
##  It contains a certificate trusted for server authentication.
##
##  Extracted from nss
##
##  @generated
##
Certificate:
    Data:
        Version: 3 (0x2)
        Serial Number: 1977337328857672817 (0x1b70e9d2ffae6c71)
        Signature Algorithm: sha256WithRSAEncryption
        Issuer: C = ES, CN = Autoridad de Certificacion Firmaprofesional CIF A62634068
        Validity
            Not Before: Sep 23 15:22:07 2014 GMT
            Not After : May  5 15:22:07 2036 GMT
        Subject: C = ES, CN = Autoridad de Certificacion Firmaprofesional CIF A62634068
        Subject Public Key Info:
            Public Key Algorithm: rsaEncryption
                Public-Key: (4096 bit)
                Modulus:
                    00:ca:96:6b:8e:ea:f8:fb:f1:a2:35:e0:7f:4c:da:
                    e0:c3:52:d7:7d:b6:10:c8:02:5e:b3:43:2a:c4:4f:
                    6a:b2:ca:1c:5d:28:9a:78:11:1a:69:59:57:af:b5:
                    20:42:e4:8b:0f:e6:df:5b:a6:03:92:2f:f5:11:e4:
                    62:d7:32:71:38:d9:04:0c:71:ab:3d:51:7e:0f:07:
                    df:63:05:5c:e9:bf:94:6f:c1:29:82:c0:b4:da:51:
                    b0:c1:3c:bb:ad:37:4a:5c:ca:f1:4b:36:0e:24:ab:
                    bf:c3:84:77:fd:a8:50:f4:b1:e7:c6:2f:d2:2d:59:
                    8d:7a:0a:4e:96:69:52:02:aa:36:98:ec:fc:fa:14:
                    83:0c:37:1f:c9:92:37:7f:d7:81:2d:e5:c4:b9:e0:
                    3e:34:fe:67:f4:3e:66:d1:d3:f4:40:cf:5e:62:34:
                    0f:70:06:3e:20:18:5a:ce:f7:72:1b:25:6c:93:74:
                    14:93:a3:73:b1:0e:aa:87:10:23:59:5f:20:05:19:
                    47:ed:68:8e:92:12:ca:5d:fc:d6:2b:b2:92:3c:20:
                    cf:e1:5f:af:20:be:a0:76:7f:76:e5:ec:1a:86:61:
                    33:3e:e7:7b:b4:3f:a0:0f:8e:a2:b9:6a:6f:b9:87:
                    26:6f:41:6c:88:a6:50:fd:6a:63:0b:f5:93:16:1b:
                    19:8f:b2:ed:9b:9b:c9:90:f5:01:0c:df:19:3d:0f:
                    3e:38:23:c9:2f:8f:0c:d1:02:fe:1b:55:d6:4e:d0:
                    8d:3c:af:4f:a4:f3:fe:af:2a:d3:05:9d:79:08:a1:
                    cb:57:31:b4:9c:c8:90:b2:67:f4:18:16:93:3a:fc:
                    47:d8:d1:78:96:31:1f:ba:2b:0c:5f:5d:99:ad:63:
                    89:5a:24:20:76:d8:df:fd:ab:4e:a6:22:aa:9d:5e:
                    e6:27:8a:7d:68:29:a3:e7:8a:b8:da:11:bb:17:2d:
                    99:9d:13:24:46:f7:c5:e2:d8:9f:8e:7f:c7:8f:74:
                    6d:5a:b2:e8:72:f5:ac:ee:24:10:ad:2f:14:da:ff:
                    2d:9a:46:71:47:be:42:df:bb:01:db:f4:7f:d3:28:
                    8f:31:59:5b:d3:c9:02:a6:b4:52:ca:6e:97:fb:43:
                    c5:08:26:6f:8a:f4:bb:fd:9f:28:aa:0d:d5:45:f3:
                    13:3a:1d:d8:c0:78:8f:41:67:3c:1e:94:64:ae:7b:
                    0b:c5:e8:d9:01:88:39:1a:97:86:64:41:d5:3b:87:
                    0c:6e:fa:0f:c6:bd:48:14:bf:39:4d:d4:9e:41:b6:
                    8f:96:1d:63:96:93:d9:95:06:78:31:68:9e:37:06:
                    3b:80:89:45:61:39:23:c7:1b:44:a3:15:e5:1c:f8:
                    92:30:bb
                Exponent: 65537 (0x10001)
        X509v3 extensions:
            X509v3 Subject Key Identifier: 
                65:CD:EB:AB:35:1E:00:3E:7E:D5:74:C0:1C:B4:73:47:0E:1A:64:2F
            X509v3 Basic Constraints: critical
                CA:TRUE, pathlen:1
            X509v3 Certificate Policies: 
                Policy: X509v3 Any Policy
                  CPS: http://www.firmaprofesional.com/cps
                  User Notice:
                    Explicit Text: 
            X509v3 Key Usage: critical
                Certificate Sign, CRL Sign
    Signature Algorithm: sha256WithRSAEncryption
    Signature Value:
        74:87:28:02:2b:77:1f:66:89:64:ed:8f:74:2e:46:1c:bb:a8:
        f8:f8:0b:1d:83:b6:3a:a7:e8:45:8a:07:b7:e0:3e:20:cb:e1:
        08:db:13:08:f8:28:a1:35:b2:80:b3:0b:51:c0:d3:56:9a:8d:
        33:45:49:af:49:f0:e0:3d:07:7a:45:13:5a:ff:c8:97:d8:d3:
        18:2c:7d:96:f8:dd:a2:65:43:70:93:90:15:ba:90:df:e8:19:
        b0:db:2c:8a:60:0f:b7:6f:94:07:1e:1d:a6:c9:85:f6:bd:34:
        f8:40:78:62:10:70:3a:be:7d:4b:39:81:a9:10:d4:96:41:bb:
        f8:5f:1c:0b:1d:08:f2:b1:b0:89:7a:f2:f7:a0:e0:c4:8f:8b:
        78:b5:3b:58:a5:23:8e:4f:55:fe:36:3b:e0:0c:b7:ca:2a:30:
        41:20:b4:80:cd:ae:fc:76:66:73:a8:ae:6e:e1:7c:da:03:e8:
        94:20:e6:22:a3:d0:1f:90:5d:20:53:14:26:57:da:54:97:df:
        16:44:10:01:1e:88:66:8f:72:38:93:dd:20:b7:34:be:d7:f1:
        ee:63:8e:47:79:28:06:fc:f3:59:45:25:60:22:33:1b:a3:5f:
        a8:ba:2a:da:1a:3d:cd:40:ea:8c:ee:05:15:95:d5:a5:2c:20:
        2f:a7:98:28:ee:45:fc:f1:b8:88:00:2c:8f:42:da:51:d5:9c:
        e5:13:68:71:45:43:8b:9e:0b:21:3c:4b:5c:05:dc:1a:9f:98:
        8e:da:bd:22:9e:72:cd:ad:0a:cb:cc:a3:67:9b:28:74:c4:9b:
        d7:1a:3c:04:58:a6:82:9d:ad:c7:7b:6f:ff:80:96:e9:f8:8d:
        6a:bd:18:90:1d:ff:49:1a:90:52:37:93:2f:3c:02:5d:82:76:
        0b:51:e7:16:c7:57:f8:38:f9:a7:cd:9b:22:54:ef:63:b0:15:
        6d:53:65:03:4a:5e:4a:a0:b2:a7:8e:49:00:59:38:d5:c7:f4:
        80:64:f5:6e:95:50:b8:11:7e:15:70:38:4a:b0:7f:d0:c4:32:
        70:c0:19:ff:c9:38:2d:14:2c:66:f4:42:44:e6:55:76:1b:80:
        15:57:ff:c0:a7:a7:aa:39:aa:d8:d3:70:d0:2e:ba:eb:94:6a:
        fa:5f:34:86:e7:62:b5:fd:8a:f0:30:85:94:c9:af:24:02:2f:
        6f:d6:dd:67:fe:e3:b0:55:4f:04:98:4f:a4:41:56:e2:93:d0:
        6a:e8:d6:f3:fb:65:e0:ce:75:c4:31:59:0c:ee:82:c8:0c:60:
        33:4a:19:ba:84:67:27:0f:bc:42:5d:bd:24:54:0d:ec:1d:70:
        06:5f:a4:bc:fa:20:7c:55
SHA1 Fingerprint=0B:BE:C2:27:22:49:CB:39:AA:DB:35:5C:53:E3:8C:AE:78:FF:B6:FE
-----BEGIN CERTIFICATE-----
MIIGFDCCA/ygAwIBAgIIG3Dp0v+ubHEwDQYJKoZIhvcNAQELBQAwUTELMAkGA1UE
BhMCRVMxQjBABgNVBAMMOUF1dG9yaWRhZCBkZSBDZXJ0aWZpY2FjaW9uIEZpcm1h
cHJvZmVzaW9uYWwgQ0lGIEE2MjYzNDA2ODAeFw0xNDA5MjMxNTIyMDdaFw0zNjA1
MDUxNTIyMDdaMFExCzAJBgNVBAYTAkVTMUIwQAYDVQQDDDlBdXRvcmlkYWQgZGUg
Q2VydGlmaWNhY2lvbiBGaXJtYXByb2Zlc2lvbmFsIENJRiBBNjI2MzQwNjgwggIi
MA0GCSqGSIb3DQEBAQUAA4ICDwAwggIKAoICAQDKlmuO6vj78aI14H9M2uDDUtd9
thDIAl6zQyrET2qyyhxdKJp4ERppWVevtSBC5IsP5t9bpgOSL/UR5GLXMnE42QQM
cas9UX4PB99jBVzpv5RvwSmCwLTaUbDBPLutN0pcyvFLNg4kq7/DhHf9qFD0sefG
L9ItWY16Ck6WaVICqjaY7Pz6FIMMNx/Jkjd/14Et5cS54D40/mf0PmbR0/RAz15i
NA9wBj4gGFrO93IbJWyTdBSTo3OxDqqHECNZXyAFGUftaI6SEspd/NYrspI8IM/h
X68gvqB2f3bl7BqGYTM+53u0P6APjqK5am+5hyZvQWyIplD9amML9ZMWGxmPsu2b
m8mQ9QEM3xk9Dz44I8kvjwzRAv4bVdZO0I08r0+k8/6vKtMFnXkIoctXMbScyJCy
Z/QYFpM6/EfY0XiWMR+6KwxfXZmtY4laJCB22N/9q06mIqqdXuYnin1oKaPnirja
EbsXLZmdEyRG98Xi2J+Of8ePdG1asuhy9azuJBCtLxTa/y2aRnFHvkLfuwHb9H/T
KI8xWVvTyQKmtFLKbpf7Q8UIJm+K9Lv9nyiqDdVF8xM6HdjAeI9BZzwelGSuewvF
6NkBiDkal4ZkQdU7hwxu+g/GvUgUvzlN1J5Bto+WHWOWk9mVBngxaJ43BjuAiUVh
OSPHG0SjFeUc+JIwuwIDAQABo4HvMIHsMB0GA1UdDgQWBBRlzeurNR4APn7VdMAc
tHNHDhpkLzASBgNVHRMBAf8ECDAGAQH/AgEBMIGmBgNVHSAEgZ4wgZswgZgGBFUd
IAAwgY8wLwYIKwYBBQUHAgEWI2h0dHA6Ly93d3cuZmlybWFwcm9mZXNpb25hbC5j
b20vY3BzMFwGCCsGAQUFBwICMFAeTgBQAGEAcwBlAG8AIABkAGUAIABsAGEAIABC
AG8AbgBhAG4AbwB2AGEAIAA0ADcAIABCAGEAcgBjAGUAbABvAG4AYQAgADAAOAAw
ADEANzAOBgNVHQ8BAf8EBAMCAQYwDQYJKoZIhvcNAQELBQADggIBAHSHKAIrdx9m
iWTtj3QuRhy7qPj4Cx2Dtjqn6EWKB7fgPiDL4QjbEwj4KKE1soCzC1HA01aajTNF
Sa9J8OA9B3pFE1r/yJfY0xgsfZb43aJlQ3CTkBW6kN/oGbDbLIpgD7dvlAceHabJ
hfa9NPhAeGIQcDq+fUs5gakQ1JZBu/hfHAsdCPKxsIl68veg4MSPi3i1O1ilI45P
Vf42O+AMt8oqMEEgtIDNrvx2ZnOorm7hfNoD6JQg5iKj0B+QXSBTFCZX2lSX3xZE
EAEeiGaPcjiT3SC3NL7X8e5jjkd5KAb881lFJWAiMxujX6i6KtoaPc1A6ozuBRWV
1aUsIC+nmCjuRfzxuIgALI9C2lHVnOUTaHFFQ4ueCyE8S1wF3BqfmI7avSKecs2t
CsvMo2ebKHTEm9caPARYpoKdrcd7b/+Alun4jWq9GJAd/0kakFI3ky88Al2CdgtR
5xbHV/g4+afNmyJU72OwFW1TZQNKXkqgsqeOSQBZONXH9IBk9W6VULgRfhVwOEqw
f9DEMnDAGf/JOC0ULGb0QkTmVXYbgBVX/8Cnp6o5qtjTcNAuuuuUavpfNIbnYrX9
ivAwhZTJryQCL2/W3Wf+47BVTwSYT6RBVuKT0Gro1vP7ZeDOdcQxWQzugsgMYDNK
GbqEZycPvEJdvSRUDewdcAZfpLz6IHxV
-----END CERTIFICATE-----
