##
##  Certum Trusted Root CA
##
##  This is a single X.509 certificate for a public Certificate
##  Authority (CA). It was automatically extracted from Mozilla's
##  root CA list (the file `certdata.txt' in security/nss).
##
##  It contains a certificate trusted for server authentication.
##
##  Extracted from nss
##
##  @generated
##
Certificate:
    Data:
        Version: 3 (0x2)
        Serial Number:
            1e:bf:59:50:b8:c9:80:37:4c:06:f7:eb:55:4f:b5:ed
        Signature Algorithm: sha512WithRSAEncryption
        Issuer: C = PL, O = Asseco Data Systems S.A., OU = Certum Certification Authority, CN = Certum Trusted Root CA
        Validity
            Not Before: Mar 16 12:10:13 2018 GMT
            Not After : Mar 16 12:10:13 2043 GMT
        Subject: C = PL, O = Asseco Data Systems S.A., OU = Certum Certification Authority, CN = Certum Trusted Root CA
        Subject Public Key Info:
            Public Key Algorithm: rsaEncryption
                Public-Key: (4096 bit)
                Modulus:
                    00:d1:2d:8e:bb:b7:36:ea:6d:37:91:9f:4e:93:a7:
                    05:e4:29:03:25:ce:1c:82:f7:7c:99:9f:41:06:cd:
                    ed:a3:ba:c0:db:09:2c:c1:7c:df:29:7e:4b:65:2f:
                    93:a7:d4:01:6b:03:28:18:a3:d8:9d:05:c1:2a:d8:
                    45:f1:91:de:df:3b:d0:80:02:8c:cf:38:0f:ea:a7:
                    5c:78:11:a4:c1:c8:85:5c:25:d3:d3:b2:e7:25:cf:
                    11:54:97:ab:35:c0:1e:76:1c:ef:00:53:9f:39:dc:
                    14:a5:2c:22:25:b3:72:72:fc:8d:b3:e5:3e:08:1e:
                    14:2a:37:0b:88:3c:ca:b0:f4:c8:c2:a1:ae:bc:c1:
                    be:29:67:55:e2:fc:ad:59:5c:fe:bd:57:2c:b0:90:
                    8d:c2:ed:37:b6:7c:99:88:b5:d5:03:9a:3d:15:0d:
                    3d:3a:a8:a8:45:f0:95:4e:25:59:1d:cd:98:69:bb:
                    d3:cc:32:c9:8d:ef:81:fe:ad:7d:89:bb:ba:60:13:
                    ca:65:95:67:a0:f3:19:f6:03:56:d4:6a:d3:27:e2:
                    a1:ad:83:f0:4a:12:22:77:1c:05:73:e2:19:71:42:
                    c0:ec:75:46:9a:90:58:e0:6a:8e:2b:a5:46:30:04:
                    8e:19:b2:17:e3:be:a9:ba:7f:56:f1:24:03:d7:b2:
                    21:28:76:0e:36:30:4c:79:d5:41:9a:9a:a8:b8:35:
                    ba:0c:3a:f2:44:1b:20:88:f7:c5:25:d7:3d:c6:e3:
                    3e:43:dd:87:fe:c4:ea:f5:53:3e:4c:65:ff:3b:4a:
                    cb:78:5a:6b:17:5f:0d:c7:c3:4f:4e:9a:2a:a2:ed:
                    57:4d:22:e2:46:9a:3f:0f:91:34:24:7d:55:e3:8c:
                    95:37:d3:1a:f0:09:2b:2c:d2:c9:8d:b4:0d:00:ab:
                    67:29:28:d8:01:f5:19:04:b6:1d:be:76:fe:72:5c:
                    c4:85:ca:d2:80:41:df:05:a8:a3:d5:84:90:4f:0b:
                    f3:e0:3f:9b:19:d2:37:89:3f:f2:7b:52:1c:8c:f6:
                    e1:f7:3c:07:97:8c:0e:a2:59:81:0c:b2:90:3d:d3:
                    e3:59:46:ed:0f:a9:a7:de:80:6b:5a:aa:07:b6:19:
                    cb:bc:57:f3:97:21:7a:0c:b1:2b:74:3e:eb:da:a7:
                    67:2d:4c:c4:98:9e:36:09:76:66:66:fc:1a:3f:ea:
                    48:54:1c:be:30:bd:80:50:bf:7c:b5:ce:00:f6:0c:
                    61:d9:e7:24:03:e0:e3:01:81:0e:bd:d8:85:34:88:
                    bd:b2:36:a8:7b:5c:08:e5:44:80:8c:6f:f8:2f:d5:
                    21:ca:1d:1c:d0:fb:c4:b5:87:d1:3a:4e:c7:76:b5:
                    35:48:b5
                Exponent: 65537 (0x10001)
        X509v3 extensions:
            X509v3 Basic Constraints: critical
                CA:TRUE
            X509v3 Subject Key Identifier: 
                8C:FB:1C:75:BC:02:D3:9F:4E:2E:48:D9:F9:60:54:AA:C4:B3:4F:FA
            X509v3 Key Usage: critical
                Certificate Sign, CRL Sign
    Signature Algorithm: sha512WithRSAEncryption
    Signature Value:
        48:a2:d5:00:0b:2e:d0:3f:bc:1c:d5:b5:54:49:1e:5a:6b:f4:
        e4:f2:e0:40:37:e0:cc:14:7b:b9:c9:fa:35:b5:75:17:93:6a:
        05:69:85:9c:cd:4f:19:78:5b:19:81:f3:63:3e:c3:ce:5b:8f:
        f5:2f:5e:01:76:13:3f:2c:00:b9:cd:96:52:39:49:6d:04:4e:
        c5:e9:0f:86:0d:e1:fa:b3:5f:82:12:f1:3a:ce:66:06:24:34:
        2b:e8:cc:ca:e7:69:dc:87:9d:c2:34:d7:79:d1:d3:77:b8:aa:
        59:58:fe:9d:26:fa:38:86:3e:9d:8a:87:64:57:e5:17:3a:e2:
        f9:8d:b9:e3:33:78:c1:90:d8:b8:dd:b7:83:51:e4:c4:cc:23:
        d5:06:7c:e6:51:d3:cd:34:31:c0:f6:46:bb:0b:ad:fc:3d:10:
        05:2a:3b:4a:91:25:ee:8c:d4:84:87:80:2a:bc:09:8c:aa:3a:
        13:5f:e8:34:79:50:c1:10:19:f9:d3:28:1e:d4:d1:51:30:29:
        b3:ae:90:67:d6:1f:0a:63:b1:c5:a9:c6:42:31:63:17:94:ef:
        69:cb:2f:fa:8c:14:7d:c4:43:18:89:d9:f0:32:40:e6:80:e2:
        46:5f:e5:e3:c1:00:59:a8:f9:e8:20:bc:89:2c:0e:47:34:0b:
        ea:57:c2:53:36:fc:a7:d4:af:31:cd:fe:02:e5:75:fa:b9:27:
        09:f9:f3:f5:3b:ca:7d:9f:a9:22:cb:88:c9:aa:d1:47:3d:36:
        77:a8:59:64:6b:27:cf:ef:27:c1:e3:24:b5:86:f7:ae:7e:32:
        4d:b0:79:68:d1:39:e8:90:58:c3:83:bc:0f:2c:d6:97:eb:ce:
        0c:e1:20:c7:da:b7:3e:c3:3f:bf:2f:dc:34:a4:fb:2b:21:cd:
        67:8f:4b:f4:e3:ea:d4:3f:e7:4f:ba:b9:a5:93:45:1c:66:1f:
        21:fa:64:5e:6f:e0:76:94:32:cb:75:f5:6e:e5:f6:8f:c7:b8:
        a4:cc:a8:96:7d:64:fb:24:5a:4a:03:6c:6b:38:c6:e8:03:43:
        9a:f7:57:b9:b3:29:69:93:38:f4:03:f2:bb:fb:82:6b:07:20:
        d1:52:1f:9a:64:02:7b:98:66:db:5c:4d:5a:0f:d0:84:95:a0:
        3c:14:43:06:ca:ca:db:b8:41:36:da:6a:44:67:87:af:af:e3:
        45:11:15:69:08:b2:be:16:39:97:24:6f:12:45:d1:67:5d:09:
        a8:c9:15:da:fa:d2:a6:5f:13:61:1f:bf:85:ac:b4:ad:ad:05:
        94:08:83:1e:75:17:d3:71:3b:93:50:23:59:a0:ed:3c:91:54:
        9d:76:00:c5:c3:b8:38:db
SHA1 Fingerprint=C8:83:44:C0:18:AE:9F:CC:F1:87:B7:8F:22:D1:C5:D7:45:84:BA:E5
-----BEGIN CERTIFICATE-----
MIIFwDCCA6igAwIBAgIQHr9ZULjJgDdMBvfrVU+17TANBgkqhkiG9w0BAQ0FADB6
MQswCQYDVQQGEwJQTDEhMB8GA1UEChMYQXNzZWNvIERhdGEgU3lzdGVtcyBTLkEu
MScwJQYDVQQLEx5DZXJ0dW0gQ2VydGlmaWNhdGlvbiBBdXRob3JpdHkxHzAdBgNV
BAMTFkNlcnR1bSBUcnVzdGVkIFJvb3QgQ0EwHhcNMTgwMzE2MTIxMDEzWhcNNDMw
MzE2MTIxMDEzWjB6MQswCQYDVQQGEwJQTDEhMB8GA1UEChMYQXNzZWNvIERhdGEg
U3lzdGVtcyBTLkEuMScwJQYDVQQLEx5DZXJ0dW0gQ2VydGlmaWNhdGlvbiBBdXRo
b3JpdHkxHzAdBgNVBAMTFkNlcnR1bSBUcnVzdGVkIFJvb3QgQ0EwggIiMA0GCSqG
SIb3DQEBAQUAA4ICDwAwggIKAoICAQDRLY67tzbqbTeRn06TpwXkKQMlzhyC93yZ
n0EGze2jusDbCSzBfN8pfktlL5On1AFrAygYo9idBcEq2EXxkd7fO9CAAozPOA/q
p1x4EaTByIVcJdPTsuclzxFUl6s1wB52HO8AU5853BSlLCIls3Jy/I2z5T4IHhQq
NwuIPMqw9MjCoa68wb4pZ1Xi/K1ZXP69VyywkI3C7Te2fJmItdUDmj0VDT06qKhF
8JVOJVkdzZhpu9PMMsmN74H+rX2Ju7pgE8pllWeg8xn2A1bUatMn4qGtg/BKEiJ3
HAVz4hlxQsDsdUaakFjgao4rpUYwBI4Zshfjvqm6f1bxJAPXsiEodg42MEx51UGa
mqi4NboMOvJEGyCI98Ul1z3G4z5D3Yf+xOr1Uz5MZf87Sst4WmsXXw3Hw09Omiqi
7VdNIuJGmj8PkTQkfVXjjJU30xrwCSss0smNtA0Aq2cpKNgB9RkEth2+dv5yXMSF
ytKAQd8FqKPVhJBPC/PgP5sZ0jeJP/J7UhyM9uH3PAeXjA6iWYEMspA90+NZRu0P
qafegGtaqge2Gcu8V/OXIXoMsSt0Puvap2ctTMSYnjYJdmZm/Bo/6khUHL4wvYBQ
v3y1zgD2DGHZ5yQD4OMBgQ692IU0iL2yNqh7XAjlRICMb/gv1SHKHRzQ+8S1h9E6
Tsd2tTVItQIDAQABo0IwQDAPBgNVHRMBAf8EBTADAQH/MB0GA1UdDgQWBBSM+xx1
vALTn04uSNn5YFSqxLNP+jAOBgNVHQ8BAf8EBAMCAQYwDQYJKoZIhvcNAQENBQAD
ggIBAEii1QALLtA/vBzVtVRJHlpr9OTy4EA34MwUe7nJ+jW1dReTagVphZzNTxl4
WxmB82M+w85bj/UvXgF2Ez8sALnNllI5SW0ETsXpD4YN4fqzX4IS8TrOZgYkNCvo
zMrnadyHncI013nR03e4qllY/p0m+jiGPp2Kh2RX5Rc64vmNueMzeMGQ2Ljdt4NR
5MTMI9UGfOZR0800McD2RrsLrfw9EAUqO0qRJe6M1ISHgCq8CYyqOhNf6DR5UMEQ
GfnTKB7U0VEwKbOukGfWHwpjscWpxkIxYxeU72nLL/qMFH3EQxiJ2fAyQOaA4kZf
5ePBAFmo+eggvIksDkc0C+pXwlM2/KfUrzHN/gLldfq5Jwn58/U7yn2fqSLLiMmq
0Uc9NneoWWRrJ8/vJ8HjJLWG965+Mk2weWjROeiQWMODvA8s1pfrzgzhIMfatz7D
P78v3DSk+yshzWePS/Tj6tQ/50+6uaWTRRxmHyH6ZF5v4HaUMst19W7l9o/HuKTM
qJZ9ZPskWkoDbGs4xugDQ5r3V7mzKWmTOPQD8rv7gmsHINFSH5pkAnuYZttcTVoP
0ISVoDwUQwbKytu4QTbaakRnh6+v40URFWkIsr4WOZckbxJF0WddCajJFdr60qZf
E2Efv4WstK2tBZQIgx51F9NxO5NQI1mg7TyRVJ12AMXDuDjb
-----END CERTIFICATE-----
