##
##  Certum EC-384 CA
##
##  This is a single X.509 certificate for a public Certificate
##  Authority (CA). It was automatically extracted from Mozilla's
##  root CA list (the file `certdata.txt' in security/nss).
##
##  It contains a certificate trusted for server authentication.
##
##  Extracted from nss
##
##  @generated
##
Certificate:
    Data:
        Version: 3 (0x2)
        Serial Number:
            78:8f:27:5c:81:12:52:20:a5:04:d0:2d:dd:ba:73:f4
        Signature Algorithm: ecdsa-with-SHA384
        Issuer: C = PL, O = Asseco Data Systems S.A., OU = Certum Certification Authority, CN = Certum EC-384 CA
        Validity
            Not Before: Mar 26 07:24:54 2018 GMT
            Not After : Mar 26 07:24:54 2043 GMT
        Subject: C = PL, O = Asseco Data Systems S.A., OU = Certum Certification Authority, CN = Certum EC-384 CA
        Subject Public Key Info:
            Public Key Algorithm: id-ecPublicKey
                Public-Key: (384 bit)
                pub:
                    04:c4:28:8e:ab:18:5b:6a:be:6e:64:37:63:e4:cd:
                    ec:ab:3a:f7:cc:a1:b8:0e:82:49:d7:86:29:9f:a1:
                    94:f2:e3:60:78:98:81:78:06:4d:f2:ec:9a:0e:57:
                    60:83:9f:b4:e6:17:2f:1a:b3:5d:02:5b:89:23:3c:
                    c2:11:05:2a:a7:88:13:18:f3:50:84:d7:bd:34:2c:
                    27:89:55:ff:ce:4c:e7:df:a6:1f:28:c4:f0:54:c3:
                    b9:7c:b7:53:ad:eb:c2
                ASN1 OID: secp384r1
                NIST CURVE: P-384
        X509v3 extensions:
            X509v3 Basic Constraints: critical
                CA:TRUE
            X509v3 Subject Key Identifier: 
                8D:06:66:74:24:76:3A:F3:89:F7:BC:D6:BD:47:7D:2F:BC:10:5F:4B
            X509v3 Key Usage: critical
                Certificate Sign, CRL Sign
    Signature Algorithm: ecdsa-with-SHA384
    Signature Value:
        30:65:02:30:03:55:2d:a6:e6:18:c4:7c:ef:c9:50:6e:c1:27:
        0f:9c:87:af:6e:d5:1b:08:18:bd:92:29:c1:ef:94:91:78:d2:
        3a:1c:55:89:62:e5:1b:09:1e:ba:64:6b:f1:76:b4:d4:02:31:
        00:b4:42:84:99:ff:ab:e7:9e:fb:91:97:27:5d:dc:b0:5b:30:
        71:ce:5e:38:1a:6a:d9:25:e7:ea:f7:61:92:56:f8:ea:da:36:
        c2:87:65:96:2e:72:25:2f:7f:df:c3:13:c9
SHA1 Fingerprint=F3:3E:78:3C:AC:DF:F4:A2:CC:AC:67:55:69:56:D7:E5:16:3C:E1:ED
-----BEGIN CERTIFICATE-----
MIICZTCCAeugAwIBAgIQeI8nXIESUiClBNAt3bpz9DAKBggqhkjOPQQDAzB0MQsw
CQYDVQQGEwJQTDEhMB8GA1UEChMYQXNzZWNvIERhdGEgU3lzdGVtcyBTLkEuMScw
JQYDVQQLEx5DZXJ0dW0gQ2VydGlmaWNhdGlvbiBBdXRob3JpdHkxGTAXBgNVBAMT
EENlcnR1bSBFQy0zODQgQ0EwHhcNMTgwMzI2MDcyNDU0WhcNNDMwMzI2MDcyNDU0
WjB0MQswCQYDVQQGEwJQTDEhMB8GA1UEChMYQXNzZWNvIERhdGEgU3lzdGVtcyBT
LkEuMScwJQYDVQQLEx5DZXJ0dW0gQ2VydGlmaWNhdGlvbiBBdXRob3JpdHkxGTAX
BgNVBAMTEENlcnR1bSBFQy0zODQgQ0EwdjAQBgcqhkjOPQIBBgUrgQQAIgNiAATE
KI6rGFtqvm5kN2PkzeyrOvfMobgOgknXhimfoZTy42B4mIF4Bk3y7JoOV2CDn7Tm
Fy8as10CW4kjPMIRBSqniBMY81CE1700LCeJVf/OTOffph8oxPBUw7l8t1Ot68Kj
QjBAMA8GA1UdEwEB/wQFMAMBAf8wHQYDVR0OBBYEFI0GZnQkdjrzife81r1HfS+8
EF9LMA4GA1UdDwEB/wQEAwIBBjAKBggqhkjOPQQDAwNoADBlAjADVS2m5hjEfO/J
UG7BJw+ch69u1RsIGL2SKcHvlJF40jocVYli5RsJHrpka/F2tNQCMQC0QoSZ/6vn
nvuRlydd3LBbMHHOXjgaatkl5+r3YZJW+OraNsKHZZYuciUvf9/DE8k=
-----END CERTIFICATE-----
