##
##  Certainly Root E1
##
##  This is a single X.509 certificate for a public Certificate
##  Authority (CA). It was automatically extracted from Mozilla's
##  root CA list (the file `certdata.txt' in security/nss).
##
##  It contains a certificate trusted for server authentication.
##
##  Extracted from nss
##  with $FreeBSD$
##
##  @generated
##
Certificate:
    Data:
        Version: 3 (0x2)
        Serial Number:
            06:25:33:b1:47:03:33:27:5c:f9:8d:9a:b9:bf:cc:f8
        Signature Algorithm: ecdsa-with-SHA384
        Issuer: C = US, O = Certainly, CN = Certainly Root E1
        Validity
            Not Before: Apr  1 00:00:00 2021 GMT
            Not After : Apr  1 00:00:00 2046 GMT
        Subject: C = US, O = Certainly, CN = Certainly Root E1
        Subject Public Key Info:
            Public Key Algorithm: id-ecPublicKey
                Public-Key: (384 bit)
                pub:
                    04:de:6f:f8:7f:1c:df:ed:f9:47:87:86:b1:a4:c0:
                    8a:f8:82:97:80:ea:8f:c8:4a:5e:2a:7d:88:68:a7:
                    01:62:14:91:24:7a:5c:9e:a3:17:7d:8a:86:21:34:
                    18:50:1b:10:de:d0:37:4b:26:c7:19:60:80:e9:34:
                    bd:60:19:36:40:d6:29:87:09:3c:91:7a:f6:bc:13:
                    23:dd:59:4e:04:5e:cf:c8:02:1c:18:53:c1:31:d8:
                    da:20:e9:44:8d:e4:76
                ASN1 OID: secp384r1
                NIST CURVE: P-384
        X509v3 extensions:
            X509v3 Key Usage: critical
                Certificate Sign, CRL Sign
            X509v3 Basic Constraints: critical
                CA:TRUE
            X509v3 Subject Key Identifier: 
                F3:28:18:CB:64:75:EE:29:2A:EB:ED:AE:23:58:38:85:EB:C8:22:07
    Signature Algorithm: ecdsa-with-SHA384
         30:65:02:31:00:b1:8e:5a:20:c3:b2:19:62:4d:de:b0:4f:df:
         6e:d2:70:8a:f1:9f:7e:6a:8c:e6:ba:de:83:69:ca:69:b3:a9:
         05:b5:96:92:17:87:c2:d2:ea:d0:7b:ce:d8:41:5b:7c:ae:02:
         30:46:de:ea:cb:5d:9a:ec:32:c2:65:16:b0:4c:30:5c:30:f3:
         da:4e:73:86:06:d8:ce:89:04:48:37:37:f8:dd:33:51:9d:70:
         af:7b:55:d8:01:2e:7d:05:64:0e:86:b8:91
SHA1 Fingerprint=F9:E1:6D:DC:01:89:CF:D5:82:45:63:3E:C5:37:7D:C2:EB:93:6F:2B
-----BEGIN CERTIFICATE-----
MIIB9zCCAX2gAwIBAgIQBiUzsUcDMydc+Y2aub/M+DAKBggqhkjOPQQDAzA9MQsw
CQYDVQQGEwJVUzESMBAGA1UEChMJQ2VydGFpbmx5MRowGAYDVQQDExFDZXJ0YWlu
bHkgUm9vdCBFMTAeFw0yMTA0MDEwMDAwMDBaFw00NjA0MDEwMDAwMDBaMD0xCzAJ
BgNVBAYTAlVTMRIwEAYDVQQKEwlDZXJ0YWlubHkxGjAYBgNVBAMTEUNlcnRhaW5s
eSBSb290IEUxMHYwEAYHKoZIzj0CAQYFK4EEACIDYgAE3m/4fxzf7flHh4axpMCK
+IKXgOqPyEpeKn2IaKcBYhSRJHpcnqMXfYqGITQYUBsQ3tA3SybHGWCA6TS9YBk2
QNYphwk8kXr2vBMj3VlOBF7PyAIcGFPBMdjaIOlEjeR2o0IwQDAOBgNVHQ8BAf8E
BAMCAQYwDwYDVR0TAQH/BAUwAwEB/zAdBgNVHQ4EFgQU8ygYy2R17ikq6+2uI1g4
hevIIgcwCgYIKoZIzj0EAwMDaAAwZQIxALGOWiDDshliTd6wT99u0nCK8Z9+aozm
ut6Dacpps6kFtZaSF4fC0urQe87YQVt8rgIwRt7qy12a7DLCZRawTDBcMPPaTnOG
BtjOiQRINzf43TNRnXCve1XYAS59BWQOhriR
-----END CERTIFICATE-----
