##
##  Certainly Root R1
##
##  This is a single X.509 certificate for a public Certificate
##  Authority (CA). It was automatically extracted from Mozilla's
##  root CA list (the file `certdata.txt' in security/nss).
##
##  It contains a certificate trusted for server authentication.
##
##  Extracted from nss
##
##  @generated
##
Certificate:
    Data:
        Version: 3 (0x2)
        Serial Number:
            8e:0f:f9:4b:90:71:68:65:33:54:f4:d4:44:39:b7:e0
        Signature Algorithm: sha256WithRSAEncryption
        Issuer: C = US, O = Certainly, CN = Certainly Root R1
        Validity
            Not Before: Apr  1 00:00:00 2021 GMT
            Not After : Apr  1 00:00:00 2046 GMT
        Subject: C = US, O = Certainly, CN = Certainly Root R1
        Subject Public Key Info:
            Public Key Algorithm: rsaEncryption
                Public-Key: (4096 bit)
                Modulus:
                    00:d0:36:d4:1f:ea:dd:ab:e4:d1:b6:e6:fb:22:c0:
                    dd:13:0d:6a:7b:22:13:1c:97:3c:68:63:66:32:9c:
                    03:b5:8d:a4:81:83:da:78:30:11:cf:dc:b2:2b:be:
                    92:bf:8e:e4:c4:13:be:a4:68:4c:da:02:68:16:74:
                    be:b2:dd:04:e4:6b:2a:dd:37:1f:60:2c:db:f5:f7:
                    a1:7c:95:b7:0c:70:86:2e:f1:3a:ef:52:f7:cc:d3:
                    9b:f9:8b:be:0e:df:31:b7:9d:68:5c:92:a6:f5:e5:
                    f3:0a:34:b5:ff:7b:a2:e4:87:a1:c6:af:17:00:ef:
                    03:91:ed:a9:1c:4e:71:3d:d2:8b:6c:89:f4:78:86:
                    e6:6a:49:a0:ce:b5:d2:b0:ab:9b:f6:f4:d4:2e:e3:
                    72:f9:36:c6:eb:15:b7:25:8c:3a:fc:25:0d:b3:22:
                    73:21:74:c8:4a:96:61:92:f5:2f:0b:18:a5:f4:ad:
                    e2:ee:41:bd:01:79:fa:96:8c:8d:17:02:30:b4:f9:
                    af:78:1a:8c:b4:36:10:10:07:05:70:d0:f4:31:90:
                    8a:51:c5:86:26:79:b2:11:88:5e:c5:f0:0a:54:cd:
                    49:a6:bf:02:9c:d2:44:a7:ed:e3:78:ef:46:5e:6d:
                    71:d1:79:70:1c:46:5f:51:e9:c9:37:dc:5f:7e:69:
                    7b:41:df:34:45:e0:3b:84:f4:a1:8a:0a:36:9e:37:
                    cc:62:52:e1:89:0d:28:f9:7a:23:b1:0d:3d:3d:9a:
                    fd:9d:81:ef:2c:90:c0:7b:44:4e:bb:49:e0:0e:4a:
                    56:92:bc:cb:b5:dd:79:17:89:91:de:61:89:74:92:
                    a8:e3:32:85:be:4e:85:a4:4b:59:cb:2b:c5:78:8e:
                    71:54:d0:02:37:99:8c:e5:49:ea:e0:54:72:a4:11:
                    06:2f:0b:8c:c1:5b:be:b5:a1:b0:53:6e:9c:b8:60:
                    91:1f:59:6b:f9:2d:f4:94:0a:97:b5:ec:c5:76:03:
                    54:1b:65:52:ba:4c:92:56:51:35:a0:40:d8:29:db:
                    ae:52:76:3b:2d:30:40:9b:8a:d0:42:56:b4:b7:88:
                    01:a4:87:3b:53:96:cd:a3:16:8f:f3:66:aa:17:b1:
                    c7:60:e0:c1:43:05:0c:ee:9b:5b:60:6f:06:5c:87:
                    5b:27:f9:40:11:9e:9c:33:c1:b7:e5:35:57:05:7f:
                    27:ce:17:20:8c:1c:fc:f1:fb:da:31:29:49:ed:f5:
                    0b:84:a7:4f:c1:f6:4e:c2:28:9c:fa:ee:e0:af:07:
                    fb:33:11:7a:21:4f:0b:21:10:b6:40:3a:ab:22:3a:
                    04:9c:8b:9b:84:86:72:9a:d2:a7:a5:c4:b4:75:91:
                    a9:2b:23
                Exponent: 65537 (0x10001)
        X509v3 extensions:
            X509v3 Key Usage: critical
                Certificate Sign, CRL Sign
            X509v3 Basic Constraints: critical
                CA:TRUE
            X509v3 Subject Key Identifier: 
                E0:AA:3F:25:8D:9F:44:5C:C1:3A:E8:2E:AE:77:4C:84:3E:67:0C:F4
    Signature Algorithm: sha256WithRSAEncryption
    Signature Value:
        b9:57:af:b8:12:da:57:83:8f:68:0b:33:1d:03:53:55:f4:95:
        70:e4:2b:3d:b0:39:eb:fa:89:62:fd:f7:d6:18:04:2f:21:34:
        dd:f1:68:f0:d5:96:5a:de:c2:80:a3:c1:8d:c6:6a:f7:59:77:
        ae:15:64:cf:5b:79:05:77:66:ea:8c:d3:6b:0d:dd:f1:59:2c:
        c1:33:a5:30:80:15:45:07:45:1a:31:22:b6:92:00:ab:99:4d:
        3a:8f:77:af:a9:22:ca:2f:63:ca:15:d6:c7:c6:f0:3d:6c:fc:
        1c:0d:98:10:61:9e:11:a2:22:d7:0a:f2:91:7a:6b:39:0e:2f:
        30:c3:36:49:9f:e0:e9:0f:02:44:50:37:94:55:7d:ea:9f:f6:
        3b:ba:94:a5:4c:e9:bc:3e:51:b4:e8:ca:92:36:54:6d:5c:25:
        28:da:dd:ad:14:fd:d3:ee:e2:22:05:eb:d0:f2:b7:68:12:d7:
        5a:8a:41:1a:c6:92:a5:5a:3b:63:45:4f:bf:e1:3a:77:22:2f:
        5c:bf:46:f9:5a:03:85:13:42:5f:ca:de:53:d7:62:b5:a6:35:
        04:c2:47:ff:99:fd:84:df:5c:ce:e9:5e:80:28:41:f2:7d:e7:
        1e:90:d8:4f:76:3e:82:3c:0d:fc:a5:03:fa:7b:1a:d9:45:1e:
        60:da:c4:8e:f9:fc:2b:c9:7b:95:c5:2a:ff:aa:89:df:82:31:
        0f:72:ff:0c:27:d7:0a:1e:56:00:50:1e:0c:90:c1:96:b5:d8:
        14:85:bb:a7:0d:16:c1:f8:07:24:1b:ba:85:a1:1a:05:09:80:
        ba:95:63:c9:3a:ec:25:9f:7f:9d:ba:a4:47:15:9b:44:70:f1:
        6a:4b:d6:38:5e:43:f3:18:7e:50:6e:e9:5a:28:e6:65:e6:77:
        1b:3a:fd:1d:be:03:26:a3:db:d4:e1:bb:7e:96:27:2b:1d:ee:
        a4:fb:da:25:54:13:03:de:39:c6:c3:1f:4d:90:ec:8f:1b:4a:
        d2:1c:ed:85:95:38:50:79:46:d6:c1:90:50:31:a9:5c:9a:6e:
        1d:f5:33:56:8b:a7:99:d2:f2:c8:2c:33:93:92:30:c7:4e:8c:
        65:33:10:64:17:fd:24:17:96:d1:8d:c2:3a:6a:2b:eb:13:8b:
        44:f2:21:f3:4a:1a:b7:77:5f:d7:ed:88:a4:72:e5:39:1f:95:
        9d:be:67:c1:70:11:3d:bb:f4:f8:49:b7:e3:26:97:3a:9f:d2:
        5f:7c:fb:c0:99:7c:39:29:e0:7b:1d:bf:0d:a7:8f:d2:29:34:
        6e:24:15:cb:de:90:5e:bf:1a:c4:66:ea:c2:e6:ba:39:5f:8a:
        99:a9:41:59:07:b0:2c:af
SHA1 Fingerprint=A0:50:EE:0F:28:71:F4:27:B2:12:6D:6F:50:96:25:BA:CC:86:42:AF
-----BEGIN CERTIFICATE-----
MIIFRzCCAy+gAwIBAgIRAI4P+UuQcWhlM1T01EQ5t+AwDQYJKoZIhvcNAQELBQAw
PTELMAkGA1UEBhMCVVMxEjAQBgNVBAoTCUNlcnRhaW5seTEaMBgGA1UEAxMRQ2Vy
dGFpbmx5IFJvb3QgUjEwHhcNMjEwNDAxMDAwMDAwWhcNNDYwNDAxMDAwMDAwWjA9
MQswCQYDVQQGEwJVUzESMBAGA1UEChMJQ2VydGFpbmx5MRowGAYDVQQDExFDZXJ0
YWlubHkgUm9vdCBSMTCCAiIwDQYJKoZIhvcNAQEBBQADggIPADCCAgoCggIBANA2
1B/q3avk0bbm+yLA3RMNansiExyXPGhjZjKcA7WNpIGD2ngwEc/csiu+kr+O5MQT
vqRoTNoCaBZ0vrLdBORrKt03H2As2/X3oXyVtwxwhi7xOu9S98zTm/mLvg7fMbed
aFySpvXl8wo0tf97ouSHocavFwDvA5HtqRxOcT3Si2yJ9HiG5mpJoM610rCrm/b0
1C7jcvk2xusVtyWMOvwlDbMicyF0yEqWYZL1LwsYpfSt4u5BvQF5+paMjRcCMLT5
r3gajLQ2EBAHBXDQ9DGQilHFhiZ5shGIXsXwClTNSaa/ApzSRKft43jvRl5tcdF5
cBxGX1HpyTfcX35pe0HfNEXgO4T0oYoKNp43zGJS4YkNKPl6I7ENPT2a/Z2B7yyQ
wHtETrtJ4A5KVpK8y7XdeReJkd5hiXSSqOMyhb5OhaRLWcsrxXiOcVTQAjeZjOVJ
6uBUcqQRBi8LjMFbvrWhsFNunLhgkR9Za/kt9JQKl7XsxXYDVBtlUrpMklZRNaBA
2CnbrlJ2Oy0wQJuK0EJWtLeIAaSHO1OWzaMWj/Nmqhexx2DgwUMFDO6bW2BvBlyH
Wyf5QBGenDPBt+U1VwV/J84XIIwc/PH72jEpSe31C4SnT8H2TsIonPru4K8H+zMR
eiFPCyEQtkA6qyI6BJyLm4SGcprSp6XEtHWRqSsjAgMBAAGjQjBAMA4GA1UdDwEB
/wQEAwIBBjAPBgNVHRMBAf8EBTADAQH/MB0GA1UdDgQWBBTgqj8ljZ9EXME66C6u
d0yEPmcM9DANBgkqhkiG9w0BAQsFAAOCAgEAuVevuBLaV4OPaAszHQNTVfSVcOQr
PbA56/qJYv331hgELyE03fFo8NWWWt7CgKPBjcZq91l3rhVkz1t5BXdm6ozTaw3d
8VkswTOlMIAVRQdFGjEitpIAq5lNOo93r6kiyi9jyhXWx8bwPWz8HA2YEGGeEaIi
1wrykXprOQ4vMMM2SZ/g6Q8CRFA3lFV96p/2O7qUpUzpvD5RtOjKkjZUbVwlKNrd
rRT90+7iIgXr0PK3aBLXWopBGsaSpVo7Y0VPv+E6dyIvXL9G+VoDhRNCX8reU9di
taY1BMJH/5n9hN9czulegChB8n3nHpDYT3Y+gjwN/KUD+nsa2UUeYNrEjvn8K8l7
lcUq/6qJ34IxD3L/DCfXCh5WAFAeDJDBlrXYFIW7pw0WwfgHJBu6haEaBQmAupVj
yTrsJZ9/nbqkRxWbRHDxakvWOF5D8xh+UG7pWijmZeZ3Gzr9Hb4DJqPb1OG7fpYn
Kx3upPvaJVQTA945xsMfTZDsjxtK0hzthZU4UHlG1sGQUDGpXJpuHfUzVounmdLy
yCwzk5Iwx06MZTMQZBf9JBeW0Y3COmor6xOLRPIh80oat3df1+2IpHLlOR+Vnb5n
wXARPbv0+Em34yaXOp/SX3z7wJl8OSngex2/DaeP0ik0biQVy96QXr8axGbqwua6
OV+KmalBWQewLK8=
-----END CERTIFICATE-----
