##
##  CommScope Public Trust RSA Root-02
##
##  This is a single X.509 certificate for a public Certificate
##  Authority (CA). It was automatically extracted from Mozilla's
##  root CA list (the file `certdata.txt' in security/nss).
##
##  It contains a certificate trusted for server authentication.
##
##  Extracted from nss
##
##  @generated
##
Certificate:
    Data:
        Version: 3 (0x2)
        Serial Number:
            54:16:bf:3b:7e:39:95:71:8d:d1:aa:00:a5:86:0d:2b:8f:7a:05:4e
        Signature Algorithm: sha256WithRSAEncryption
        Issuer: C = US, O = CommScope, CN = CommScope Public Trust RSA Root-02
        Validity
            Not Before: Apr 28 17:16:43 2021 GMT
            Not After : Apr 28 17:16:42 2046 GMT
        Subject: C = US, O = CommScope, CN = CommScope Public Trust RSA Root-02
        Subject Public Key Info:
            Public Key Algorithm: rsaEncryption
                Public-Key: (4096 bit)
                Modulus:
                    00:e1:fa:0e:fb:68:00:12:c8:4d:d5:ac:22:c4:35:
                    01:3b:c5:54:e5:59:76:63:a5:7f:eb:c1:c4:6a:98:
                    bd:32:8d:17:80:eb:5d:ba:d1:62:3d:25:23:19:35:
                    14:e9:7f:89:a7:1b:62:3c:d6:50:e7:34:95:03:32:
                    b1:b4:93:22:3d:a7:e2:b1:ed:e6:7b:4e:2e:87:9b:
                    0d:33:75:0a:de:aa:35:e7:7e:e5:36:98:a2:ae:25:
                    9e:95:b3:32:96:a4:2b:58:1e:ef:3f:fe:62:34:48:
                    51:d1:b4:8d:42:ad:60:da:49:6a:95:70:dd:d2:00:
                    e2:cc:57:63:02:7b:96:dd:49:97:5b:92:4e:95:d3:
                    f9:cb:29:1f:18:4a:f8:01:2a:d2:63:09:6e:24:e9:
                    89:d2:e5:c7:22:4c:dc:73:86:47:00:aa:0d:88:8e:
                    ae:85:7d:4a:e9:bb:33:4f:0e:52:70:9d:95:e3:7c:
                    6d:96:5b:2d:3d:5f:a1:83:46:5d:b6:e3:25:b8:7c:
                    a7:19:80:1c:ea:65:43:dc:91:79:36:2c:74:7c:f2:
                    67:06:c9:89:c9:db:bf:da:68:bf:23:ed:dc:6b:ad:
                    28:83:79:2f:ec:38:a5:0d:37:01:67:27:9a:e9:33:
                    d9:33:5f:37:a1:c5:f0:ab:3d:fa:78:b0:e7:2c:9f:
                    f6:3e:9f:60:e0:ef:48:e9:90:45:1e:05:51:78:1a:
                    2c:12:2c:5c:28:ac:0d:a2:23:9e:34:8f:05:e6:a2:
                    33:ce:11:77:13:d4:0e:a4:1e:42:1f:86:cd:70:fe:
                    d9:2e:15:3d:1d:bb:b8:f2:53:57:db:cc:c6:74:29:
                    9c:18:b3:36:75:38:2e:0f:54:a1:f8:92:1f:89:96:
                    4f:bb:d4:ee:9d:e9:3b:36:42:b5:0a:3b:2a:d4:64:
                    79:36:10:e1:f9:91:03:2b:7b:20:54:cd:0d:19:1a:
                    c8:41:32:34:d1:b0:99:e1:90:1e:01:40:36:b5:b7:
                    fa:a9:e5:77:75:a4:22:81:5d:b0:8b:e4:27:12:0f:
                    54:88:c6:db:85:74:e6:b7:c0:d7:a6:29:fa:db:de:
                    f3:93:97:27:04:55:2f:0a:6f:37:c5:3d:13:af:0a:
                    00:a9:2c:8b:1c:81:28:d7:ef:86:31:a9:ae:f2:6e:
                    b8:ca:6a:2c:54:47:d8:2a:88:2e:af:c1:07:10:78:
                    ac:11:a2:2f:42:f0:37:c5:f2:b8:56:dd:0e:62:2d:
                    ce:2d:56:7e:55:f2:a7:44:f6:2b:32:f4:23:a8:47:
                    e8:d4:2a:01:78:cf:6a:c3:37:a8:9e:65:d2:2c:e5:
                    fa:ba:33:c1:06:44:f6:e6:cf:a5:0d:a7:66:08:34:
                    8a:2c:f3
                Exponent: 65537 (0x10001)
        X509v3 extensions:
            X509v3 Basic Constraints: critical
                CA:TRUE
            X509v3 Key Usage: critical
                Certificate Sign, CRL Sign
            X509v3 Subject Key Identifier: 
                47:D0:E7:B1:22:FF:9D:2C:F5:D9:57:60:B3:B1:B1:70:95:EF:61:7A
    Signature Algorithm: sha256WithRSAEncryption
    Signature Value:
        86:69:b1:4d:2f:e9:9f:4f:22:93:68:8e:e4:21:99:a3:ce:45:
        53:1b:73:44:53:00:81:61:cd:31:e3:08:ba:81:28:28:7a:92:
        b9:b6:a8:c8:43:9e:c7:13:26:4d:c2:d8:e5:55:9c:92:5d:50:
        d8:c2:2b:db:fe:e6:a8:97:cf:52:3a:24:c3:65:64:5c:47:31:
        a3:65:35:13:c3:93:b9:f7:f9:51:97:bb:a4:f0:62:87:c5:d6:
        06:d3:97:83:20:a9:7e:bb:b6:21:c2:a5:0d:84:00:e1:f2:27:
        10:83:ba:dd:03:81:d5:dd:68:c3:66:10:c8:d1:76:b4:b3:6f:
        29:9e:00:f9:c2:29:f5:b1:93:19:52:69:1a:2c:4c:a0:8b:e0:
        15:9a:31:2f:d3:88:95:59:6e:e5:c4:b3:50:c8:14:08:4a:9b:
        8b:13:83:b1:a4:72:b2:3b:76:33:41:dc:dc:aa:a6:07:6f:1d:
        24:12:9f:c8:76:bd:2f:d9:8e:f4:2c:ee:b7:d2:38:10:24:36:
        51:2f:e3:5c:5d:81:21:a7:da:bb:4e:ff:e6:07:a8:fe:b9:0d:
        27:6c:bb:70:5a:55:7a:13:e9:f1:2a:49:69:c7:5f:87:57:4c:
        43:79:6d:3a:65:e9:30:5c:41:ee:eb:77:a5:73:12:88:e8:bf:
        7d:ae:e5:c4:a8:1f:0d:8e:1c:6d:50:02:4f:26:18:43:de:8f:
        55:85:b1:0b:37:05:60:c9:55:39:12:04:a1:2a:cf:71:16:9f:
        36:51:49:bf:70:3b:9e:67:9c:fb:7b:79:c9:39:1c:78:ac:77:
        91:54:9a:b8:75:0a:81:52:97:e3:66:61:6b:ed:3e:38:1e:96:
        61:55:e1:91:54:8c:ed:8c:24:1f:81:c9:10:9a:73:99:2b:16:
        4e:72:00:3f:54:1b:f8:8d:ba:8b:e7:14:d6:b6:45:4f:60:ec:
        96:ae:c3:2f:02:4e:5d:9d:96:49:72:00:b2:ab:75:5c:0f:68:
        5b:1d:65:c2:5f:33:0f:1e:0f:f0:3b:86:f5:b0:4e:bb:9c:f7:
        ea:25:05:dc:ad:a2:9b:4b:17:01:be:42:df:35:21:1d:ad:ab:
        ae:f4:bf:ae:1f:1b:d3:e2:3b:fc:b3:72:73:1c:9b:28:90:89:
        13:3d:1d:c1:00:47:09:96:9a:38:1b:dd:b1:cf:0d:c2:b4:44:
        f3:96:95:ce:32:3a:8f:34:9c:e0:17:c7:5e:ce:ae:0d:db:87:
        38:e5:3f:5b:fd:9b:19:e1:31:41:7a:70:aa:23:6b:01:e1:45:
        4c:cd:94:ce:3b:9e:2d:e7:88:02:22:f4:6e:e8:c8:ec:d6:3c:
        f3:b9:b2:d7:77:7a:ac:7b
SHA1 Fingerprint=EA:B0:E2:52:1B:89:93:4C:11:68:F2:D8:9A:AC:22:4C:A3:8A:57:AE
-----BEGIN CERTIFICATE-----
MIIFbDCCA1SgAwIBAgIUVBa/O345lXGN0aoApYYNK496BU4wDQYJKoZIhvcNAQEL
BQAwTjELMAkGA1UEBhMCVVMxEjAQBgNVBAoMCUNvbW1TY29wZTErMCkGA1UEAwwi
Q29tbVNjb3BlIFB1YmxpYyBUcnVzdCBSU0EgUm9vdC0wMjAeFw0yMTA0MjgxNzE2
NDNaFw00NjA0MjgxNzE2NDJaME4xCzAJBgNVBAYTAlVTMRIwEAYDVQQKDAlDb21t
U2NvcGUxKzApBgNVBAMMIkNvbW1TY29wZSBQdWJsaWMgVHJ1c3QgUlNBIFJvb3Qt
MDIwggIiMA0GCSqGSIb3DQEBAQUAA4ICDwAwggIKAoICAQDh+g77aAASyE3VrCLE
NQE7xVTlWXZjpX/rwcRqmL0yjReA61260WI9JSMZNRTpf4mnG2I81lDnNJUDMrG0
kyI9p+Kx7eZ7Ti6Hmw0zdQreqjXnfuU2mKKuJZ6VszKWpCtYHu8//mI0SFHRtI1C
rWDaSWqVcN3SAOLMV2MCe5bdSZdbkk6V0/nLKR8YSvgBKtJjCW4k6YnS5cciTNxz
hkcAqg2Ijq6FfUrpuzNPDlJwnZXjfG2WWy09X6GDRl224yW4fKcZgBzqZUPckXk2
LHR88mcGyYnJ27/aaL8j7dxrrSiDeS/sOKUNNwFnJ5rpM9kzXzehxfCrPfp4sOcs
n/Y+n2Dg70jpkEUeBVF4GiwSLFworA2iI540jwXmojPOEXcT1A6kHkIfhs1w/tku
FT0du7jyU1fbzMZ0KZwYszZ1OC4PVKH4kh+Jlk+71O6d6Ts2QrUKOyrUZHk2EOH5
kQMreyBUzQ0ZGshBMjTRsJnhkB4BQDa1t/qp5Xd1pCKBXbCL5CcSD1SIxtuFdOa3
wNemKfrb3vOTlycEVS8KbzfFPROvCgCpLIscgSjX74Yxqa7ybrjKaixUR9gqiC6v
wQcQeKwRoi9C8DfF8rhW3Q5iLc4tVn5V8qdE9isy9COoR+jUKgF4z2rDN6ieZdIs
5fq6M8EGRPbmz6UNp2YINIos8wIDAQABo0IwQDAPBgNVHRMBAf8EBTADAQH/MA4G
A1UdDwEB/wQEAwIBBjAdBgNVHQ4EFgQUR9DnsSL/nSz12Vdgs7GxcJXvYXowDQYJ
KoZIhvcNAQELBQADggIBAIZpsU0v6Z9PIpNojuQhmaPORVMbc0RTAIFhzTHjCLqB
KCh6krm2qMhDnscTJk3C2OVVnJJdUNjCK9v+5qiXz1I6JMNlZFxHMaNlNRPDk7n3
+VGXu6TwYofF1gbTl4MgqX67tiHCpQ2EAOHyJxCDut0DgdXdaMNmEMjRdrSzbyme
APnCKfWxkxlSaRosTKCL4BWaMS/TiJVZbuXEs1DIFAhKm4sTg7GkcrI7djNB3Nyq
pgdvHSQSn8h2vS/ZjvQs7rfSOBAkNlEv41xdgSGn2rtO/+YHqP65DSdsu3BaVXoT
6fEqSWnHX4dXTEN5bTpl6TBcQe7rd6VzEojov32u5cSoHw2OHG1QAk8mGEPej1WF
sQs3BWDJVTkSBKEqz3EWnzZRSb9wO55nnPt7eck5HHisd5FUmrh1CoFSl+NmYWvt
PjgelmFV4ZFUjO2MJB+ByRCac5krFk5yAD9UG/iNuovnFNa2RU9g7Jauwy8CTl2d
lklyALKrdVwPaFsdZcJfMw8eD/A7hvWwTruc9+olBdytoptLFwG+Qt81IR2tq670
v64fG9PiO/yzcnMcmyiQiRM9HcEARwmWmjgb3bHPDcK0RPOWlc4yOo80nOAXx17O
rg3bhzjlP1v9mxnhMUF6cKojawHhRUzNlM47ni3niAIi9G7oyOzWPPO5std3eqx7
-----END CERTIFICATE-----
