##
##  CommScope Public Trust RSA Root-01
##
##  This is a single X.509 certificate for a public Certificate
##  Authority (CA). It was automatically extracted from Mozilla's
##  root CA list (the file `certdata.txt' in security/nss).
##
##  It contains a certificate trusted for server authentication.
##
##  Extracted from nss
##
##  @generated
##
Certificate:
    Data:
        Version: 3 (0x2)
        Serial Number:
            3e:03:49:81:75:16:74:31:8e:4c:ab:d5:c5:90:29:96:c5:39:10:dd
        Signature Algorithm: sha256WithRSAEncryption
        Issuer: C = US, O = CommScope, CN = CommScope Public Trust RSA Root-01
        Validity
            Not Before: Apr 28 16:45:54 2021 GMT
            Not After : Apr 28 16:45:53 2046 GMT
        Subject: C = US, O = CommScope, CN = CommScope Public Trust RSA Root-01
        Subject Public Key Info:
            Public Key Algorithm: rsaEncryption
                Public-Key: (4096 bit)
                Modulus:
                    00:b0:48:65:a3:0d:1d:42:e3:91:6d:9d:84:a4:61:
                    96:12:c2:ed:c3:da:23:34:19:76:f6:ea:fd:55:5a:
                    f6:55:01:53:0f:f2:cc:8c:97:4f:b9:50:cb:b3:01:
                    44:56:96:fd:9b:28:ec:7b:74:0b:e7:42:6b:55:ce:
                    c9:61:b2:e8:ad:40:3c:ba:b9:41:0a:05:4f:1b:26:
                    85:8f:43:b5:40:b5:85:d1:d4:71:dc:83:41:f3:f6:
                    45:c7:80:a2:84:50:97:46:ce:a0:0c:c4:60:56:04:
                    1d:07:5b:46:a5:0e:b2:4b:a4:0e:a5:7c:ee:f8:d4:
                    62:03:b9:93:6a:8a:14:b8:70:f8:2e:82:46:38:23:
                    0e:74:c7:6b:41:b7:d0:29:a3:9d:80:b0:7e:77:93:
                    63:42:fb:34:83:3b:73:a3:5a:21:36:eb:47:fa:18:
                    17:d9:ba:66:c2:93:a4:8f:fc:5d:a4:ad:fc:50:6a:
                    95:ac:bc:24:33:d1:bd:88:7f:86:f5:f5:b2:73:2a:
                    8f:7c:af:08:f2:1a:98:3f:a9:81:65:3f:c1:8c:89:
                    c5:96:30:9a:0a:cf:f4:d4:c8:34:ed:9d:2f:bc:8d:
                    38:86:53:ee:97:9f:a9:b2:63:94:17:8d:0f:dc:66:
                    2a:7c:52:51:75:cb:99:8e:e8:3d:5c:bf:9e:3b:28:
                    8d:83:02:0f:a9:9f:72:e2:2c:2b:b3:dc:66:97:00:
                    40:d0:a4:54:8e:9b:5d:7b:45:36:26:d6:72:43:eb:
                    cf:c0:ea:0d:dc:ce:12:e6:7d:38:9f:05:27:a8:97:
                    3e:e9:51:c6:6c:05:28:c1:02:0f:e9:18:6d:ec:bd:
                    9c:06:d4:a7:49:f4:54:05:6b:6c:30:f1:eb:03:d5:
                    ea:3d:6a:76:c2:cb:1a:28:49:4d:7f:64:e0:fa:2b:
                    da:73:83:81:ff:91:03:bd:94:bb:e4:b8:8e:9c:32:
                    63:cd:9f:bb:68:81:b1:84:5b:af:36:bf:77:ee:1d:
                    7f:f7:49:9b:52:ec:d2:77:5a:7d:91:9d:4d:c2:39:
                    2d:e4:ba:82:f8:6f:f2:4e:1e:0f:4e:e6:3f:59:a5:
                    23:dc:3d:87:a8:28:58:28:d1:f1:1b:36:db:4f:c4:
                    ff:e1:8c:5b:72:8c:c7:26:03:27:a3:39:0a:01:aa:
                    c0:b2:31:60:83:22:a1:4f:12:09:01:11:af:34:d4:
                    cf:d7:ae:62:d3:05:07:b4:31:75:e0:0d:6d:57:4f:
                    69:87:f9:57:a9:ba:15:f6:c8:52:6d:a1:cb:9c:1f:
                    e5:fc:78:a8:35:9a:9f:41:14:ce:a5:b4:ce:94:08:
                    1c:09:ad:56:e5:da:b6:49:9a:4a:ea:63:18:53:9c:
                    2c:2e:c3
                Exponent: 65537 (0x10001)
        X509v3 extensions:
            X509v3 Basic Constraints: critical
                CA:TRUE
            X509v3 Key Usage: critical
                Certificate Sign, CRL Sign
            X509v3 Subject Key Identifier: 
                37:5D:A6:9A:74:32:C2:C2:F9:C7:A6:15:10:59:B8:E4:FD:E5:B8:6D
    Signature Algorithm: sha256WithRSAEncryption
    Signature Value:
        af:a7:cf:de:ff:e0:bd:42:8d:4d:e5:22:96:df:68:ea:7d:4d:
        2a:7d:d0:ad:3d:16:5c:43:e7:7d:c0:86:e8:7a:35:63:f1:cc:
        81:c8:c6:0b:e8:2e:52:35:a4:a6:49:90:63:51:ac:34:ac:05:
        3b:57:00:e9:d3:62:d3:d9:29:d5:54:be:1c:10:91:9c:b2:6d:
        fe:59:fd:79:f7:ea:56:d0:9e:68:54:42:8f:26:52:e2:4c:df:
        2f:97:a6:2f:d2:07:98:a8:f3:60:5d:4b:9a:58:57:88:ef:82:
        e5:fa:af:6c:81:4b:92:8f:40:9a:93:46:59:cb:5f:78:16:b1:
        67:3e:42:0b:df:28:d9:b0:ad:98:20:be:43:7c:d1:5e:1a:09:
        17:24:8d:7b:5d:95:e9:ab:c1:60:ab:5b:18:64:80:fb:ad:e0:
        06:7d:1d:ca:59:b8:f3:78:29:67:c6:56:1d:af:b6:b5:74:2a:
        76:a1:3f:fb:75:30:9f:94:5e:3b:a5:60:f3:cb:5c:0c:e2:0e:
        c9:60:f8:c9:1f:16:8a:26:dd:e7:27:7f:eb:25:a6:8a:bd:b8:
        2d:36:10:9a:b1:58:4d:9a:68:4f:60:54:e5:f6:46:13:8e:88:
        ac:bc:21:42:12:ad:c6:4a:89:7d:9b:c1:d8:2d:e9:96:03:f4:
        a2:74:0c:bc:00:1d:bf:d6:37:25:67:b4:72:8b:af:85:bd:ea:
        2a:03:8f:cc:fb:3c:44:24:82:e2:01:a5:0b:59:b6:34:8d:32:
        0b:12:0d:eb:27:c2:fd:41:d7:40:3c:72:46:29:c0:8c:ea:ba:
        0f:f1:06:93:2e:f7:9c:a8:f4:60:3e:a3:f1:38:5e:8e:13:c1:
        b3:3a:97:87:3f:92:ca:78:a9:1c:af:d0:b0:1b:26:1e:be:70:
        ec:7a:f5:33:98:ea:5c:ff:2b:0b:04:4e:43:dd:63:7e:0e:a7:
        4e:78:03:95:3e:d4:2d:30:95:11:10:28:2e:bf:a0:02:3e:ff:
        5e:59:d3:05:0e:95:5f:53:45:ef:6b:87:d5:48:cd:16:a6:96:
        83:e1:df:b3:06:f3:c1:14:db:a7:ec:1c:8b:5d:90:90:0d:72:
        51:e7:61:f9:14:ca:af:83:8f:bf:af:b1:0a:59:5d:dc:5c:d7:
        e4:96:ad:5b:60:1d:da:ae:97:b2:39:d9:06:f5:76:00:13:f8:
        68:4c:21:b0:35:c4:dc:55:b2:c9:c1:41:5a:1c:89:c0:8c:6f:
        74:a0:6b:33:4d:b5:01:28:fd:ad:ad:89:17:3b:a6:9a:84:bc:
        eb:8c:ea:c4:71:24:a8:ba:29:f9:08:b2:27:56:35:32:5f:ea:
        39:fb:31:9a:d5:19:cc:f0
SHA1 Fingerprint=6D:0A:5F:F7:B4:23:06:B4:85:B3:B7:97:64:FC:AC:75:F5:33:F2:93
-----BEGIN CERTIFICATE-----
MIIFbDCCA1SgAwIBAgIUPgNJgXUWdDGOTKvVxZAplsU5EN0wDQYJKoZIhvcNAQEL
BQAwTjELMAkGA1UEBhMCVVMxEjAQBgNVBAoMCUNvbW1TY29wZTErMCkGA1UEAwwi
Q29tbVNjb3BlIFB1YmxpYyBUcnVzdCBSU0EgUm9vdC0wMTAeFw0yMTA0MjgxNjQ1
NTRaFw00NjA0MjgxNjQ1NTNaME4xCzAJBgNVBAYTAlVTMRIwEAYDVQQKDAlDb21t
U2NvcGUxKzApBgNVBAMMIkNvbW1TY29wZSBQdWJsaWMgVHJ1c3QgUlNBIFJvb3Qt
MDEwggIiMA0GCSqGSIb3DQEBAQUAA4ICDwAwggIKAoICAQCwSGWjDR1C45FtnYSk
YZYSwu3D2iM0GXb26v1VWvZVAVMP8syMl0+5UMuzAURWlv2bKOx7dAvnQmtVzslh
suitQDy6uUEKBU8bJoWPQ7VAtYXR1HHcg0Hz9kXHgKKEUJdGzqAMxGBWBB0HW0al
DrJLpA6lfO741GIDuZNqihS4cPgugkY4Iw50x2tBt9Apo52AsH53k2NC+zSDO3Oj
WiE260f6GBfZumbCk6SP/F2krfxQapWsvCQz0b2If4b19bJzKo98rwjyGpg/qYFl
P8GMicWWMJoKz/TUyDTtnS+8jTiGU+6Xn6myY5QXjQ/cZip8UlF1y5mO6D1cv547
KI2DAg+pn3LiLCuz3GaXAEDQpFSOm117RTYm1nJD68/A6g3czhLmfTifBSeolz7p
UcZsBSjBAg/pGG3svZwG1KdJ9FQFa2ww8esD1eo9anbCyxooSU1/ZOD6K9pzg4H/
kQO9lLvkuI6cMmPNn7togbGEW682v3fuHX/3SZtS7NJ3Wn2RnU3COS3kuoL4b/JO
Hg9O5j9ZpSPcPYeoKFgo0fEbNttPxP/hjFtyjMcmAyejOQoBqsCyMWCDIqFPEgkB
Ea801M/XrmLTBQe0MXXgDW1XT2mH+VepuhX2yFJtocucH+X8eKg1mp9BFM6ltM6U
CBwJrVbl2rZJmkrqYxhTnCwuwwIDAQABo0IwQDAPBgNVHRMBAf8EBTADAQH/MA4G
A1UdDwEB/wQEAwIBBjAdBgNVHQ4EFgQUN12mmnQywsL5x6YVEFm45P3luG0wDQYJ
KoZIhvcNAQELBQADggIBAK+nz97/4L1CjU3lIpbfaOp9TSp90K09FlxD533Ahuh6
NWPxzIHIxgvoLlI1pKZJkGNRrDSsBTtXAOnTYtPZKdVUvhwQkZyybf5Z/Xn36lbQ
nmhUQo8mUuJM3y+Xpi/SB5io82BdS5pYV4jvguX6r2yBS5KPQJqTRlnLX3gWsWc+
QgvfKNmwrZggvkN80V4aCRckjXtdlemrwWCrWxhkgPut4AZ9HcpZuPN4KWfGVh2v
trV0KnahP/t1MJ+UXjulYPPLXAziDslg+MkfFoom3ecnf+slpoq9uC02EJqxWE2a
aE9gVOX2RhOOiKy8IUISrcZKiX2bwdgt6ZYD9KJ0DLwAHb/WNyVntHKLr4W96ioD
j8z7PEQkguIBpQtZtjSNMgsSDesnwv1B10A8ckYpwIzqug/xBpMu95yo9GA+o/E4
Xo4TwbM6l4c/ksp4qRyv0LAbJh6+cOx69TOY6lz/KwsETkPdY34Op054A5U+1C0w
lREQKC6/oAI+/15Z0wUOlV9TRe9rh9VIzRamloPh37MG88EU26fsHItdkJANclHn
YfkUyq+Dj7+vsQpZXdxc1+SWrVtgHdqul7I52Qb1dgAT+GhMIbA1xNxVssnBQVoc
icCMb3SgazNNtQEo/a2tiRc7ppqEvOuM6sRxJKi6KfkIsidWNTJf6jn7MZrVGczw
-----END CERTIFICATE-----
