##
##  CommScope Public Trust ECC Root-01
##
##  This is a single X.509 certificate for a public Certificate
##  Authority (CA). It was automatically extracted from Mozilla's
##  root CA list (the file `certdata.txt' in security/nss).
##
##  It contains a certificate trusted for server authentication.
##
##  Extracted from nss
##
##  @generated
##
Certificate:
    Data:
        Version: 3 (0x2)
        Serial Number:
            43:70:82:77:cf:4d:5d:34:f1:ca:ae:32:2f:37:f7:f4:7f:75:a0:9e
        Signature Algorithm: ecdsa-with-SHA384
        Issuer: C = US, O = CommScope, CN = CommScope Public Trust ECC Root-01
        Validity
            Not Before: Apr 28 17:35:43 2021 GMT
            Not After : Apr 28 17:35:42 2046 GMT
        Subject: C = US, O = CommScope, CN = CommScope Public Trust ECC Root-01
        Subject Public Key Info:
            Public Key Algorithm: id-ecPublicKey
                Public-Key: (384 bit)
                pub:
                    04:4b:36:e9:ae:57:5e:a8:70:d7:d0:8f:74:62:77:
                    c3:5e:7a:aa:e5:b6:a2:f1:78:fd:02:7e:57:dd:91:
                    79:9c:6c:b9:52:88:54:bc:2f:04:be:b8:cd:f6:10:
                    d1:29:ec:b5:d0:a0:c3:f0:89:70:19:bb:51:65:c5:
                    43:9c:c3:9b:63:9d:20:83:3e:06:0b:a6:42:44:85:
                    11:a7:4a:3a:2d:e9:d6:68:2f:48:4e:53:2b:07:3f:
                    4d:bd:b9:ac:77:39:57
                ASN1 OID: secp384r1
                NIST CURVE: P-384
        X509v3 extensions:
            X509v3 Basic Constraints: critical
                CA:TRUE
            X509v3 Key Usage: critical
                Certificate Sign, CRL Sign
            X509v3 Subject Key Identifier: 
                8E:07:62:C0:50:DD:C6:19:06:00:46:74:04:F7:F3:AE:7D:75:4D:30
    Signature Algorithm: ecdsa-with-SHA384
    Signature Value:
        30:65:02:31:00:9c:33:df:41:e3:23:a8:42:36:26:97:35:5c:
        7b:eb:db:4b:f8:aa:8b:73:55:15:5c:ac:78:29:0f:ba:21:d8:
        c4:a0:d8:d1:03:dd:6d:d1:39:3d:c4:93:60:d2:e3:72:b2:02:
        30:7c:c5:7e:88:d3:50:f5:1e:25:e8:fa:4e:75:e6:58:96:a4:
        35:5f:1b:65:ea:61:9a:70:23:b5:0d:a3:9b:92:52:6f:69:a0:
        8c:8d:4a:d0:ee:8b:0e:cb:47:8e:d0:8d:11
SHA1 Fingerprint=07:86:C0:D8:DD:8E:C0:80:98:06:98:D0:58:7A:EF:DE:A6:CC:A2:5D
-----BEGIN CERTIFICATE-----
MIICHTCCAaOgAwIBAgIUQ3CCd89NXTTxyq4yLzf39H91oJ4wCgYIKoZIzj0EAwMw
TjELMAkGA1UEBhMCVVMxEjAQBgNVBAoMCUNvbW1TY29wZTErMCkGA1UEAwwiQ29t
bVNjb3BlIFB1YmxpYyBUcnVzdCBFQ0MgUm9vdC0wMTAeFw0yMTA0MjgxNzM1NDNa
Fw00NjA0MjgxNzM1NDJaME4xCzAJBgNVBAYTAlVTMRIwEAYDVQQKDAlDb21tU2Nv
cGUxKzApBgNVBAMMIkNvbW1TY29wZSBQdWJsaWMgVHJ1c3QgRUNDIFJvb3QtMDEw
djAQBgcqhkjOPQIBBgUrgQQAIgNiAARLNumuV16ocNfQj3Rid8NeeqrltqLxeP0C
flfdkXmcbLlSiFS8LwS+uM32ENEp7LXQoMPwiXAZu1FlxUOcw5tjnSCDPgYLpkJE
hRGnSjot6dZoL0hOUysHP029uax3OVejQjBAMA8GA1UdEwEB/wQFMAMBAf8wDgYD
VR0PAQH/BAQDAgEGMB0GA1UdDgQWBBSOB2LAUN3GGQYARnQE9/OufXVNMDAKBggq
hkjOPQQDAwNoADBlAjEAnDPfQeMjqEI2Jpc1XHvr20v4qotzVRVcrHgpD7oh2MSg
2NED3W3ROT3Ek2DS43KyAjB8xX6I01D1HiXo+k515liWpDVfG2XqYZpwI7UNo5uS
Um9poIyNStDuiw7LR47QjRE=
-----END CERTIFICATE-----
