##
##  D-TRUST BR Root CA 2 2023
##
##  This is a single X.509 certificate for a public Certificate
##  Authority (CA). It was automatically extracted from Mozilla's
##  root CA list (the file `certdata.txt' in security/nss).
##
##  It contains a certificate trusted for server authentication.
##
##  Extracted from nss
##
##  @generated
##
Certificate:
    Data:
        Version: 3 (0x2)
        Serial Number:
            73:3b:30:04:48:5b:d9:4d:78:2e:73:4b:c9:a1:dc:66
        Signature Algorithm: sha512WithRSAEncryption
        Issuer: C = DE, O = D-Trust GmbH, CN = D-TRUST BR Root CA 2 2023
        Validity
            Not Before: May  9 08:56:31 2023 GMT
            Not After : May  9 08:56:30 2038 GMT
        Subject: C = DE, O = D-Trust GmbH, CN = D-TRUST BR Root CA 2 2023
        Subject Public Key Info:
            Public Key Algorithm: rsaEncryption
                Public-Key: (4096 bit)
                Modulus:
                    00:ae:ff:09:59:91:80:0a:4a:68:e6:24:3f:b8:a7:
                    e4:c8:3a:0a:3a:16:cd:c9:23:61:a0:93:71:f2:ab:
                    8b:73:8f:a0:67:65:60:d2:54:6b:63:51:6f:49:33:
                    e0:72:07:13:7d:38:cd:06:92:07:29:52:6b:4e:77:
                    6c:04:d3:95:fa:dd:4c:8c:d9:5d:c1:61:7d:4b:e7:
                    28:b3:44:81:7b:51:af:dd:33:b1:68:7c:d6:4e:4c:
                    fe:2b:68:b9:ca:66:69:c4:ec:5e:57:7f:f7:0d:c7:
                    9c:36:36:e5:07:60:ac:c0:4c:ea:08:6c:ef:06:7c:
                    4f:5b:28:7a:08:fc:93:5d:9b:f6:9c:b4:8b:86:ba:
                    21:b9:f4:f0:e8:59:5a:28:a1:34:84:1a:25:91:b6:
                    b5:8f:ef:b2:f9:80:fa:f9:3d:3c:11:72:d8:e3:2f:
                    86:76:c5:79:2c:c1:a9:90:93:46:98:67:cb:83:6a:
                    a0:50:23:a7:3b:f6:81:39:e0:ed:f0:b9:bf:65:f1:
                    d8:cb:7a:fb:ef:73:03:ce:00:f4:7d:d7:e0:5d:3b:
                    66:b8:dc:8e:ba:83:cb:87:76:03:fc:25:d9:e7:23:
                    6f:06:fd:67:f3:e0:ff:84:bc:47:bf:b5:16:18:46:
                    69:14:cc:05:f7:db:d3:49:ac:6b:cc:ab:e4:b5:0b:
                    43:24:5e:4b:6b:4d:67:df:d6:b5:3e:4f:78:1f:94:
                    71:24:ea:de:70:fc:f1:93:fe:9e:93:5a:e4:94:5a:
                    97:54:0c:35:7b:5f:6c:ee:00:1f:24:ec:03:ba:02:
                    f5:76:f4:9f:d4:9a:ed:85:2c:38:22:2f:c7:d8:2f:
                    76:11:4f:fd:6c:5c:e8:f5:8e:27:87:7f:19:4a:21:
                    47:90:1d:79:8d:1c:5b:f8:cf:4a:85:e4:ed:b3:5b:
                    8d:be:c4:64:28:5d:41:c4:6e:ac:38:5a:4f:23:74:
                    74:a9:12:c3:f6:d2:b9:11:15:33:07:91:d8:3b:37:
                    3a:63:30:06:d1:c5:22:36:28:62:23:10:e0:46:cc:
                    97:ac:d6:2b:5d:64:24:d5:ee:1c:0e:de:fb:08:5a:
                    75:2a:f6:63:6d:ce:0b:42:be:d1:ba:70:1c:9c:21:
                    e5:0f:31:69:17:d7:fc:0a:b4:de:ed:80:9c:cb:92:
                    b4:8b:f5:de:59:a2:58:09:a5:63:47:0b:e1:41:32:
                    34:41:d9:9a:b1:d9:a8:b0:1b:5a:de:0d:0d:f4:e2:
                    b2:5d:35:80:b9:81:d4:84:69:91:02:cb:75:d0:8d:
                    c5:b5:3d:09:91:09:8f:14:a1:14:74:79:3e:d6:c9:
                    15:1d:a4:59:59:22:dc:f6:8a:45:3d:3c:12:d6:3e:
                    5d:32:2f
                Exponent: 65537 (0x10001)
        X509v3 extensions:
            X509v3 Basic Constraints: critical
                CA:TRUE
            X509v3 Subject Key Identifier: 
                67:90:F0:D6:DE:B5:18:D5:46:29:7E:5C:AB:F8:9E:08:BC:64:95:10
            X509v3 Key Usage: critical
                Certificate Sign, CRL Sign
            X509v3 CRL Distribution Points: 
                Full Name:
                  URI:http://crl.d-trust.net/crl/d-trust_br_root_ca_2_2023.crl
    Signature Algorithm: sha512WithRSAEncryption
    Signature Value:
        34:f7:b3:77:53:db:30:16:b9:2d:a5:21:f1:40:21:75:eb:eb:
        48:16:81:3d:73:e0:9e:27:2a:eb:77:a9:13:a4:6a:0a:5a:5a:
        14:33:3d:68:1f:81:ae:69:fd:8c:9f:65:6c:34:42:d9:2d:d0:
        7f:78:16:b1:3a:ac:23:31:ad:5e:7f:ae:e7:ae:2b:fa:ba:fc:
        3c:97:95:40:93:5f:c3:2d:03:a3:ed:a4:6f:53:d7:fa:40:0e:
        30:f5:00:20:2c:00:4c:8c:3b:b4:a3:1f:b6:bf:91:32:ab:af:
        92:98:d3:16:e6:d4:d1:54:5c:43:5b:2e:ae:ef:57:2a:a8:b4:
        6f:a4:ef:0d:56:14:da:21:ab:20:76:9e:03:fc:26:b8:9e:3f:
        3e:03:26:e6:4c:db:9d:5f:42:84:3d:45:03:03:1c:59:88:ca:
        dc:2e:61:24:5a:a4:ea:27:0b:73:12:be:52:b3:0a:cf:32:17:
        e2:1e:87:1a:16:95:48:6d:5a:e0:d0:cf:09:92:26:66:91:d8:
        a3:61:0e:aa:81:81:7f:e8:52:82:d1:42:e7:e0:1d:18:fa:a4:
        85:36:e7:86:e0:0d:eb:bc:d4:c9:d6:3c:43:f1:5d:49:6e:7e:
        81:9b:69:b5:89:62:8f:88:52:d8:d7:fe:27:c1:23:c5:cb:2b:
        02:bb:b1:5f:fe:fb:43:85:03:46:be:5d:c6:ca:21:26:ff:d7:
        02:9e:74:4a:dc:f8:13:15:b1:81:57:36:cb:65:5c:d1:1d:31:
        77:e9:25:c3:c3:b2:32:37:d5:f1:98:09:e4:6d:63:80:08:ab:
        06:92:81:d4:e9:70:8f:a7:3f:b2:ed:86:8c:82:6a:35:c8:42:
        5a:82:d1:52:1a:45:0f:15:a5:00:f0:94:7b:65:27:57:39:43:
        cf:7c:7f:e6:bd:35:b3:7b:f1:19:4c:de:3a:96:cf:e9:76:ee:
        03:e7:c2:43:52:3c:6a:81:e8:c1:5a:80:bd:11:5d:93:6b:fb:
        c7:e6:64:3f:bb:69:1c:e9:dd:25:8b:af:74:c9:54:40:ca:cb:
        93:13:0a:ed:fb:66:92:11:ca:f5:c0:fa:d8:83:55:03:7c:d3:
        c5:22:46:75:70:6b:79:48:06:2a:82:9a:bf:e6:eb:16:0e:22:
        45:01:bc:dd:36:94:34:a9:35:26:8a:d7:97:b9:ee:08:72:bf:
        34:92:70:83:80:ab:38:aa:59:68:dd:40:a4:18:90:b2:f3:d5:
        03:ca:26:ca:ef:d5:c7:e0:8f:53:8e:f0:00:e3:a8:ed:9f:f9:
        ad:77:e0:2b:63:4f:9e:c3:ee:37:bb:78:09:84:9e:b9:6e:fb:
        29:99:90:e8:80:d3:9f:24
SHA1 Fingerprint=2D:B0:70:EE:71:94:AF:69:68:17:DB:79:CE:58:9F:A0:6B:96:F7:87
-----BEGIN CERTIFICATE-----
MIIFqTCCA5GgAwIBAgIQczswBEhb2U14LnNLyaHcZjANBgkqhkiG9w0BAQ0FADBI
MQswCQYDVQQGEwJERTEVMBMGA1UEChMMRC1UcnVzdCBHbWJIMSIwIAYDVQQDExlE
LVRSVVNUIEJSIFJvb3QgQ0EgMiAyMDIzMB4XDTIzMDUwOTA4NTYzMVoXDTM4MDUw
OTA4NTYzMFowSDELMAkGA1UEBhMCREUxFTATBgNVBAoTDEQtVHJ1c3QgR21iSDEi
MCAGA1UEAxMZRC1UUlVTVCBCUiBSb290IENBIDIgMjAyMzCCAiIwDQYJKoZIhvcN
AQEBBQADggIPADCCAgoCggIBAK7/CVmRgApKaOYkP7in5Mg6CjoWzckjYaCTcfKr
i3OPoGdlYNJUa2NRb0kz4HIHE304zQaSBylSa053bATTlfrdTIzZXcFhfUvnKLNE
gXtRr90zsWh81k5M/itoucpmacTsXld/9w3HnDY25QdgrMBM6ghs7wZ8T1soegj8
k12b9py0i4a6Ibn08OhZWiihNIQaJZG2tY/vsvmA+vk9PBFy2OMvhnbFeSzBqZCT
Rphny4NqoFAjpzv2gTng7fC5v2Xx2Mt6++9zA84A9H3X4F07ZrjcjrqDy4d2A/wl
2ecjbwb9Z/Pg/4S8R7+1FhhGaRTMBffb00msa8yr5LULQyReS2tNZ9/WtT5PeB+U
cSTq3nD88ZP+npNa5JRal1QMNXtfbO4AHyTsA7oC9Xb0n9Sa7YUsOCIvx9gvdhFP
/Wxc6PWOJ4d/GUohR5AdeY0cW/jPSoXk7bNbjb7EZChdQcRurDhaTyN0dKkSw/bS
uREVMweR2Ds3OmMwBtHFIjYoYiMQ4EbMl6zWK11kJNXuHA7e+whadSr2Y23OC0K+
0bpwHJwh5Q8xaRfX/Aq03u2AnMuStIv13lmiWAmlY0cL4UEyNEHZmrHZqLAbWt4N
DfTisl01gLmB1IRpkQLLddCNxbU9CZEJjxShFHR5PtbJFR2kWVki3PaKRT08EtY+
XTIvAgMBAAGjgY4wgYswDwYDVR0TAQH/BAUwAwEB/zAdBgNVHQ4EFgQUZ5Dw1t61
GNVGKX5cq/ieCLxklRAwDgYDVR0PAQH/BAQDAgEGMEkGA1UdHwRCMEAwPqA8oDqG
OGh0dHA6Ly9jcmwuZC10cnVzdC5uZXQvY3JsL2QtdHJ1c3RfYnJfcm9vdF9jYV8y
XzIwMjMuY3JsMA0GCSqGSIb3DQEBDQUAA4ICAQA097N3U9swFrktpSHxQCF16+tI
FoE9c+CeJyrrd6kTpGoKWloUMz1oH4Guaf2Mn2VsNELZLdB/eBaxOqwjMa1ef67n
riv6uvw8l5VAk1/DLQOj7aRvU9f6QA4w9QAgLABMjDu0ox+2v5Eyq6+SmNMW5tTR
VFxDWy6u71cqqLRvpO8NVhTaIasgdp4D/Ca4nj8+AybmTNudX0KEPUUDAxxZiMrc
LmEkWqTqJwtzEr5SswrPMhfiHocaFpVIbVrg0M8JkiZmkdijYQ6qgYF/6FKC0ULn
4B0Y+qSFNueG4A3rvNTJ1jxD8V1Jbn6Bm2m1iWKPiFLY1/4nwSPFyysCu7Ff/vtD
hQNGvl3GyiEm/9cCnnRK3PgTFbGBVzbLZVzRHTF36SXDw7IyN9XxmAnkbWOACKsG
koHU6XCPpz+y7YaMgmo1yEJagtFSGkUPFaUA8JR7ZSdXOUPPfH/mvTWze/EZTN46
ls/pdu4D58JDUjxqgejBWoC9EV2Ta/vH5mQ/u2kc6d0li690yVRAysuTEwrt+2aS
Ecr1wPrYg1UDfNPFIkZ1cGt5SAYqgpq/5usWDiJFAbzdNpQ0qTUmiteXue4Icr80
knCDgKs4qllo3UCkGJCy89UDyibK79XH4I9TjvAA46jtn/mtd+ArY0+ew+43u3gJ
hJ65bvspmZDogNOfJA==
-----END CERTIFICATE-----
