##
##  D-TRUST BR Root CA 1 2020
##
##  This is a single X.509 certificate for a public Certificate
##  Authority (CA). It was automatically extracted from Mozilla's
##  root CA list (the file `certdata.txt' in security/nss).
##
##  It contains a certificate trusted for server authentication.
##
##  Extracted from nss
##  with $FreeBSD$
##
##  @generated
##
Certificate:
    Data:
        Version: 3 (0x2)
        Serial Number:
            7c:c9:8f:2b:84:d7:df:ea:0f:c9:65:9a:d3:4b:4d:96
        Signature Algorithm: ecdsa-with-SHA384
        Issuer: C = DE, O = D-Trust GmbH, CN = D-TRUST BR Root CA 1 2020
        Validity
            Not Before: Feb 11 09:45:00 2020 GMT
            Not After : Feb 11 09:44:59 2035 GMT
        Subject: C = DE, O = D-Trust GmbH, CN = D-TRUST BR Root CA 1 2020
        Subject Public Key Info:
            Public Key Algorithm: id-ecPublicKey
                Public-Key: (384 bit)
                pub:
                    04:c6:cb:c7:28:d1:fb:84:f5:9a:ef:42:14:20:e1:
                    43:6b:6e:75:ad:fc:2b:03:84:d4:76:93:25:d7:59:
                    3b:41:65:6b:1e:e6:34:2a:bb:74:f6:12:ce:e8:6d:
                    e7:ab:e4:3c:4e:3f:44:08:8b:cd:16:71:cb:bf:92:
                    99:f4:a4:d7:3c:50:54:52:90:85:83:78:94:67:67:
                    a3:1c:09:19:3d:75:34:85:de:ed:60:7d:c7:0c:b4:
                    41:52:b9:6e:e5:ee:42
                ASN1 OID: secp384r1
                NIST CURVE: P-384
        X509v3 extensions:
            X509v3 Basic Constraints: critical
                CA:TRUE
            X509v3 Subject Key Identifier: 
                73:91:10:AB:FF:55:B3:5A:7C:09:25:D5:B2:BA:08:A0:6B:AB:1F:6D
            X509v3 Key Usage: critical
                Certificate Sign, CRL Sign
            X509v3 CRL Distribution Points: 

                Full Name:
                  URI:http://crl.d-trust.net/crl/d-trust_br_root_ca_1_2020.crl

                Full Name:
                  URI:ldap://directory.d-trust.net/CN=D-TRUST%20BR%20Root%20CA%201%202020,O=D-Trust%20GmbH,C=DE?certificaterevocationlist

    Signature Algorithm: ecdsa-with-SHA384
         30:66:02:31:00:94:90:2d:13:fa:e1:63:f8:61:63:e8:ad:85:
         78:54:91:9c:b8:93:38:3e:1a:41:da:40:16:53:42:08:ca:2f:
         8e:f1:3e:81:56:c0:aa:d8:ed:18:c4:b0:ae:f4:3e:fa:26:02:
         31:00:f3:28:e2:c6:db:2b:99:fb:b7:51:b8:24:a3:a4:94:7a:
         1a:3f:e6:36:e2:03:57:33:8a:30:cb:82:c7:d6:14:11:d5:75:
         63:5b:14:95:9c:1f:01:cf:d8:d5:72:a7:0f:3b
SHA1 Fingerprint=1F:5B:98:F0:E3:B5:F7:74:3C:ED:E6:B0:36:7D:32:CD:F4:09:41:67
-----BEGIN CERTIFICATE-----
MIIC2zCCAmCgAwIBAgIQfMmPK4TX3+oPyWWa00tNljAKBggqhkjOPQQDAzBIMQsw
CQYDVQQGEwJERTEVMBMGA1UEChMMRC1UcnVzdCBHbWJIMSIwIAYDVQQDExlELVRS
VVNUIEJSIFJvb3QgQ0EgMSAyMDIwMB4XDTIwMDIxMTA5NDUwMFoXDTM1MDIxMTA5
NDQ1OVowSDELMAkGA1UEBhMCREUxFTATBgNVBAoTDEQtVHJ1c3QgR21iSDEiMCAG
A1UEAxMZRC1UUlVTVCBCUiBSb290IENBIDEgMjAyMDB2MBAGByqGSM49AgEGBSuB
BAAiA2IABMbLxyjR+4T1mu9CFCDhQ2tuda38KwOE1HaTJddZO0Flax7mNCq7dPYS
zuht56vkPE4/RAiLzRZxy7+SmfSk1zxQVFKQhYN4lGdnoxwJGT11NIXe7WB9xwy0
QVK5buXuQqOCAQ0wggEJMA8GA1UdEwEB/wQFMAMBAf8wHQYDVR0OBBYEFHOREKv/
VbNafAkl1bK6CKBrqx9tMA4GA1UdDwEB/wQEAwIBBjCBxgYDVR0fBIG+MIG7MD6g
PKA6hjhodHRwOi8vY3JsLmQtdHJ1c3QubmV0L2NybC9kLXRydXN0X2JyX3Jvb3Rf
Y2FfMV8yMDIwLmNybDB5oHegdYZzbGRhcDovL2RpcmVjdG9yeS5kLXRydXN0Lm5l
dC9DTj1ELVRSVVNUJTIwQlIlMjBSb290JTIwQ0ElMjAxJTIwMjAyMCxPPUQtVHJ1
c3QlMjBHbWJILEM9REU/Y2VydGlmaWNhdGVyZXZvY2F0aW9ubGlzdDAKBggqhkjO
PQQDAwNpADBmAjEAlJAtE/rhY/hhY+ithXhUkZy4kzg+GkHaQBZTQgjKL47xPoFW
wKrY7RjEsK70PvomAjEA8yjixtsrmfu3Ubgko6SUeho/5jbiA1czijDLgsfWFBHV
dWNbFJWcHwHP2NVypw87
-----END CERTIFICATE-----
