##
##  D-TRUST EV Root CA 2 2023
##
##  This is a single X.509 certificate for a public Certificate
##  Authority (CA). It was automatically extracted from Mozilla's
##  root CA list (the file `certdata.txt' in security/nss).
##
##  It contains a certificate trusted for server authentication.
##
##  Extracted from nss
##
##  @generated
##
Certificate:
    Data:
        Version: 3 (0x2)
        Serial Number:
            69:26:09:7e:80:4b:4c:a0:a7:8c:78:62:53:5f:5a:6f
        Signature Algorithm: sha512WithRSAEncryption
        Issuer: C = DE, O = D-Trust GmbH, CN = D-TRUST EV Root CA 2 2023
        Validity
            Not Before: May  9 09:10:33 2023 GMT
            Not After : May  9 09:10:32 2038 GMT
        Subject: C = DE, O = D-Trust GmbH, CN = D-TRUST EV Root CA 2 2023
        Subject Public Key Info:
            Public Key Algorithm: rsaEncryption
                Public-Key: (4096 bit)
                Modulus:
                    00:d8:8e:a3:89:80:0b:b2:57:52:dc:a9:53:4c:37:
                    b9:7f:63:17:13:ef:a7:5b:23:5b:69:75:b0:99:0a:
                    17:c1:8b:c4:db:a8:e0:cc:31:ba:c2:f2:cd:5d:e9:
                    b7:f8:1d:af:6a:c4:95:87:d7:47:c9:95:d8:82:04:
                    50:3d:81:08:ff:e4:3d:b3:b1:d6:c5:b2:fd:88:09:
                    db:9c:84:ec:25:17:14:87:7f:30:78:9b:6a:58:c9:
                    b6:73:28:3c:34:f7:99:f7:7f:d3:a6:f8:1c:45:7c:
                    ad:2c:8c:94:3f:d8:67:10:53:7e:22:cd:4e:25:51:
                    f0:25:24:35:11:5e:10:c6:ec:87:66:89:81:68:ba:
                    cc:2b:9d:47:73:1f:bd:cd:91:a4:72:6a:9c:a2:1b:
                    18:a0:6f:ec:50:f4:7d:40:c2:a8:30:cf:bd:73:c8:
                    13:2b:10:13:1e:8b:9a:a8:3a:94:73:d3:18:69:0a:
                    4a:ff:c1:01:03:ff:79:7f:b5:48:7f:7b:ee:e8:29:
                    6f:36:4c:95:61:86:d8:f9:a2:73:8a:ee:ae:2f:96:
                    ee:68:cd:3d:4d:28:42:f9:45:2b:32:1b:46:55:16:
                    6a:a6:4b:29:f9:bb:95:56:bf:46:1d:ec:1d:93:1d:
                    c0:65:b2:1f:a1:43:ae:56:9e:a0:b1:8f:6b:12:b7:
                    60:6d:78:0b:ca:8a:5c:ed:1e:96:0e:83:a6:48:95:
                    8d:3b:a3:21:c4:ae:58:c6:00:b2:84:b4:23:a4:96:
                    86:35:b8:d8:9e:d8:ac:34:49:98:63:95:c5:cb:6d:
                    48:47:e2:f2:2e:18:1e:d0:31:ab:dd:74:ec:f9:dc:
                    8c:b8:1c:8e:68:23:ba:d0:f3:50:dc:cf:65:8f:73:
                    3a:32:c7:7c:fe:ca:82:22:4f:be:8e:62:47:66:e5:
                    cd:87:e2:e8:d5:0f:18:9f:e5:04:72:4b:46:3c:10:
                    f2:44:c2:64:56:71:4e:75:e8:9c:c9:26:74:c5:7d:
                    59:d1:0a:5b:0f:6d:fe:9e:75:1c:18:c6:1a:3a:7c:
                    d8:0d:04:cc:cd:b7:45:65:7a:b1:8f:b8:ae:84:48:
                    3e:b3:7a:4d:a8:03:e2:e2:7e:01:16:59:68:18:43:
                    33:b0:d2:dc:b0:1a:43:35:ee:a5:da:a9:46:5c:ae:
                    86:81:41:01:4a:74:26:ec:9f:06:bf:c2:05:37:64:
                    75:78:29:68:fd:c5:f5:eb:fe:47:f9:e4:85:b0:e1:
                    7b:31:9d:a6:7f:72:a3:b9:c4:2c:2e:cc:99:57:0e:
                    21:0c:45:01:94:65:eb:65:09:c6:63:22:0b:33:49:
                    92:48:3c:fc:cd:ce:b0:3e:8e:9e:8b:f8:fe:49:c5:
                    35:72:47
                Exponent: 65537 (0x10001)
        X509v3 extensions:
            X509v3 Basic Constraints: critical
                CA:TRUE
            X509v3 Subject Key Identifier: 
                AA:FC:91:10:1B:87:91:5F:16:B9:BF:4F:4B:91:5E:00:1C:B1:32:80
            X509v3 Key Usage: critical
                Certificate Sign, CRL Sign
            X509v3 CRL Distribution Points: 
                Full Name:
                  URI:http://crl.d-trust.net/crl/d-trust_ev_root_ca_2_2023.crl
    Signature Algorithm: sha512WithRSAEncryption
    Signature Value:
        93:cb:a5:1f:99:11:ec:9a:0d:5f:2c:15:93:c6:3f:be:10:8d:
        78:42:f0:6e:90:47:47:8e:a3:92:32:8d:70:8f:f6:5b:8d:be:
        89:ce:47:01:6a:1b:20:20:89:5b:c8:82:10:6c:e0:e7:99:aa:
        6b:c6:2a:a0:63:35:91:6a:85:25:ad:17:38:a5:9b:7e:50:f2:
        76:ea:85:05:2a:27:41:2b:b1:81:d1:a2:f6:40:75:a9:0e:cb:
        f1:55:48:d8:ec:d1:ec:b3:e8:ce:14:a1:35:ec:c2:5e:35:1a:
        ab:a6:16:01:06:8e:ea:dc:2f:a3:8a:ca:2c:91:eb:52:8e:5f:
        0c:9b:17:cf:cb:73:07:19:c4:6a:c2:73:54:ef:7c:43:52:63:
        c1:11:ca:c2:45:b1:f4:3b:53:f5:69:ae:3c:e3:a5:de:ac:e8:
        54:b7:b2:91:fd:ac:a9:1f:f2:87:e4:17:c6:49:a8:7c:d8:0a:
        41:f4:f2:3e:e7:77:34:04:52:dd:e8:81:f2:4d:2f:54:45:9d:
        15:e1:4f:cc:e5:de:34:57:10:c9:23:72:17:70:8d:50:70:1f:
        56:6c:cc:b9:ff:3a:5a:4f:63:7a:c3:6e:65:07:1d:84:a1:ff:
        a9:0c:63:89:6d:b2:40:88:39:d7:1f:77:68:b5:fc:9c:d5:d6:
        67:69:5b:a8:74:db:fc:89:f6:1b:32:f7:a4:24:a6:76:b7:47:
        53:ef:8d:49:8f:a9:b6:83:5a:a5:96:90:45:61:f5:de:03:4f:
        26:0f:a8:8b:f0:03:96:b0:ac:15:d0:71:5a:6a:7b:94:e6:70:
        93:da:f1:69:e0:b2:62:4d:9e:8f:ff:89:9d:9b:5d:cd:45:e9:
        94:02:22:8d:e0:35:7f:e8:f1:04:79:71:6c:54:83:f8:33:b9:
        05:32:1b:58:55:11:4f:d0:e5:27:47:71:ec:ed:da:67:d6:62:
        a6:4b:4d:0f:69:a2:c9:bc:ec:22:4b:94:c7:68:94:17:7e:e2:
        8e:28:3e:b6:c6:ea:f5:34:6c:9f:37:88:07:38:db:86:71:fa:
        cd:95:48:43:6e:a3:4f:82:87:d7:34:98:6e:4b:93:79:60:75:
        69:0f:f0:1a:d5:53:fa:21:0c:c2:3f:e9:3f:1f:18:8c:92:5d:
        78:a7:76:67:19:bb:b2:ea:7f:e9:70:09:56:56:a3:b0:0c:0b:
        2d:36:5e:c5:e9:c4:d5:83:cb:86:17:97:2c:6c:13:6f:87:5a:
        af:49:a6:1d:db:cd:38:04:2e:5f:e2:4a:35:0e:2d:4b:f8:a2:
        24:04:8d:d8:e1:63:5e:02:92:34:da:98:61:5c:1c:6f:58:76:
        64:b3:fc:02:b8:f5:9d:0a
SHA1 Fingerprint=A5:5B:D8:47:6C:8F:19:F7:4C:F4:6D:6B:B6:C2:79:82:22:DF:54:8B
-----BEGIN CERTIFICATE-----
MIIFqTCCA5GgAwIBAgIQaSYJfoBLTKCnjHhiU19abzANBgkqhkiG9w0BAQ0FADBI
MQswCQYDVQQGEwJERTEVMBMGA1UEChMMRC1UcnVzdCBHbWJIMSIwIAYDVQQDExlE
LVRSVVNUIEVWIFJvb3QgQ0EgMiAyMDIzMB4XDTIzMDUwOTA5MTAzM1oXDTM4MDUw
OTA5MTAzMlowSDELMAkGA1UEBhMCREUxFTATBgNVBAoTDEQtVHJ1c3QgR21iSDEi
MCAGA1UEAxMZRC1UUlVTVCBFViBSb290IENBIDIgMjAyMzCCAiIwDQYJKoZIhvcN
AQEBBQADggIPADCCAgoCggIBANiOo4mAC7JXUtypU0w3uX9jFxPvp1sjW2l1sJkK
F8GLxNuo4MwxusLyzV3pt/gdr2rElYfXR8mV2IIEUD2BCP/kPbOx1sWy/YgJ25yE
7CUXFId/MHibaljJtnMoPDT3mfd/06b4HEV8rSyMlD/YZxBTfiLNTiVR8CUkNRFe
EMbsh2aJgWi6zCudR3Mfvc2RpHJqnKIbGKBv7FD0fUDCqDDPvXPIEysQEx6Lmqg6
lHPTGGkKSv/BAQP/eX+1SH977ugpbzZMlWGG2Pmic4ruri+W7mjNPU0oQvlFKzIb
RlUWaqZLKfm7lVa/Rh3sHZMdwGWyH6FDrlaeoLGPaxK3YG14C8qKXO0elg6DpkiV
jTujIcSuWMYAsoS0I6SWhjW42J7YrDRJmGOVxcttSEfi8i4YHtAxq9107PncjLgc
jmgjutDzUNzPZY9zOjLHfP7KgiJPvo5iR2blzYfi6NUPGJ/lBHJLRjwQ8kTCZFZx
TnXonMkmdMV9WdEKWw9t/p51HBjGGjp82A0EzM23RWV6sY+4roRIPrN6TagD4uJ+
ARZZaBhDM7DS3LAaQzXupdqpRlyuhoFBAUp0JuyfBr/CBTdkdXgpaP3F9ev+R/nk
hbDhezGdpn9yo7nELC7MmVcOIQxFAZRl62UJxmMiCzNJkkg8/M3OsD6Onov4/knF
NXJHAgMBAAGjgY4wgYswDwYDVR0TAQH/BAUwAwEB/zAdBgNVHQ4EFgQUqvyREBuH
kV8Wub9PS5FeAByxMoAwDgYDVR0PAQH/BAQDAgEGMEkGA1UdHwRCMEAwPqA8oDqG
OGh0dHA6Ly9jcmwuZC10cnVzdC5uZXQvY3JsL2QtdHJ1c3RfZXZfcm9vdF9jYV8y
XzIwMjMuY3JsMA0GCSqGSIb3DQEBDQUAA4ICAQCTy6UfmRHsmg1fLBWTxj++EI14
QvBukEdHjqOSMo1wj/Zbjb6JzkcBahsgIIlbyIIQbODnmaprxiqgYzWRaoUlrRc4
pZt+UPJ26oUFKidBK7GB0aL2QHWpDsvxVUjY7NHss+jOFKE17MJeNRqrphYBBo7q
3C+jisosketSjl8MmxfPy3MHGcRqwnNU73xDUmPBEcrCRbH0O1P1aa4846XerOhU
t7KR/aypH/KH5BfGSah82ApB9PI+53c0BFLd6IHyTS9URZ0V4U/M5d40VxDJI3IX
cI1QcB9WbMy5/zpaT2N6w25lBx2Eof+pDGOJbbJAiDnXH3dotfyc1dZnaVuodNv8
ifYbMvekJKZ2t0dT741Jj6m2g1qllpBFYfXeA08mD6iL8AOWsKwV0HFaanuU5nCT
2vFp4LJiTZ6P/4mdm13NRemUAiKN4DV/6PEEeXFsVIP4M7kFMhtYVRFP0OUnR3Hs
7dpn1mKmS00PaaLJvOwiS5THaJQXfuKOKD62xur1NGyfN4gHONuGcfrNlUhDbqNP
gofXNJhuS5N5YHVpD/Aa1VP6IQzCP+k/HxiMkl14p3ZnGbuy6n/pcAlWVqOwDAst
Nl7F6cTVg8uGF5csbBNvh1qvSaYd2804BC5f4ko1Di1L+KIkBI3Y4WNeApI02phh
XBxvWHZks/wCuPWdCg==
-----END CERTIFICATE-----
