##
##  DigiCert TLS RSA4096 Root G5
##
##  This is a single X.509 certificate for a public Certificate
##  Authority (CA). It was automatically extracted from Mozilla's
##  root CA list (the file `certdata.txt' in security/nss).
##
##  It contains a certificate trusted for server authentication.
##
##  Extracted from nss
##  with $FreeBSD$
##
##  @generated
##
Certificate:
    Data:
        Version: 3 (0x2)
        Serial Number:
            08:f9:b4:78:a8:fa:7e:da:6a:33:37:89:de:7c:cf:8a
        Signature Algorithm: sha384WithRSAEncryption
        Issuer: C = US, O = "DigiCert, Inc.", CN = DigiCert TLS RSA4096 Root G5
        Validity
            Not Before: Jan 15 00:00:00 2021 GMT
            Not After : Jan 14 23:59:59 2046 GMT
        Subject: C = US, O = "DigiCert, Inc.", CN = DigiCert TLS RSA4096 Root G5
        Subject Public Key Info:
            Public Key Algorithm: rsaEncryption
                RSA Public-Key: (4096 bit)
                Modulus:
                    00:b3:d0:f4:c9:79:11:9d:fd:fc:66:81:e7:cc:d5:
                    e4:bc:ec:81:3e:6a:35:8e:2e:b7:e7:de:af:f9:07:
                    4d:cf:30:9d:ea:09:0b:99:bd:6c:57:da:18:4a:b8:
                    78:ac:3a:39:a8:a6:48:ac:2e:72:e5:bd:eb:f1:1a:
                    cd:e7:a4:03:a9:3f:11:b4:d8:2f:89:16:fb:94:01:
                    3d:bb:2f:f8:13:05:a1:78:1c:8e:28:e0:45:e0:83:
                    f4:59:1b:95:b3:ae:7e:03:45:e5:be:c2:42:fe:ee:
                    f2:3c:b6:85:13:98:32:9d:16:a8:29:c2:0b:1c:38:
                    dc:9f:31:77:5c:bf:27:a3:fc:27:ac:b7:2b:bd:74:
                    9b:17:2d:f2:81:da:5d:b0:e1:23:17:3e:88:4a:12:
                    23:d0:ea:cf:9d:de:03:17:b1:42:4a:a0:16:4c:a4:
                    6d:93:e9:3f:3a:ee:3a:7c:9d:58:9d:f4:4e:8f:fc:
                    3b:23:c8:6d:b8:e2:05:da:cc:eb:ec:c3:31:f4:d7:
                    a7:29:54:80:cf:44:5b:4c:6f:30:9e:f3:cc:dd:1f:
                    94:43:9d:4d:7f:70:70:0d:d4:3a:d1:37:f0:6c:9d:
                    9b:c0:14:93:58:ef:cd:41:38:75:bc:13:03:95:7c:
                    7f:e3:5c:e9:d5:0d:d5:e2:7c:10:62:aa:6b:f0:3d:
                    76:f3:3f:a3:e8:b0:c1:fd:ef:aa:57:4d:ac:86:a7:
                    18:b4:29:c1:2c:0e:bf:64:be:29:8c:d8:02:2d:cd:
                    5c:2f:f2:7f:ef:15:f4:0c:15:ac:0a:b0:f1:d3:0d:
                    4f:6a:4d:77:97:01:a0:f1:66:b7:b7:ce:ef:ce:ec:
                    ec:a5:75:ca:ac:e3:e1:63:f7:b8:a1:04:c8:bc:7b:
                    3f:5d:2d:16:22:56:ed:48:49:fe:a7:2f:79:30:25:
                    9b:ba:6b:2d:3f:9d:3b:c4:17:e7:1d:2e:fb:f2:cf:
                    a6:fc:e3:14:2c:96:98:21:8c:b4:91:e9:19:60:83:
                    f2:30:2b:06:73:50:d5:98:3b:06:e9:c7:8a:0c:60:
                    8c:28:f8:52:9b:6e:e1:f6:4d:bb:06:24:9b:d7:2b:
                    26:3f:fd:2a:2f:71:f5:d6:24:be:7f:31:9e:0f:6d:
                    e8:8f:4f:4d:a3:3f:ff:35:ea:df:49:5e:41:8f:86:
                    f9:f1:77:79:4b:1b:b4:a3:5e:2f:fb:46:02:d0:66:
                    13:5e:5e:85:4f:ce:d8:70:88:7b:ce:01:b5:96:97:
                    d7:cd:7d:fd:82:f8:c2:24:c1:ca:01:39:4f:8d:a2:
                    c1:14:40:1f:9c:66:d5:0c:09:46:d6:f2:d0:d1:48:
                    76:56:3a:43:cb:b6:0a:11:39:ba:8c:13:6c:06:b5:
                    9e:cf:eb
                Exponent: 65537 (0x10001)
        X509v3 extensions:
            X509v3 Subject Key Identifier: 
                51:33:1C:ED:36:40:AF:17:D3:25:CD:69:68:F2:AF:4E:23:3E:B3:41
            X509v3 Key Usage: critical
                Digital Signature, Certificate Sign, CRL Sign
            X509v3 Basic Constraints: critical
                CA:TRUE
    Signature Algorithm: sha384WithRSAEncryption
         60:a6:af:5b:5f:57:da:89:db:4b:50:a9:c4:23:35:21:ff:d0:
         61:30:84:91:b7:3f:10:cf:25:8e:c9:bf:46:34:d9:c1:21:26:
         1c:70:19:72:1e:a3:c9:87:fe:a9:43:64:96:3a:c8:53:04:0a:
         b6:41:bb:c4:47:00:d9:9f:18:18:3b:b2:0e:f3:34:ea:24:f7:
         dd:af:20:60:ae:92:28:5f:36:e7:5d:e4:de:c7:3c:db:50:39:
         ad:bb:3d:28:4d:96:7c:76:c6:5b:f4:c1:db:14:a5:ab:19:62:
         07:18:40:5f:97:91:dc:9c:c7:ab:b5:51:0d:e6:69:53:55:cc:
         39:7d:da:c5:11:55:72:c5:3b:8b:89:f8:34:2d:a4:17:e5:17:
         e6:99:7d:30:88:21:37:cd:30:17:3d:b8:f2:bc:a8:75:a0:43:
         dc:3e:89:4b:90:ae:6d:03:e0:1c:a3:a0:96:09:bb:7d:a3:b7:
         2a:10:44:4b:46:07:34:63:ed:31:b9:04:ee:a3:9b:9a:ae:e6:
         31:78:f4:ea:24:61:3b:ab:58:64:ff:bb:87:27:62:25:81:df:
         dc:a1:2f:f6:ed:a7:ff:7a:8f:51:2e:30:f8:a4:01:d2:85:39:
         5f:01:99:96:6f:5a:5b:70:19:46:fe:86:60:3e:ad:80:10:09:
         dd:39:25:2f:58:7f:bb:d2:74:f0:f7:46:1f:46:39:4a:d8:53:
         d0:f3:2e:3b:71:a5:d4:6f:fc:f3:67:e4:07:8f:dd:26:19:e1:
         8d:5b:fa:a3:93:11:9b:e9:c8:3a:c3:55:68:9a:92:e1:52:76:
         38:e8:e1:ba:bd:fb:4f:d5:ef:b3:e7:48:83:31:f0:82:21:e3:
         b6:be:a7:ab:6f:ef:9f:df:4c:cf:01:b8:62:6a:23:3d:e7:09:
         4d:80:1b:7b:30:a4:c3:dd:07:7f:34:be:a4:26:b2:f6:41:e8:
         09:1d:e3:20:98:aa:37:4f:ff:f7:f1:e2:29:70:31:47:3f:74:
         d0:14:16:fa:21:8a:02:d5:8a:09:94:77:2e:f2:59:28:8b:7c:
         50:92:0a:66:78:38:83:75:c4:b5:5a:a8:11:c6:e5:c1:9d:66:
         55:cf:53:c4:af:d7:75:85:a9:42:13:56:ec:21:77:81:93:5a:
         0c:ea:96:d9:49:ca:a1:08:f2:97:3b:6d:9b:04:18:24:44:8e:
         7c:01:f2:dc:25:d8:5e:86:9a:b1:39:db:f5:91:32:6a:d1:a6:
         70:8a:a2:f7:de:a4:45:85:26:a8:1e:8c:5d:29:5b:c8:4b:d8:
         9a:6a:03:5e:70:f2:85:4f:6c:4b:68:2f:ca:54:f6:8c:da:32:
         fe:c3:6b:83:3f:38:c6:7e
SHA1 Fingerprint=A7:88:49:DC:5D:7C:75:8C:8C:DE:39:98:56:B3:AA:D0:B2:A5:71:35
-----BEGIN CERTIFICATE-----
MIIFZjCCA06gAwIBAgIQCPm0eKj6ftpqMzeJ3nzPijANBgkqhkiG9w0BAQwFADBN
MQswCQYDVQQGEwJVUzEXMBUGA1UEChMORGlnaUNlcnQsIEluYy4xJTAjBgNVBAMT
HERpZ2lDZXJ0IFRMUyBSU0E0MDk2IFJvb3QgRzUwHhcNMjEwMTE1MDAwMDAwWhcN
NDYwMTE0MjM1OTU5WjBNMQswCQYDVQQGEwJVUzEXMBUGA1UEChMORGlnaUNlcnQs
IEluYy4xJTAjBgNVBAMTHERpZ2lDZXJ0IFRMUyBSU0E0MDk2IFJvb3QgRzUwggIi
MA0GCSqGSIb3DQEBAQUAA4ICDwAwggIKAoICAQCz0PTJeRGd/fxmgefM1eS87IE+
ajWOLrfn3q/5B03PMJ3qCQuZvWxX2hhKuHisOjmopkisLnLlvevxGs3npAOpPxG0
2C+JFvuUAT27L/gTBaF4HI4o4EXgg/RZG5Wzrn4DReW+wkL+7vI8toUTmDKdFqgp
wgscONyfMXdcvyej/Cestyu9dJsXLfKB2l2w4SMXPohKEiPQ6s+d3gMXsUJKoBZM
pG2T6T867jp8nVid9E6P/DsjyG244gXazOvswzH016cpVIDPRFtMbzCe88zdH5RD
nU1/cHAN1DrRN/BsnZvAFJNY781BOHW8EwOVfH/jXOnVDdXifBBiqmvwPXbzP6Po
sMH976pXTayGpxi0KcEsDr9kvimM2AItzVwv8n/vFfQMFawKsPHTDU9qTXeXAaDx
Zre3zu/O7Oyldcqs4+Fj97ihBMi8ez9dLRYiVu1ISf6nL3kwJZu6ay0/nTvEF+cd
Lvvyz6b84xQslpghjLSR6Rlgg/IwKwZzUNWYOwbpx4oMYIwo+FKbbuH2TbsGJJvX
KyY//SovcfXWJL5/MZ4PbeiPT02jP/816t9JXkGPhvnxd3lLG7SjXi/7RgLQZhNe
XoVPzthwiHvOAbWWl9fNff2C+MIkwcoBOU+NosEUQB+cZtUMCUbW8tDRSHZWOkPL
tgoRObqME2wGtZ7P6wIDAQABo0IwQDAdBgNVHQ4EFgQUUTMc7TZArxfTJc1paPKv
TiM+s0EwDgYDVR0PAQH/BAQDAgGGMA8GA1UdEwEB/wQFMAMBAf8wDQYJKoZIhvcN
AQEMBQADggIBAGCmr1tfV9qJ20tQqcQjNSH/0GEwhJG3PxDPJY7Jv0Y02cEhJhxw
GXIeo8mH/qlDZJY6yFMECrZBu8RHANmfGBg7sg7zNOok992vIGCukihfNudd5N7H
PNtQOa27PShNlnx2xlv0wdsUpasZYgcYQF+Xkdycx6u1UQ3maVNVzDl92sURVXLF
O4uJ+DQtpBflF+aZfTCIITfNMBc9uPK8qHWgQ9w+iUuQrm0D4ByjoJYJu32jtyoQ
REtGBzRj7TG5BO6jm5qu5jF49OokYTurWGT/u4cnYiWB39yhL/btp/96j1EuMPik
AdKFOV8BmZZvWltwGUb+hmA+rYAQCd05JS9Yf7vSdPD3Rh9GOUrYU9DzLjtxpdRv
/PNn5AeP3SYZ4Y1b+qOTEZvpyDrDVWiakuFSdjjo4bq9+0/V77PnSIMx8IIh47a+
p6tv75/fTM8BuGJqIz3nCU2AG3swpMPdB380vqQmsvZB6Akd4yCYqjdP//fx4ilw
MUc/dNAUFvohigLVigmUdy7yWSiLfFCSCmZ4OIN1xLVaqBHG5cGdZlXPU8Sv13WF
qUITVuwhd4GTWgzqltlJyqEI8pc7bZsEGCREjnwB8twl2F6GmrE52/WRMmrRpnCK
ovfepEWFJqgejF0pW8hL2JpqA15w8oVPbEtoL8pU9ozaMv7Da4M/OMZ+
-----END CERTIFICATE-----
