##
##  DigiCert TLS ECC P384 Root G5
##
##  This is a single X.509 certificate for a public Certificate
##  Authority (CA). It was automatically extracted from Mozilla's
##  root CA list (the file `certdata.txt' in security/nss).
##
##  It contains a certificate trusted for server authentication.
##
##  Extracted from nss
##  with $FreeBSD$
##
##  @generated
##
Certificate:
    Data:
        Version: 3 (0x2)
        Serial Number:
            09:e0:93:65:ac:f7:d9:c8:b9:3e:1c:0b:04:2a:2e:f3
        Signature Algorithm: ecdsa-with-SHA384
        Issuer: C = US, O = "DigiCert, Inc.", CN = DigiCert TLS ECC P384 Root G5
        Validity
            Not Before: Jan 15 00:00:00 2021 GMT
            Not After : Jan 14 23:59:59 2046 GMT
        Subject: C = US, O = "DigiCert, Inc.", CN = DigiCert TLS ECC P384 Root G5
        Subject Public Key Info:
            Public Key Algorithm: id-ecPublicKey
                Public-Key: (384 bit)
                pub:
                    04:c1:44:a1:cf:11:97:50:9a:de:23:82:35:07:cd:
                    d0:cb:18:9d:d2:f1:7f:77:35:4f:3b:dd:94:72:52:
                    ed:c2:3b:f8:ec:fa:7b:6b:58:20:ec:99:ae:c9:fc:
                    68:b3:75:b9:db:09:ec:c8:13:f5:4e:c6:0a:1d:66:
                    30:4c:bb:1f:47:0a:3c:61:10:42:29:7c:a5:08:0e:
                    e0:22:e9:d3:35:68:ce:9b:63:9f:84:b5:99:4d:58:
                    a0:8e:f5:54:e7:95:c9
                ASN1 OID: secp384r1
                NIST CURVE: P-384
        X509v3 extensions:
            X509v3 Subject Key Identifier: 
                C1:51:45:50:59:AB:3E:E7:2C:5A:FA:20:22:12:07:80:88:7C:11:6A
            X509v3 Key Usage: critical
                Digital Signature, Certificate Sign, CRL Sign
            X509v3 Basic Constraints: critical
                CA:TRUE
    Signature Algorithm: ecdsa-with-SHA384
         30:65:02:31:00:89:6a:8d:47:e7:ec:fc:6e:55:03:d9:67:6c:
         26:4e:83:c6:fd:c9:fb:2b:13:bc:b7:7a:8c:b4:65:d2:69:69:
         63:13:63:3b:26:50:2e:01:a1:79:06:91:9d:48:bf:c2:be:02:
         30:47:c3:15:7b:b1:a0:91:99:49:93:a8:3c:7c:e8:46:06:8b:
         2c:f2:31:00:94:9d:62:c8:89:bd:19:84:14:e9:a5:fb:01:b8:
         0d:76:43:8c:2e:53:cb:7c:df:0c:17:96:50
SHA1 Fingerprint=17:F3:DE:5E:9F:0F:19:E9:8E:F6:1F:32:26:6E:20:C4:07:AE:30:EE
-----BEGIN CERTIFICATE-----
MIICGTCCAZ+gAwIBAgIQCeCTZaz32ci5PhwLBCou8zAKBggqhkjOPQQDAzBOMQsw
CQYDVQQGEwJVUzEXMBUGA1UEChMORGlnaUNlcnQsIEluYy4xJjAkBgNVBAMTHURp
Z2lDZXJ0IFRMUyBFQ0MgUDM4NCBSb290IEc1MB4XDTIxMDExNTAwMDAwMFoXDTQ2
MDExNDIzNTk1OVowTjELMAkGA1UEBhMCVVMxFzAVBgNVBAoTDkRpZ2lDZXJ0LCBJ
bmMuMSYwJAYDVQQDEx1EaWdpQ2VydCBUTFMgRUNDIFAzODQgUm9vdCBHNTB2MBAG
ByqGSM49AgEGBSuBBAAiA2IABMFEoc8Rl1Ca3iOCNQfN0MsYndLxf3c1TzvdlHJS
7cI7+Oz6e2tYIOyZrsn8aLN1udsJ7MgT9U7GCh1mMEy7H0cKPGEQQil8pQgO4CLp
0zVozptjn4S1mU1YoI71VOeVyaNCMEAwHQYDVR0OBBYEFMFRRVBZqz7nLFr6ICIS
B4CIfBFqMA4GA1UdDwEB/wQEAwIBhjAPBgNVHRMBAf8EBTADAQH/MAoGCCqGSM49
BAMDA2gAMGUCMQCJao1H5+z8blUD2WdsJk6Dxv3J+ysTvLd6jLRl0mlpYxNjOyZQ
LgGheQaRnUi/wr4CMEfDFXuxoJGZSZOoPHzoRgaLLPIxAJSdYsiJvRmEFOml+wG4
DXZDjC5Ty3zfDBeWUA==
-----END CERTIFICATE-----
