##
##  e-Szigno TLS Root CA 2023
##
##  This is a single X.509 certificate for a public Certificate
##  Authority (CA). It was automatically extracted from Mozilla's
##  root CA list (the file `certdata.txt' in security/nss)
##  licensed under the MPL 2.0, http://mozilla.org/MPL/2.0/.
##
##  @generated
##
Certificate:
    Data:
        Version: 3 (0x2)
        Serial Number:
            e8:6f:18:7b:d6:39:6b:98:4a:49:98:0a
        Signature Algorithm: ecdsa-with-SHA512
        Issuer: C=HU, L=Budapest, O=Microsec Ltd., organizationIdentifier=VATHU-23584497, CN=e-Szigno TLS Root CA 2023
        Validity
            Not Before: Jul 17 14:00:00 2023 GMT
            Not After : Jul 17 14:00:00 2038 GMT
        Subject: C=HU, L=Budapest, O=Microsec Ltd., organizationIdentifier=VATHU-23584497, CN=e-Szigno TLS Root CA 2023
        Subject Public Key Info:
            Public Key Algorithm: id-ecPublicKey
                Public-Key: (521 bit)
                pub:
                    04:00:68:0f:df:a2:7c:3c:aa:74:88:61:0a:8d:c2:
                    4c:a5:01:22:14:d4:f7:60:77:42:9c:0a:38:60:a1:
                    8c:67:3e:b3:63:e9:fa:91:b0:8b:4b:e6:39:df:02:
                    c2:30:01:52:00:bf:df:8c:ed:59:ad:32:65:ab:09:
                    59:50:b5:19:c2:68:1c:00:e0:05:5f:da:50:26:1c:
                    c3:ac:04:22:c5:3a:4d:ef:e9:57:58:36:a3:c1:19:
                    53:10:0a:d1:cd:3f:ef:4b:35:1a:43:8f:42:13:4c:
                    b9:2c:1a:9c:be:30:b6:c4:de:dc:4b:9d:e4:a4:3c:
                    cb:2e:d9:ad:df:df:7d:09:df:2e:92:ff:a1
                ASN1 OID: secp521r1
                NIST CURVE: P-521
        X509v3 extensions:
            X509v3 Basic Constraints: critical
                CA:TRUE
            X509v3 Key Usage: critical
                Certificate Sign, CRL Sign
            X509v3 Subject Key Identifier: 
                59:84:02:62:5A:46:78:F5:5D:DC:8F:0A:10:28:23:DC:D5:D6:FB:45
            X509v3 Authority Key Identifier: 
                59:84:02:62:5A:46:78:F5:5D:DC:8F:0A:10:28:23:DC:D5:D6:FB:45
    Signature Algorithm: ecdsa-with-SHA512
    Signature Value:
        30:81:87:02:42:01:2d:da:ae:f5:2e:78:b6:66:b8:9f:b6:70:
        7f:66:74:cf:ec:8e:7c:fe:c0:01:79:9a:ce:52:02:e7:c3:d1:
        0c:7a:6d:cb:b5:5e:ee:17:a4:9b:db:04:76:ee:29:29:e8:af:
        fb:ad:ac:52:f4:d7:2b:d6:77:84:10:bd:c5:d2:28:68:34:02:
        41:35:76:5a:75:f3:92:86:08:f5:b2:1e:0a:f6:65:0b:da:76:
        c7:52:ff:0b:1e:80:70:22:30:c3:33:db:18:ed:84:d7:8b:ec:
        ed:d3:a8:63:81:b5:56:7c:47:c7:56:30:94:68:73:6b:d2:2e:
        a9:b9:d9:2c:1c:29:bd:0c:ba:b9:65:8b
SHA1 Fingerprint=6F:9A:D5:D5:DF:E8:2C:EB:BE:37:07:EE:4F:4F:52:58:29:41:D1:FE
-----BEGIN CERTIFICATE-----
MIICzzCCAjGgAwIBAgINAOhvGHvWOWuYSkmYCjAKBggqhkjOPQQDBDB1MQswCQYD
VQQGEwJIVTERMA8GA1UEBwwIQnVkYXBlc3QxFjAUBgNVBAoMDU1pY3Jvc2VjIEx0
ZC4xFzAVBgNVBGEMDlZBVEhVLTIzNTg0NDk3MSIwIAYDVQQDDBllLVN6aWdubyBU
TFMgUm9vdCBDQSAyMDIzMB4XDTIzMDcxNzE0MDAwMFoXDTM4MDcxNzE0MDAwMFow
dTELMAkGA1UEBhMCSFUxETAPBgNVBAcMCEJ1ZGFwZXN0MRYwFAYDVQQKDA1NaWNy
b3NlYyBMdGQuMRcwFQYDVQRhDA5WQVRIVS0yMzU4NDQ5NzEiMCAGA1UEAwwZZS1T
emlnbm8gVExTIFJvb3QgQ0EgMjAyMzCBmzAQBgcqhkjOPQIBBgUrgQQAIwOBhgAE
AGgP36J8PKp0iGEKjcJMpQEiFNT3YHdCnAo4YKGMZz6zY+n6kbCLS+Y53wLCMAFS
AL/fjO1ZrTJlqwlZULUZwmgcAOAFX9pQJhzDrAQixTpN7+lXWDajwRlTEArRzT/v
SzUaQ49CE0y5LBqcvjC2xN7cS53kpDzLLtmt3999Cd8ukv+ho2MwYTAPBgNVHRMB
Af8EBTADAQH/MA4GA1UdDwEB/wQEAwIBBjAdBgNVHQ4EFgQUWYQCYlpGePVd3I8K
ECgj3NXW+0UwHwYDVR0jBBgwFoAUWYQCYlpGePVd3I8KECgj3NXW+0UwCgYIKoZI
zj0EAwQDgYsAMIGHAkIBLdqu9S54tma4n7Zwf2Z0z+yOfP7AAXmazlIC58PRDHpt
y7Ve7hekm9sEdu4pKeiv+62sUvTXK9Z3hBC9xdIoaDQCQTV2WnXzkoYI9bIeCvZl
C9p2x1L/Cx6AcCIwwzPbGO2E14vs7dOoY4G1VnxHx1YwlGhza9IuqbnZLBwpvQy6
uWWL
-----END CERTIFICATE-----
