##
##  FIRMAPROFESIONAL CA ROOT-A WEB
##
##  This is a single X.509 certificate for a public Certificate
##  Authority (CA). It was automatically extracted from Mozilla's
##  root CA list (the file `certdata.txt' in security/nss).
##
##  It contains a certificate trusted for server authentication.
##
##  Extracted from nss
##
##  @generated
##
Certificate:
    Data:
        Version: 3 (0x2)
        Serial Number:
            31:97:21:ed:af:89:42:7f:35:41:87:a1:67:56:4c:6d
        Signature Algorithm: ecdsa-with-SHA384
        Issuer: C = ES, O = Firmaprofesional SA, organizationIdentifier = VATES-A62634068, CN = FIRMAPROFESIONAL CA ROOT-A WEB
        Validity
            Not Before: Apr  6 09:01:36 2022 GMT
            Not After : Mar 31 09:01:36 2047 GMT
        Subject: C = ES, O = Firmaprofesional SA, organizationIdentifier = VATES-A62634068, CN = FIRMAPROFESIONAL CA ROOT-A WEB
        Subject Public Key Info:
            Public Key Algorithm: id-ecPublicKey
                Public-Key: (384 bit)
                pub:
                    04:47:53:ea:2c:11:a4:77:c7:2a:ea:f3:d6:5f:7b:
                    d3:04:91:5c:fa:88:c6:22:b9:83:10:62:77:84:33:
                    2d:e9:03:88:d4:e0:33:f7:ed:77:2c:4a:60:ea:e4:
                    6f:ad:6d:b4:f8:4c:8a:a4:e4:1f:ca:ea:4f:38:4a:
                    2e:82:73:2b:c7:66:9b:0a:8c:40:9c:7c:8a:f6:f2:
                    39:60:b2:de:cb:ec:b8:e4:6f:ea:9b:5d:b7:53:90:
                    18:32:55:c5:20:b7:94
                ASN1 OID: secp384r1
                NIST CURVE: P-384
        X509v3 extensions:
            X509v3 Basic Constraints: critical
                CA:TRUE
            X509v3 Authority Key Identifier: 
                93:E1:43:63:5C:3C:9D:D6:27:F3:52:EC:17:B2:A9:AF:2C:F7:76:F8
            X509v3 Subject Key Identifier: 
                93:E1:43:63:5C:3C:9D:D6:27:F3:52:EC:17:B2:A9:AF:2C:F7:76:F8
            X509v3 Key Usage: critical
                Certificate Sign, CRL Sign
    Signature Algorithm: ecdsa-with-SHA384
    Signature Value:
        30:65:02:30:1d:7c:a4:7b:c3:89:75:33:e1:3b:a9:45:bf:46:
        e9:e9:a1:dd:c9:22:16:b7:47:11:0b:d8:9a:ba:f1:c8:0b:70:
        50:53:02:91:70:85:59:a9:1e:a4:e6:ea:23:31:a0:00:02:31:
        00:fd:e2:f8:b3:af:16:b9:1e:73:c4:96:e3:c1:30:19:d8:7e:
        e6:c3:97:de:1c:4f:b8:89:2f:33:eb:48:0f:19:f7:87:46:5d:
        26:90:a5:85:c5:b9:7a:94:3e:87:a8:bd:00
SHA1 Fingerprint=A8:31:11:74:A6:14:15:0D:CA:77:DD:0E:E4:0C:5D:58:FC:A0:72:A5
-----BEGIN CERTIFICATE-----
MIICejCCAgCgAwIBAgIQMZch7a+JQn81QYehZ1ZMbTAKBggqhkjOPQQDAzBuMQsw
CQYDVQQGEwJFUzEcMBoGA1UECgwTRmlybWFwcm9mZXNpb25hbCBTQTEYMBYGA1UE
YQwPVkFURVMtQTYyNjM0MDY4MScwJQYDVQQDDB5GSVJNQVBST0ZFU0lPTkFMIENB
IFJPT1QtQSBXRUIwHhcNMjIwNDA2MDkwMTM2WhcNNDcwMzMxMDkwMTM2WjBuMQsw
CQYDVQQGEwJFUzEcMBoGA1UECgwTRmlybWFwcm9mZXNpb25hbCBTQTEYMBYGA1UE
YQwPVkFURVMtQTYyNjM0MDY4MScwJQYDVQQDDB5GSVJNQVBST0ZFU0lPTkFMIENB
IFJPT1QtQSBXRUIwdjAQBgcqhkjOPQIBBgUrgQQAIgNiAARHU+osEaR3xyrq89Zf
e9MEkVz6iMYiuYMQYneEMy3pA4jU4DP37XcsSmDq5G+tbbT4TIqk5B/K6k84Si6C
cyvHZpsKjECcfIr28jlgst7L7Ljkb+qbXbdTkBgyVcUgt5SjYzBhMA8GA1UdEwEB
/wQFMAMBAf8wHwYDVR0jBBgwFoAUk+FDY1w8ndYn81LsF7Kpryz3dvgwHQYDVR0O
BBYEFJPhQ2NcPJ3WJ/NS7Beyqa8s93b4MA4GA1UdDwEB/wQEAwIBBjAKBggqhkjO
PQQDAwNoADBlAjAdfKR7w4l1M+E7qUW/Runpod3JIha3RxEL2Jq68cgLcFBTApFw
hVmpHqTm6iMxoAACMQD94vizrxa5HnPEluPBMBnYfubDl94cT7iJLzPrSA8Z94dG
XSaQpYXFuXqUPoeovQA=
-----END CERTIFICATE-----
