##
##  GlobalSign ECC Root CA - R4
##
##  This is a single X.509 certificate for a public Certificate
##  Authority (CA). It was automatically extracted from Mozilla's
##  root CA list (the file `certdata.txt' in security/nss).
##
##  It contains a certificate trusted for server authentication.
##
##  Extracted from nss
##  with $FreeBSD$
##
##  @generated
##
Certificate:
    Data:
        Version: 3 (0x2)
        Serial Number:
            02:03:e5:7e:f5:3f:93:fd:a5:09:21:b2:a6
        Signature Algorithm: ecdsa-with-SHA256
        Issuer: OU = GlobalSign ECC Root CA - R4, O = GlobalSign, CN = GlobalSign
        Validity
            Not Before: Nov 13 00:00:00 2012 GMT
            Not After : Jan 19 03:14:07 2038 GMT
        Subject: OU = GlobalSign ECC Root CA - R4, O = GlobalSign, CN = GlobalSign
        Subject Public Key Info:
            Public Key Algorithm: id-ecPublicKey
                Public-Key: (256 bit)
                pub:
                    04:b8:c6:79:d3:8f:6c:25:0e:9f:2e:39:19:1c:03:
                    a4:ae:9a:e5:39:07:09:16:ca:63:b1:b9:86:f8:8a:
                    57:c1:57:ce:42:fa:73:a1:f7:65:42:ff:1e:c1:00:
                    b2:6e:73:0e:ff:c7:21:e5:18:a4:aa:d9:71:3f:a8:
                    d4:b9:ce:8c:1d
                ASN1 OID: prime256v1
                NIST CURVE: P-256
        X509v3 extensions:
            X509v3 Key Usage: critical
                Digital Signature, Certificate Sign, CRL Sign
            X509v3 Basic Constraints: critical
                CA:TRUE
            X509v3 Subject Key Identifier: 
                54:B0:7B:AD:45:B8:E2:40:7F:FB:0A:6E:FB:BE:33:C9:3C:A3:84:D5
    Signature Algorithm: ecdsa-with-SHA256
         30:44:02:20:22:4f:74:72:b9:60:af:f1:e6:9c:a0:16:05:50:
         5f:c3:5e:3b:6e:61:74:ef:be:01:c4:be:18:48:59:61:82:32:
         02:20:26:9d:54:63:40:de:37:60:50:cf:c8:d8:ed:9d:82:ae:
         37:98:bc:a3:8f:4c:4c:a9:34:2b:6c:ef:fb:95:9b:26
SHA1 Fingerprint=6B:A0:B0:98:E1:71:EF:5A:AD:FE:48:15:80:77:10:F4:BD:6F:0B:28
-----BEGIN CERTIFICATE-----
MIIB3DCCAYOgAwIBAgINAgPlfvU/k/2lCSGypjAKBggqhkjOPQQDAjBQMSQwIgYD
VQQLExtHbG9iYWxTaWduIEVDQyBSb290IENBIC0gUjQxEzARBgNVBAoTCkdsb2Jh
bFNpZ24xEzARBgNVBAMTCkdsb2JhbFNpZ24wHhcNMTIxMTEzMDAwMDAwWhcNMzgw
MTE5MDMxNDA3WjBQMSQwIgYDVQQLExtHbG9iYWxTaWduIEVDQyBSb290IENBIC0g
UjQxEzARBgNVBAoTCkdsb2JhbFNpZ24xEzARBgNVBAMTCkdsb2JhbFNpZ24wWTAT
BgcqhkjOPQIBBggqhkjOPQMBBwNCAAS4xnnTj2wlDp8uORkcA6SumuU5BwkWymOx
uYb4ilfBV85C+nOh92VC/x7BALJucw7/xyHlGKSq2XE/qNS5zowdo0IwQDAOBgNV
HQ8BAf8EBAMCAYYwDwYDVR0TAQH/BAUwAwEB/zAdBgNVHQ4EFgQUVLB7rUW44kB/
+wpu+74zyTyjhNUwCgYIKoZIzj0EAwIDRwAwRAIgIk90crlgr/HmnKAWBVBfw147
bmF0774BxL4YSFlhgjICICadVGNA3jdgUM/I2O2dgq43mLyjj0xMqTQrbO/7lZsm
-----END CERTIFICATE-----
