##
##  GlobalSign Root E46
##
##  This is a single X.509 certificate for a public Certificate
##  Authority (CA). It was automatically extracted from Mozilla's
##  root CA list (the file `certdata.txt' in security/nss).
##
##  It contains a certificate trusted for server authentication.
##
##  Extracted from nss
##
##  @generated
##
Certificate:
    Data:
        Version: 3 (0x2)
        Serial Number:
            11:d2:bb:ba:33:6e:d4:bc:e6:24:68:c5:0d:84:1d:98:e8:43
        Signature Algorithm: ecdsa-with-SHA384
        Issuer: C = BE, O = GlobalSign nv-sa, CN = GlobalSign Root E46
        Validity
            Not Before: Mar 20 00:00:00 2019 GMT
            Not After : Mar 20 00:00:00 2046 GMT
        Subject: C = BE, O = GlobalSign nv-sa, CN = GlobalSign Root E46
        Subject Public Key Info:
            Public Key Algorithm: id-ecPublicKey
                Public-Key: (384 bit)
                pub:
                    04:9c:0e:b1:cf:b7:e8:9e:52:77:75:34:fa:a5:46:
                    a7:ad:32:19:32:b4:07:a9:27:ca:94:bb:0c:d2:0a:
                    10:c7:da:89:b0:97:0c:70:13:09:01:8e:d8:ea:47:
                    ea:be:b2:80:2b:cd:fc:28:0d:db:ac:bc:a4:86:37:
                    ed:70:08:00:75:ea:93:0b:7b:2e:52:9c:23:68:23:
                    06:43:ec:92:2f:53:84:db:fb:47:14:07:e8:5f:94:
                    67:5d:c9:7a:81:3c:20
                ASN1 OID: secp384r1
                NIST CURVE: P-384
        X509v3 extensions:
            X509v3 Key Usage: critical
                Digital Signature, Certificate Sign, CRL Sign
            X509v3 Basic Constraints: critical
                CA:TRUE
            X509v3 Subject Key Identifier: 
                31:0A:90:8F:B6:C6:9D:D2:44:4B:80:B5:A2:E6:1F:B1:12:4F:1B:95
    Signature Algorithm: ecdsa-with-SHA384
    Signature Value:
        30:65:02:31:00:df:54:90:ed:9b:ef:8b:94:02:93:17:82:99:
        be:b3:9e:2c:f6:0b:91:8c:9f:4a:14:b1:f6:64:bc:bb:68:51:
        13:0c:03:f7:15:8b:84:60:b9:8b:ff:52:8e:e7:8c:bc:1c:02:
        30:3c:f9:11:d4:8c:4e:c0:c1:61:c2:15:4c:aa:ab:1d:0b:31:
        5f:3b:1c:e2:00:97:44:31:e6:fe:73:96:2f:da:96:d3:fe:08:
        07:b3:34:89:bc:05:9f:f7:1e:86:ee:8b:70
SHA1 Fingerprint=39:B4:6C:D5:FE:80:06:EB:E2:2F:4A:BB:08:33:A0:AF:DB:B9:DD:84
-----BEGIN CERTIFICATE-----
MIICCzCCAZGgAwIBAgISEdK7ujNu1LzmJGjFDYQdmOhDMAoGCCqGSM49BAMDMEYx
CzAJBgNVBAYTAkJFMRkwFwYDVQQKExBHbG9iYWxTaWduIG52LXNhMRwwGgYDVQQD
ExNHbG9iYWxTaWduIFJvb3QgRTQ2MB4XDTE5MDMyMDAwMDAwMFoXDTQ2MDMyMDAw
MDAwMFowRjELMAkGA1UEBhMCQkUxGTAXBgNVBAoTEEdsb2JhbFNpZ24gbnYtc2Ex
HDAaBgNVBAMTE0dsb2JhbFNpZ24gUm9vdCBFNDYwdjAQBgcqhkjOPQIBBgUrgQQA
IgNiAAScDrHPt+ieUnd1NPqlRqetMhkytAepJ8qUuwzSChDH2omwlwxwEwkBjtjq
R+q+soArzfwoDdusvKSGN+1wCAB16pMLey5SnCNoIwZD7JIvU4Tb+0cUB+hflGdd
yXqBPCCjQjBAMA4GA1UdDwEB/wQEAwIBhjAPBgNVHRMBAf8EBTADAQH/MB0GA1Ud
DgQWBBQxCpCPtsad0kRLgLWi5h+xEk8blTAKBggqhkjOPQQDAwNoADBlAjEA31SQ
7Zvvi5QCkxeCmb6zniz2C5GMn0oUsfZkvLtoURMMA/cVi4RguYv/Uo7njLwcAjA8
+RHUjE7AwWHCFUyqqx0LMV87HOIAl0Qx5v5zli/altP+CAezNIm8BZ/3Hobui3A=
-----END CERTIFICATE-----
