##
##  GTS Root R4
##
##  This is a single X.509 certificate for a public Certificate
##  Authority (CA). It was automatically extracted from Mozilla's
##  root CA list (the file `certdata.txt' in security/nss).
##
##  It contains a certificate trusted for server authentication.
##
##  Extracted from nss
##  with $FreeBSD$
##
##  @generated
##
Certificate:
    Data:
        Version: 3 (0x2)
        Serial Number:
            02:03:e5:c0:68:ef:63:1a:9c:72:90:50:52
        Signature Algorithm: ecdsa-with-SHA384
        Issuer: C = US, O = Google Trust Services LLC, CN = GTS Root R4
        Validity
            Not Before: Jun 22 00:00:00 2016 GMT
            Not After : Jun 22 00:00:00 2036 GMT
        Subject: C = US, O = Google Trust Services LLC, CN = GTS Root R4
        Subject Public Key Info:
            Public Key Algorithm: id-ecPublicKey
                Public-Key: (384 bit)
                pub:
                    04:f3:74:73:a7:68:8b:60:ae:43:b8:35:c5:81:30:
                    7b:4b:49:9d:fb:c1:61:ce:e6:de:46:bd:6b:d5:61:
                    18:35:ae:40:dd:73:f7:89:91:30:5a:eb:3c:ee:85:
                    7c:a2:40:76:3b:a9:c6:b8:47:d8:2a:e7:92:91:6a:
                    73:e9:b1:72:39:9f:29:9f:a2:98:d3:5f:5e:58:86:
                    65:0f:a1:84:65:06:d1:dc:8b:c9:c7:73:c8:8c:6a:
                    2f:e5:c4:ab:d1:1d:8a
                ASN1 OID: secp384r1
                NIST CURVE: P-384
        X509v3 extensions:
            X509v3 Key Usage: critical
                Digital Signature, Certificate Sign, CRL Sign
            X509v3 Basic Constraints: critical
                CA:TRUE
            X509v3 Subject Key Identifier: 
                80:4C:D6:EB:74:FF:49:36:A3:D5:D8:FC:B5:3E:C5:6A:F0:94:1D:8C
    Signature Algorithm: ecdsa-with-SHA384
         30:66:02:31:00:e8:40:ff:83:de:03:f4:9f:ae:1d:7a:a7:2e:
         b9:af:4f:f6:83:1d:0e:2d:85:01:1d:d1:d9:6a:ec:0f:c2:af:
         c7:5e:56:5e:5c:d5:1c:58:22:28:0b:f7:30:b6:2f:b1:7c:02:
         31:00:f0:61:3c:a7:f4:a0:82:e3:21:d5:84:1d:73:86:9c:2d:
         af:ca:34:9b:f1:9f:b9:23:36:e2:bc:60:03:9d:80:b3:9a:56:
         c8:e1:e2:bb:14:79:ca:cd:21:d4:94:b5:49:43
SHA1 Fingerprint=77:D3:03:67:B5:E0:0C:15:F6:0C:38:61:DF:7C:E1:3B:92:46:4D:47
-----BEGIN CERTIFICATE-----
MIICCTCCAY6gAwIBAgINAgPlwGjvYxqccpBQUjAKBggqhkjOPQQDAzBHMQswCQYD
VQQGEwJVUzEiMCAGA1UEChMZR29vZ2xlIFRydXN0IFNlcnZpY2VzIExMQzEUMBIG
A1UEAxMLR1RTIFJvb3QgUjQwHhcNMTYwNjIyMDAwMDAwWhcNMzYwNjIyMDAwMDAw
WjBHMQswCQYDVQQGEwJVUzEiMCAGA1UEChMZR29vZ2xlIFRydXN0IFNlcnZpY2Vz
IExMQzEUMBIGA1UEAxMLR1RTIFJvb3QgUjQwdjAQBgcqhkjOPQIBBgUrgQQAIgNi
AATzdHOnaItgrkO4NcWBMHtLSZ37wWHO5t5GvWvVYRg1rkDdc/eJkTBa6zzuhXyi
QHY7qca4R9gq55KRanPpsXI5nymfopjTX15YhmUPoYRlBtHci8nHc8iMai/lxKvR
HYqjQjBAMA4GA1UdDwEB/wQEAwIBhjAPBgNVHRMBAf8EBTADAQH/MB0GA1UdDgQW
BBSATNbrdP9JNqPV2Py1PsVq8JQdjDAKBggqhkjOPQQDAwNpADBmAjEA6ED/g94D
9J+uHXqnLrmvT/aDHQ4thQEd0dlq7A/Cr8deVl5c1RxYIigL9zC2L7F8AjEA8GE8
p/SgguMh1YQdc4acLa/KNJvxn7kjNuK8YAOdgLOaVsjh4rsUecrNIdSUtUlD
-----END CERTIFICATE-----
