##
##  OISTE Server Root RSA G1
##
##  This is a single X.509 certificate for a public Certificate
##  Authority (CA). It was automatically extracted from Mozilla's
##  root CA list (the file `certdata.txt' in security/nss)
##  licensed under the MPL 2.0, http://mozilla.org/MPL/2.0/.
##
##  @generated
##
Certificate:
    Data:
        Version: 3 (0x2)
        Serial Number:
            55:a5:d9:67:94:28:c6:ed:0c:fa:27:dd:5b:01:4d:18
        Signature Algorithm: sha384WithRSAEncryption
        Issuer: C=CH, O=OISTE Foundation, CN=OISTE Server Root RSA G1
        Validity
            Not Before: May 31 14:37:16 2023 GMT
            Not After : May 24 14:37:15 2048 GMT
        Subject: C=CH, O=OISTE Foundation, CN=OISTE Server Root RSA G1
        Subject Public Key Info:
            Public Key Algorithm: rsaEncryption
                Public-Key: (4096 bit)
                Modulus:
                    00:aa:ae:f4:ab:82:cf:fb:e5:37:0b:e7:d5:96:ad:
                    90:e8:4b:29:dc:55:60:e3:cc:bc:b3:bc:2d:92:b9:
                    e4:a3:7a:f1:81:b4:9e:72:72:43:df:3f:ab:0b:26:
                    b4:ee:7b:1a:69:fb:28:d0:72:5c:4a:6d:69:99:f0:
                    63:1e:0c:d2:b1:ff:d6:8c:34:d0:ee:db:ac:48:b9:
                    ea:b0:14:8e:d8:07:a9:24:98:dd:e9:09:be:a8:22:
                    1b:59:39:d1:27:87:dc:1c:cd:f8:fb:b3:eb:e9:93:
                    78:ed:0f:ce:37:7c:26:77:6e:a1:d8:2c:21:4c:e4:
                    8a:4f:c7:13:3c:6e:c7:d5:13:97:b2:a8:db:24:69:
                    83:56:d3:69:cb:82:12:bb:9d:1b:f2:f8:34:f2:98:
                    2b:2a:8e:04:67:f6:e3:87:a1:1d:ad:6e:ce:36:74:
                    0e:5e:33:3b:cb:db:51:97:94:6a:95:3c:ce:18:5a:
                    6e:4b:c6:fc:07:8f:2e:1a:b9:4a:f7:64:34:29:dc:
                    a6:8d:50:e1:8d:8b:4b:e5:48:1b:6e:2e:80:10:3f:
                    e4:9f:1b:65:3f:11:b4:ea:57:69:9f:b4:00:eb:85:
                    24:99:24:f5:21:9d:97:aa:fb:34:7f:02:6b:15:90:
                    ad:bb:9e:5a:19:7f:a4:8c:d8:fa:6d:28:fc:38:c7:
                    e3:4c:ad:6a:ce:d9:4e:93:92:8e:cc:0c:67:bf:0b:
                    4b:96:ce:66:67:53:68:cb:17:11:8e:59:f7:ac:9c:
                    1b:b9:8e:68:44:b7:18:af:e6:e5:0f:65:dc:95:09:
                    b0:93:12:b5:1f:3e:94:a5:c7:88:75:21:b1:de:09:
                    24:2a:4c:e2:bc:ec:4c:67:47:c2:29:88:b9:0a:ba:
                    f9:c1:74:ce:8c:18:26:65:da:f7:6f:c6:8c:7b:68:
                    5c:0b:ee:63:c0:5e:4b:f1:4e:cc:9f:2f:0f:e1:e8:
                    9a:7a:93:f1:e0:c8:db:bf:27:e6:65:29:7b:36:e0:
                    33:15:73:f2:9d:6b:84:08:68:2b:36:07:2b:27:cc:
                    78:d8:6a:87:0e:47:74:f4:aa:a0:13:5d:64:7e:f4:
                    db:14:ae:fb:3a:e4:2f:c1:65:e3:b9:7a:40:6c:f0:
                    06:b7:7b:28:9b:d7:e1:5f:38:73:94:ac:d9:70:93:
                    2d:dc:84:af:46:1c:a2:7a:2c:3f:81:26:42:e7:d4:
                    d8:c5:6c:84:66:11:8b:77:6b:54:1c:a3:b5:d8:10:
                    f0:ae:29:f7:67:08:88:17:5c:b8:97:79:cf:ea:2b:
                    2a:ee:58:33:e5:6d:e9:29:aa:65:01:0d:82:13:ec:
                    25:0b:5d:2c:40:72:15:29:d3:90:2c:f7:1a:43:d5:
                    6a:f0:69
                Exponent: 65537 (0x10001)
        X509v3 extensions:
            X509v3 Basic Constraints: critical
                CA:TRUE
            X509v3 Authority Key Identifier: 
                F2:C9:C1:0F:0D:63:00:BB:EC:45:0E:4A:1F:B5:B1:B3:36:CD:0E:8D
            X509v3 Subject Key Identifier: 
                F2:C9:C1:0F:0D:63:00:BB:EC:45:0E:4A:1F:B5:B1:B3:36:CD:0E:8D
            X509v3 Key Usage: critical
                Digital Signature, Certificate Sign, CRL Sign
    Signature Algorithm: sha384WithRSAEncryption
    Signature Value:
        34:67:79:b2:3a:c6:e5:3d:f7:23:72:b9:09:ef:92:ad:27:1f:
        a0:4e:0a:b2:f5:da:17:0c:a2:85:d2:7e:92:51:fd:15:65:d7:
        5c:6b:64:16:ee:8a:45:ca:0c:43:36:44:35:d9:7f:fe:79:3a:
        1c:e8:c6:e4:3d:6b:77:d4:21:10:e3:f6:f3:20:4e:a9:be:89:
        f3:1c:9c:a9:df:bc:30:3a:17:d1:32:43:d0:aa:8a:72:1c:51:
        28:4c:dd:36:c8:e4:2d:67:7d:91:87:1c:9d:bc:fc:ab:28:96:
        5e:61:5c:b8:22:33:18:48:16:50:ea:ca:2f:e9:a5:49:dc:7f:
        3c:a4:19:bc:36:ad:92:e2:b9:f4:4b:d5:eb:08:ad:e7:78:fe:
        17:c0:5d:87:77:e8:67:77:4f:00:66:af:f4:b1:03:3a:be:12:
        7c:41:35:e5:f4:a6:1b:47:8b:cb:79:f7:d6:bf:17:6e:4e:65:
        f0:f8:da:57:c1:94:81:e5:7a:56:0d:bb:46:7f:6f:91:fd:7d:
        e6:17:e4:81:27:bb:05:88:56:dd:20:a5:f7:98:2d:91:19:69:
        31:5f:9b:30:f2:99:ad:72:40:96:cc:d8:77:66:9b:b4:d5:0e:
        b2:10:fe:14:aa:c3:80:71:9d:3d:8d:e8:7d:14:6c:61:64:86:
        46:a6:d7:54:c5:b6:d7:90:16:46:a5:85:ca:9e:3a:e3:e6:13:
        16:b6:15:23:cc:a9:29:52:fd:00:c6:f6:90:8e:56:8f:89:08:
        dd:96:aa:e6:d3:6a:a9:86:35:f6:d5:45:78:42:4a:46:fc:03:
        c8:5e:d8:66:f6:45:65:24:b4:be:87:7b:55:20:9d:f7:9d:b5:
        2a:fc:b9:62:19:cb:6c:3b:af:d3:6d:38:6c:ab:7b:a6:1e:8d:
        fc:e9:9e:fe:6b:15:b9:db:82:9a:cb:98:df:73:a1:90:a0:a0:
        c5:e0:e8:01:a8:a3:14:9c:c8:c1:9a:ac:15:50:33:8d:ed:7c:
        2a:8b:73:95:40:43:26:fc:81:a4:2a:5f:39:90:b7:27:cb:51:
        77:f8:96:93:1e:cf:f2:77:7d:1f:46:93:a2:59:1e:95:44:c5:
        2d:75:64:b0:d6:f9:e0:3c:69:ea:04:b5:1c:0b:e2:46:44:4d:
        43:3b:97:49:71:11:bd:24:b6:c2:ad:72:54:06:fe:6b:18:f9:
        77:db:29:2c:52:9e:6d:77:7b:62:fd:0f:4d:8e:98:32:30:30:
        71:12:d6:25:35:e3:9f:f8:6f:9c:b5:eb:6a:1b:ad:ea:10:d3:
        96:16:72:06:21:25:c6:4c:bc:8f:70:bb:0c:e4:5e:22:83:2d:
        d2:be:fe:85:5b:b4:e4:bd
SHA1 Fingerprint=F7:00:34:25:94:88:68:31:E4:34:87:3F:70:FE:86:B3:86:9F:F0:6E
-----BEGIN CERTIFICATE-----
MIIFgzCCA2ugAwIBAgIQVaXZZ5Qoxu0M+ifdWwFNGDANBgkqhkiG9w0BAQwFADBL
MQswCQYDVQQGEwJDSDEZMBcGA1UECgwQT0lTVEUgRm91bmRhdGlvbjEhMB8GA1UE
AwwYT0lTVEUgU2VydmVyIFJvb3QgUlNBIEcxMB4XDTIzMDUzMTE0MzcxNloXDTQ4
MDUyNDE0MzcxNVowSzELMAkGA1UEBhMCQ0gxGTAXBgNVBAoMEE9JU1RFIEZvdW5k
YXRpb24xITAfBgNVBAMMGE9JU1RFIFNlcnZlciBSb290IFJTQSBHMTCCAiIwDQYJ
KoZIhvcNAQEBBQADggIPADCCAgoCggIBAKqu9KuCz/vlNwvn1ZatkOhLKdxVYOPM
vLO8LZK55KN68YG0nnJyQ98/qwsmtO57Gmn7KNByXEptaZnwYx4M0rH/1ow00O7b
rEi56rAUjtgHqSSY3ekJvqgiG1k50SeH3BzN+Puz6+mTeO0Pzjd8JnduodgsIUzk
ik/HEzxux9UTl7Ko2yRpg1bTacuCErudG/L4NPKYKyqOBGf244ehHa1uzjZ0Dl4z
O8vbUZeUapU8zhhabkvG/AePLhq5SvdkNCncpo1Q4Y2LS+VIG24ugBA/5J8bZT8R
tOpXaZ+0AOuFJJkk9SGdl6r7NH8CaxWQrbueWhl/pIzY+m0o/DjH40ytas7ZTpOS
jswMZ78LS5bOZmdTaMsXEY5Z96ycG7mOaES3GK/m5Q9l3JUJsJMStR8+lKXHiHUh
sd4JJCpM4rzsTGdHwimIuQq6+cF0zowYJmXa92/GjHtoXAvuY8BeS/FOzJ8vD+Ho
mnqT8eDI278n5mUpezbgMxVz8p1rhAhoKzYHKyfMeNhqhw5HdPSqoBNdZH702xSu
+zrkL8Fl47l6QGzwBrd7KJvX4V84c5Ss2XCTLdyEr0YconosP4EmQufU2MVshGYR
i3drVByjtdgQ8K4p92cIiBdcuJd5z+orKu5YM+Vt6SmqZQENghPsJQtdLEByFSnT
kCz3GkPVavBpAgMBAAGjYzBhMA8GA1UdEwEB/wQFMAMBAf8wHwYDVR0jBBgwFoAU
8snBDw1jALvsRQ5KH7WxszbNDo0wHQYDVR0OBBYEFPLJwQ8NYwC77EUOSh+1sbM2
zQ6NMA4GA1UdDwEB/wQEAwIBhjANBgkqhkiG9w0BAQwFAAOCAgEANGd5sjrG5T33
I3K5Ce+SrScfoE4KsvXaFwyihdJ+klH9FWXXXGtkFu6KRcoMQzZENdl//nk6HOjG
5D1rd9QhEOP28yBOqb6J8xycqd+8MDoX0TJD0KqKchxRKEzdNsjkLWd9kYccnbz8
qyiWXmFcuCIzGEgWUOrKL+mlSdx/PKQZvDatkuK59EvV6wit53j+F8Bdh3foZ3dP
AGav9LEDOr4SfEE15fSmG0eLy3n31r8Xbk5l8PjaV8GUgeV6Vg27Rn9vkf195hfk
gSe7BYhW3SCl95gtkRlpMV+bMPKZrXJAlszYd2abtNUOshD+FKrDgHGdPY3ofRRs
YWSGRqbXVMW215AWRqWFyp464+YTFrYVI8ypKVL9AMb2kI5Wj4kI3Zaq5tNqqYY1
9tVFeEJKRvwDyF7YZvZFZSS0vod7VSCd9521Kvy5YhnLbDuv0204bKt7ph6N/Ome
/msVuduCmsuY33OhkKCgxeDoAaijFJzIwZqsFVAzje18KotzlUBDJvyBpCpfOZC3
J8tRd/iWkx7P8nd9H0aTolkelUTFLXVksNb54Dxp6gS1HAviRkRNQzuXSXERvSS2
wq1yVAb+axj5d9spLFKebXd7Yv0PTY6YMjAwcRLWJTXjn/hvnLXrahut6hDTlhZy
BiElxky8j3C7DOReIoMt0r7+hVu05L0=
-----END CERTIFICATE-----
