##
##  OISTE Server Root ECC G1
##
##  This is a single X.509 certificate for a public Certificate
##  Authority (CA). It was automatically extracted from Mozilla's
##  root CA list (the file `certdata.txt' in security/nss)
##  licensed under the MPL 2.0, http://mozilla.org/MPL/2.0/.
##
##  @generated
##
Certificate:
    Data:
        Version: 3 (0x2)
        Serial Number:
            23:f9:c3:d6:35:af:8f:28:4b:1f:f0:54:ea:7e:97:9d
        Signature Algorithm: ecdsa-with-SHA384
        Issuer: C=CH, O=OISTE Foundation, CN=OISTE Server Root ECC G1
        Validity
            Not Before: May 31 14:42:28 2023 GMT
            Not After : May 24 14:42:27 2048 GMT
        Subject: C=CH, O=OISTE Foundation, CN=OISTE Server Root ECC G1
        Subject Public Key Info:
            Public Key Algorithm: id-ecPublicKey
                Public-Key: (384 bit)
                pub:
                    04:17:2f:fa:12:bc:ac:18:f3:0a:f4:44:d6:76:42:
                    9e:b3:e8:1f:b7:79:a9:58:b6:f8:65:d1:3a:21:4f:
                    a8:eb:a3:be:a4:32:72:f3:b6:01:c9:2b:fd:77:85:
                    6e:53:dd:ad:ea:aa:2e:25:92:b6:e9:21:11:a8:af:
                    b5:4c:0b:f3:96:60:9a:3b:e7:ea:1a:78:2e:b4:3d:
                    e5:28:de:1c:80:ba:5c:6e:0d:db:19:a5:e3:3f:9c:
                    2a:b8:40:4b:dd:e6:4f
                ASN1 OID: secp384r1
                NIST CURVE: P-384
        X509v3 extensions:
            X509v3 Basic Constraints: critical
                CA:TRUE
            X509v3 Authority Key Identifier: 
                37:4D:88:65:CF:FC:3D:8A:D5:A3:F1:49:C0:4E:0C:10:6F:42:B4:9C
            X509v3 Subject Key Identifier: 
                37:4D:88:65:CF:FC:3D:8A:D5:A3:F1:49:C0:4E:0C:10:6F:42:B4:9C
            X509v3 Key Usage: critical
                Digital Signature, Certificate Sign, CRL Sign
    Signature Algorithm: ecdsa-with-SHA384
    Signature Value:
        30:66:02:31:00:a9:2a:30:1d:d0:c2:9f:90:51:51:40:3e:95:
        54:21:cd:16:66:f7:53:6c:08:16:39:d0:12:7c:7f:63:1b:df:
        e3:38:00:39:d9:2d:53:20:45:0b:1c:60:67:31:43:25:ed:02:
        31:00:92:89:ae:e9:5c:62:83:62:61:f9:2d:57:ab:56:b9:11:
        dd:25:be:6a:4e:4a:1a:82:6b:dc:cf:d3:bc:4a:b3:3c:d7:2e:
        9b:db:f8:28:69:bc:6b:2d:ec:31:a1:3a:e3:57
SHA1 Fingerprint=3B:F6:8B:09:AE:2A:92:7B:BA:E3:8D:3F:11:95:D9:E6:44:0C:45:E2
-----BEGIN CERTIFICATE-----
MIICNTCCAbqgAwIBAgIQI/nD1jWvjyhLH/BU6n6XnTAKBggqhkjOPQQDAzBLMQsw
CQYDVQQGEwJDSDEZMBcGA1UECgwQT0lTVEUgRm91bmRhdGlvbjEhMB8GA1UEAwwY
T0lTVEUgU2VydmVyIFJvb3QgRUNDIEcxMB4XDTIzMDUzMTE0NDIyOFoXDTQ4MDUy
NDE0NDIyN1owSzELMAkGA1UEBhMCQ0gxGTAXBgNVBAoMEE9JU1RFIEZvdW5kYXRp
b24xITAfBgNVBAMMGE9JU1RFIFNlcnZlciBSb290IEVDQyBHMTB2MBAGByqGSM49
AgEGBSuBBAAiA2IABBcv+hK8rBjzCvRE1nZCnrPoH7d5qVi2+GXROiFPqOujvqQy
cvO2Ackr/XeFblPdreqqLiWStukhEaivtUwL85Zgmjvn6hp4LrQ95SjeHIC6XG4N
2xml4z+cKrhAS93mT6NjMGEwDwYDVR0TAQH/BAUwAwEB/zAfBgNVHSMEGDAWgBQ3
TYhlz/w9itWj8UnATgwQb0K0nDAdBgNVHQ4EFgQUN02IZc/8PYrVo/FJwE4MEG9C
tJwwDgYDVR0PAQH/BAQDAgGGMAoGCCqGSM49BAMDA2kAMGYCMQCpKjAd0MKfkFFR
QD6VVCHNFmb3U2wIFjnQEnx/Yxvf4zgAOdktUyBFCxxgZzFDJe0CMQCSia7pXGKD
YmH5LVerVrkR3SW+ak5KGoJr3M/TvEqzPNcum9v4KGm8ay3sMaE641c=
-----END CERTIFICATE-----
