##
##  Sectigo Public Server Authentication Root R46
##
##  This is a single X.509 certificate for a public Certificate
##  Authority (CA). It was automatically extracted from Mozilla's
##  root CA list (the file `certdata.txt' in security/nss).
##
##  It contains a certificate trusted for server authentication.
##
##  Extracted from nss
##
##  @generated
##
Certificate:
    Data:
        Version: 3 (0x2)
        Serial Number:
            75:8d:fd:8b:ae:7c:07:00:fa:a9:25:a7:e1:c7:ad:14
        Signature Algorithm: sha384WithRSAEncryption
        Issuer: C = GB, O = Sectigo Limited, CN = Sectigo Public Server Authentication Root R46
        Validity
            Not Before: Mar 22 00:00:00 2021 GMT
            Not After : Mar 21 23:59:59 2046 GMT
        Subject: C = GB, O = Sectigo Limited, CN = Sectigo Public Server Authentication Root R46
        Subject Public Key Info:
            Public Key Algorithm: rsaEncryption
                Public-Key: (4096 bit)
                Modulus:
                    00:93:be:d5:36:52:75:d8:01:23:a0:1c:47:42:49:
                    ee:63:b6:b7:21:fd:c4:95:d5:48:2b:26:7c:14:53:
                    10:da:79:fd:2b:b7:2d:a4:d4:2c:fa:ea:32:dd:49:
                    c2:b9:bd:0f:48:3d:7b:5a:98:54:af:9e:5d:31:74:
                    4f:07:fc:50:21:dd:a4:cf:68:4f:1b:12:63:6d:25:
                    99:4c:2a:99:f3:48:30:61:fa:81:7c:1e:a7:08:4a:
                    dc:3e:2b:1c:1f:18:4c:71:aa:35:8c:ad:f8:6e:e8:
                    3b:4a:d9:e5:94:02:d6:89:84:13:aa:6d:c8:4f:33:
                    cc:50:96:37:92:33:dc:5f:88:e7:9f:54:d9:48:f0:
                    98:43:d6:66:fd:9f:17:38:43:c5:01:51:0b:d7:e3:
                    23:0f:14:5d:5b:14:e7:4b:be:dd:f4:c8:da:03:37:
                    d1:d6:39:a1:21:51:30:83:b0:6d:d7:30:4e:96:5b:
                    91:f0:70:24:ab:bf:45:81:64:43:0d:bd:21:3a:2f:
                    3c:e9:9e:0d:cb:20:b5:42:27:cc:da:6f:9b:ee:64:
                    30:90:39:cd:93:65:81:21:31:b5:23:50:33:37:22:
                    e3:38:ed:f8:31:30:cc:45:fe:62:f9:d1:5d:32:79:
                    42:87:df:6a:cc:56:19:40:4d:ce:aa:bb:f9:b5:76:
                    49:94:f1:27:f8:91:a5:83:e5:06:b3:63:0e:80:dc:
                    e0:12:55:80:a6:3b:66:b4:39:87:2d:c8:f0:d0:d1:
                    14:e9:e4:0d:4d:0e:f6:5d:57:72:c5:3b:1c:47:56:
                    9d:e2:d5:fb:81:61:8c:cc:4d:80:90:34:5b:b7:d7:
                    14:75:dc:d8:04:48:9f:c0:c1:28:88:b4:e9:1c:ca:
                    a7:b1:f1:56:b7:7b:49:4c:59:e5:20:15:a8:84:02:
                    29:fa:38:94:69:9a:49:06:8f:cd:1f:79:14:17:12:
                    0c:83:7a:de:1f:b1:97:ee:f9:97:78:28:a4:c8:44:
                    92:e9:7d:26:05:a6:58:72:9b:79:13:d8:11:5f:ae:
                    c5:38:62:34:68:b2:86:30:8e:f8:90:61:9e:32:6c:
                    f5:07:36:cd:a2:4c:6e:ec:8a:36:ed:f2:e6:99:15:
                    44:70:c3:7c:bc:9c:39:c0:b4:e1:6b:f7:83:25:23:
                    57:d9:12:80:e5:49:f0:75:0f:ef:8d:eb:1c:9b:54:
                    28:b4:21:3c:fc:7c:0a:ff:ef:7b:6b:75:ff:8b:1d:
                    a0:19:05:ab:fa:f8:2b:81:42:e8:38:ba:bb:fb:aa:
                    fd:3d:e0:f3:ca:df:4e:97:97:29:ed:f3:18:56:e9:
                    a5:96:ac:bd:c3:90:98:b2:e0:f9:a2:d4:a6:47:43:
                    7c:6d:cf
                Exponent: 65537 (0x10001)
        X509v3 extensions:
            X509v3 Subject Key Identifier: 
                56:73:58:64:95:F9:92:1A:B0:12:2A:04:62:79:A1:40:15:88:21:49
            X509v3 Key Usage: critical
                Digital Signature, Certificate Sign, CRL Sign
            X509v3 Basic Constraints: critical
                CA:TRUE
    Signature Algorithm: sha384WithRSAEncryption
    Signature Value:
        2f:5c:99:3c:fc:06:5e:8c:94:2e:70:ea:d2:32:31:8d:b4:f0:
        51:d5:bc:0a:f3:64:9f:07:5e:d5:c1:73:68:64:7a:a2:b9:0e:
        e8:f9:5d:85:2d:a8:37:45:aa:28:f4:96:05:50:60:a9:49:7e:
        9f:e2:99:36:29:13:44:47:6a:9d:55:20:3c:d8:9b:f1:03:32:
        ba:da:40:a1:73:ea:83:a1:b7:44:a6:0e:99:01:9b:e4:bc:7f:
        be:13:94:7e:ca:a6:1e:76:80:36:3d:84:06:8b:33:26:65:6d:
        ca:7e:9e:fe:1f:8c:58:38:7b:1a:83:b1:0f:bc:17:11:bb:e6:
        06:cc:63:fa:81:f2:81:4c:da:0b:10:6b:a1:fa:d5:28:a5:cf:
        06:40:16:ff:7b:7d:18:5e:39:12:a4:53:9e:7e:32:42:10:a6:
        21:91:a9:1c:4e:17:7c:84:bc:9f:8c:d1:e8:df:e6:51:b9:36:
        47:3f:90:b9:c7:bc:02:dc:5b:1c:4f:0e:48:c1:25:83:9c:0a:
        3f:9e:b1:03:33:12:1a:27:ac:f7:22:6c:24:d1:01:41:f8:58:
        03:fe:25:68:22:1f:9a:5a:3c:7c:6c:9e:75:48:f3:81:f1:66:
        67:6e:4c:82:c0:ee:ba:57:0e:18:ef:2e:9a:f7:12:d8:a0:6b:
        e9:05:a5:a1:e9:68:f8:bc:4c:3f:12:1e:45:e8:52:c0:a3:bf:
        12:27:79:b9:cc:31:3c:c3:f6:3a:22:16:03:a0:c9:8f:66:a4:
        5b:a2:4d:d6:81:25:06:e9:76:a4:00:0a:3e:cb:cd:35:9b:e0:
        e1:38:cb:60:53:86:28:42:41:1c:44:57:e8:a8:ad:ab:45:e3:
        25:10:bc:db:3e:65:41:fb:1b:a6:97:0f:eb:b9:74:79:f9:1e:
        bc:1d:57:0d:47:af:c3:2f:9f:87:46:a7:eb:26:5a:0f:56:63:
        b5:62:60:6e:00:fb:e3:27:11:22:e7:fe:99:8f:34:f5:b9:e8:
        c3:91:72:bd:d8:c3:1e:b9:2e:f2:91:44:51:d0:57:cd:0c:34:
        d5:48:21:bf:db:13:f1:66:25:43:52:d2:70:22:36:cd:9f:c4:
        1c:75:20:ad:63:72:63:06:0f:0e:27:ce:d2:6a:0d:bc:b5:39:
        1a:e9:d1:76:7a:d1:5c:e4:e7:49:49:2d:55:37:68:f0:1a:3a:
        98:3e:54:17:87:54:e9:a6:27:50:89:7b:20:2f:3f:ff:bf:a1:
        8b:4a:47:98:ff:2b:7b:49:3e:c3:29:46:60:18:42:ab:33:29:
        ba:c0:29:b9:13:89:d3:88:8a:39:41:3b:c9:fd:a6:ed:1f:f4:
        60:63:df:d2:2d:55:01:8b
SHA1 Fingerprint=AD:98:F9:F3:E4:7D:75:3B:65:D4:82:B3:A4:52:17:BB:6E:F5:E4:38
-----BEGIN CERTIFICATE-----
MIIFijCCA3KgAwIBAgIQdY39i658BwD6qSWn4cetFDANBgkqhkiG9w0BAQwFADBf
MQswCQYDVQQGEwJHQjEYMBYGA1UEChMPU2VjdGlnbyBMaW1pdGVkMTYwNAYDVQQD
Ey1TZWN0aWdvIFB1YmxpYyBTZXJ2ZXIgQXV0aGVudGljYXRpb24gUm9vdCBSNDYw
HhcNMjEwMzIyMDAwMDAwWhcNNDYwMzIxMjM1OTU5WjBfMQswCQYDVQQGEwJHQjEY
MBYGA1UEChMPU2VjdGlnbyBMaW1pdGVkMTYwNAYDVQQDEy1TZWN0aWdvIFB1Ymxp
YyBTZXJ2ZXIgQXV0aGVudGljYXRpb24gUm9vdCBSNDYwggIiMA0GCSqGSIb3DQEB
AQUAA4ICDwAwggIKAoICAQCTvtU2UnXYASOgHEdCSe5jtrch/cSV1UgrJnwUUxDa
ef0rty2k1Cz66jLdScK5vQ9IPXtamFSvnl0xdE8H/FAh3aTPaE8bEmNtJZlMKpnz
SDBh+oF8HqcIStw+KxwfGExxqjWMrfhu6DtK2eWUAtaJhBOqbchPM8xQljeSM9xf
iOefVNlI8JhD1mb9nxc4Q8UBUQvX4yMPFF1bFOdLvt30yNoDN9HWOaEhUTCDsG3X
ME6WW5HwcCSrv0WBZEMNvSE6Lzzpng3LILVCJ8zab5vuZDCQOc2TZYEhMbUjUDM3
IuM47fgxMMxF/mL50V0yeUKH32rMVhlATc6qu/m1dkmU8Sf4kaWD5QazYw6A3OAS
VYCmO2a0OYctyPDQ0RTp5A1NDvZdV3LFOxxHVp3i1fuBYYzMTYCQNFu31xR13NgE
SJ/AwSiItOkcyqex8Va3e0lMWeUgFaiEAin6OJRpmkkGj80feRQXEgyDet4fsZfu
+Zd4KKTIRJLpfSYFplhym3kT2BFfrsU4YjRosoYwjviQYZ4ybPUHNs2iTG7sijbt
8uaZFURww3y8nDnAtOFr94MlI1fZEoDlSfB1D++N6xybVCi0ITz8fAr/73trdf+L
HaAZBav6+CuBQug4urv7qv094PPK306Xlynt8xhW6aWWrL3DkJiy4Pmi1KZHQ3xt
zwIDAQABo0IwQDAdBgNVHQ4EFgQUVnNYZJX5khqwEioEYnmhQBWIIUkwDgYDVR0P
AQH/BAQDAgGGMA8GA1UdEwEB/wQFMAMBAf8wDQYJKoZIhvcNAQEMBQADggIBAC9c
mTz8Bl6MlC5w6tIyMY208FHVvArzZJ8HXtXBc2hkeqK5Duj5XYUtqDdFqij0lgVQ
YKlJfp/imTYpE0RHap1VIDzYm/EDMrraQKFz6oOht0SmDpkBm+S8f74TlH7Kph52
gDY9hAaLMyZlbcp+nv4fjFg4exqDsQ+8FxG75gbMY/qB8oFM2gsQa6H61SilzwZA
Fv97fRheORKkU55+MkIQpiGRqRxOF3yEvJ+M0ejf5lG5Nkc/kLnHvALcWxxPDkjB
JYOcCj+esQMzEhonrPcibCTRAUH4WAP+JWgiH5paPHxsnnVI84HxZmduTILA7rpX
DhjvLpr3Etiga+kFpaHpaPi8TD8SHkXoUsCjvxInebnMMTzD9joiFgOgyY9mpFui
TdaBJQbpdqQACj7LzTWb4OE4y2BThihCQRxEV+ioratF4yUQvNs+ZUH7G6aXD+u5
dHn5HrwdVw1Hr8Mvn4dGp+smWg9WY7ViYG4A++MnESLn/pmPNPW56MORcr3Ywx65
LvKRRFHQV80MNNVIIb/bE/FmJUNS0nAiNs2fxBx1IK1jcmMGDw4nztJqDby1ORrp
0XZ60Vzk50lJLVU3aPAaOpg+VBeHVOmmJ1CJeyAvP/+/oYtKR5j/K3tJPsMpRmAY
QqszKbrAKbkTidOIijlBO8n9pu0f9GBj39ItVQGL
-----END CERTIFICATE-----
