##
##  Sectigo Public Server Authentication Root E46
##
##  This is a single X.509 certificate for a public Certificate
##  Authority (CA). It was automatically extracted from Mozilla's
##  root CA list (the file `certdata.txt' in security/nss).
##
##  It contains a certificate trusted for server authentication.
##
##  Extracted from nss
##
##  @generated
##
Certificate:
    Data:
        Version: 3 (0x2)
        Serial Number:
            42:f2:cc:da:1b:69:37:44:5f:15:fe:75:28:10:b8:f4
        Signature Algorithm: ecdsa-with-SHA384
        Issuer: C = GB, O = Sectigo Limited, CN = Sectigo Public Server Authentication Root E46
        Validity
            Not Before: Mar 22 00:00:00 2021 GMT
            Not After : Mar 21 23:59:59 2046 GMT
        Subject: C = GB, O = Sectigo Limited, CN = Sectigo Public Server Authentication Root E46
        Subject Public Key Info:
            Public Key Algorithm: id-ecPublicKey
                Public-Key: (384 bit)
                pub:
                    04:76:fa:99:a9:6e:20:ed:f9:d7:77:e3:07:3b:a8:
                    db:3d:5f:38:e8:ab:55:a6:56:4f:d6:48:ea:ec:7f:
                    2d:aa:c3:b2:c5:79:ec:99:61:7f:10:79:c7:02:5a:
                    f9:04:37:f5:34:35:2b:77:ce:7f:20:8f:52:a3:00:
                    89:ec:d5:a7:a2:6d:5b:e3:4b:92:93:a0:80:f5:01:
                    94:dc:f0:68:07:1e:cd:ee:fe:25:52:b5:20:43:1c:
                    1b:fe:eb:19:ce:43:a3
                ASN1 OID: secp384r1
                NIST CURVE: P-384
        X509v3 extensions:
            X509v3 Subject Key Identifier: 
                D1:22:DA:4C:59:F1:4B:5F:26:38:AA:9D:D6:EE:EB:0D:C3:FB:A9:61
            X509v3 Key Usage: critical
                Digital Signature, Certificate Sign, CRL Sign
            X509v3 Basic Constraints: critical
                CA:TRUE
    Signature Algorithm: ecdsa-with-SHA384
    Signature Value:
        30:64:02:30:27:ee:a4:5a:a8:21:bb:e9:47:97:94:89:a5:74:
        20:6d:79:4f:c8:bd:93:5e:58:18:fb:2d:1a:00:6a:c9:b8:3d:
        d0:a4:4f:44:47:94:01:56:a2:f8:33:25:0c:42:df:aa:02:30:
        1d:ea:e1:2e:88:2e:e1:f9:a7:1d:02:32:4e:f2:9f:6c:55:74:
        e3:ae:ae:fb:a5:1a:ee:ed:d2:fc:c2:03:11:eb:45:5c:60:10:
        3d:5c:7f:99:03:5b:6d:54:48:01:8a:73
SHA1 Fingerprint=EC:8A:39:6C:40:F0:2E:BC:42:75:D4:9F:AB:1C:1A:5B:67:BE:D2:9A
-----BEGIN CERTIFICATE-----
MIICOjCCAcGgAwIBAgIQQvLM2htpN0RfFf51KBC49DAKBggqhkjOPQQDAzBfMQsw
CQYDVQQGEwJHQjEYMBYGA1UEChMPU2VjdGlnbyBMaW1pdGVkMTYwNAYDVQQDEy1T
ZWN0aWdvIFB1YmxpYyBTZXJ2ZXIgQXV0aGVudGljYXRpb24gUm9vdCBFNDYwHhcN
MjEwMzIyMDAwMDAwWhcNNDYwMzIxMjM1OTU5WjBfMQswCQYDVQQGEwJHQjEYMBYG
A1UEChMPU2VjdGlnbyBMaW1pdGVkMTYwNAYDVQQDEy1TZWN0aWdvIFB1YmxpYyBT
ZXJ2ZXIgQXV0aGVudGljYXRpb24gUm9vdCBFNDYwdjAQBgcqhkjOPQIBBgUrgQQA
IgNiAAR2+pmpbiDt+dd34wc7qNs9Xzjoq1WmVk/WSOrsfy2qw7LFeeyZYX8QeccC
WvkEN/U0NSt3zn8gj1KjAIns1aeibVvjS5KToID1AZTc8GgHHs3u/iVStSBDHBv+
6xnOQ6OjQjBAMB0GA1UdDgQWBBTRItpMWfFLXyY4qp3W7usNw/upYTAOBgNVHQ8B
Af8EBAMCAYYwDwYDVR0TAQH/BAUwAwEB/zAKBggqhkjOPQQDAwNnADBkAjAn7qRa
qCG76UeXlImldCBteU/IvZNeWBj7LRoAasm4PdCkT0RHlAFWovgzJQxC36oCMB3q
4S6ILuH5px0CMk7yn2xVdOOurvulGu7t0vzCAxHrRVxgED1cf5kDW21USAGKcw==
-----END CERTIFICATE-----
