##
##  Security Communication RootCA3
##
##  This is a single X.509 certificate for a public Certificate
##  Authority (CA). It was automatically extracted from Mozilla's
##  root CA list (the file `certdata.txt' in security/nss).
##
##  It contains a certificate trusted for server authentication.
##
##  Extracted from nss
##
##  @generated
##
Certificate:
    Data:
        Version: 3 (0x2)
        Serial Number:
            e1:7c:37:40:fd:1b:fe:67
        Signature Algorithm: sha384WithRSAEncryption
        Issuer: C = JP, O = "SECOM Trust Systems CO.,LTD.", CN = Security Communication RootCA3
        Validity
            Not Before: Jun 16 06:17:16 2016 GMT
            Not After : Jan 18 06:17:16 2038 GMT
        Subject: C = JP, O = "SECOM Trust Systems CO.,LTD.", CN = Security Communication RootCA3
        Subject Public Key Info:
            Public Key Algorithm: rsaEncryption
                Public-Key: (4096 bit)
                Modulus:
                    00:e3:c9:72:49:f7:30:de:09:7c:a9:40:81:58:d3:
                    b4:3a:dd:ba:61:0f:93:50:6e:69:3c:35:c2:ee:5b:
                    73:90:1b:67:4c:21:ec:5f:35:bb:39:3e:2b:0a:60:
                    ef:bb:6d:2b:86:fb:71:a2:c8:ac:e4:56:94:f9:c9:
                    af:b1:72:d4:20:ac:74:d2:b8:15:ad:51:fe:85:74:
                    a1:b9:10:fe:05:80:f9:52:93:b3:40:3d:75:10:ac:
                    c0:96:b7:a7:7e:76:bc:e3:1b:52:19:ce:11:1f:0b:
                    04:34:f5:d8:f5:69:3c:77:f3:64:f4:0d:aa:85:de:
                    e0:09:50:04:17:96:84:b7:c8:8a:bc:4d:72:fc:1c:
                    bb:cf:f3:06:4d:f9:9f:64:f7:7e:a6:66:86:35:71:
                    c8:11:80:4c:c1:71:40:58:1e:be:a0:73:f6:fc:3e:
                    50:e1:e0:2f:26:3d:7e:5c:23:b5:79:70:de:fa:e0:
                    d1:a5:d6:0c:41:71:7b:f7:ea:8c:1c:88:c7:ec:8b:
                    f5:d1:2f:55:96:46:7c:5a:3b:58:3b:fb:ba:d8:2d:
                    b5:25:da:7a:4e:cf:44:ae:21:a6:9e:98:ca:20:6e:
                    7c:bb:88:85:5b:fb:c0:10:62:bb:f2:f9:27:47:ef:
                    d1:89:39:43:c4:df:de:e1:41:bf:54:73:20:97:2d:
                    6c:da:f3:d4:07:a3:e6:b9:d8:6f:ae:fc:8c:19:2e:
                    d3:67:67:2b:95:db:58:5c:b5:6a:02:f3:b8:83:5e:
                    b4:6b:be:41:7e:57:09:75:44:50:55:cd:5a:11:61:
                    21:0a:61:c2:a9:88:fd:13:bc:2d:89:2f:cd:61:e0:
                    95:be:ca:b5:7b:e1:7b:34:67:0b:1f:b6:0c:c7:7c:
                    1e:19:53:ca:a7:b1:4a:15:20:56:14:70:3d:2b:82:
                    2c:0f:9d:15:1d:47:80:47:ff:78:99:0e:31:af:6f:
                    3e:8f:ed:86:69:1e:7b:18:88:14:b2:c2:fc:82:33:
                    2e:9c:4b:2d:fb:70:3b:71:aa:2b:7b:26:27:f3:1a:
                    c2:dc:fb:17:b8:a1:ea:cb:a0:b4:ae:d3:94:7e:7a:
                    d0:ab:c3:ec:38:2d:11:2e:88:bf:d4:3f:ad:12:3b:
                    42:ac:8f:02:6e:7d:cc:d1:5f:61:be:a1:bc:3a:6a:
                    48:ea:26:55:22:16:5d:5f:0d:ff:27:33:9f:18:03:
                    74:8a:5b:52:20:47:6b:45:4d:22:77:8c:55:27:f0:
                    af:1e:8c:c9:83:22:54:b7:9a:d0:4f:d9:ce:fc:d9:
                    2e:1c:96:28:b1:02:d3:03:bd:25:52:1c:34:66:4f:
                    23:ab:f4:77:82:96:1d:d1:57:30:08:11:05:fd:57:
                    d1:d9:c7
                Exponent: 65537 (0x10001)
        X509v3 extensions:
            X509v3 Subject Key Identifier: 
                64:14:7C:FC:58:72:16:A6:0A:29:34:15:6F:2A:CB:BC:FC:AF:A8:AB
            X509v3 Key Usage: critical
                Certificate Sign, CRL Sign
            X509v3 Basic Constraints: critical
                CA:TRUE
    Signature Algorithm: sha384WithRSAEncryption
    Signature Value:
        dc:02:23:08:e2:ef:21:3a:c7:0d:b7:26:d2:62:93:a7:a5:23:
        72:07:20:82:60:df:18:d7:54:ad:69:25:92:9e:d9:14:cf:99:
        b9:52:81:cf:ae:6c:8a:3b:5a:39:c8:6c:01:43:c2:22:6d:02:
        f0:62:cd:4e:63:43:c0:14:da:f4:63:f0:ea:f4:71:ee:4e:87:
        e3:71:a9:f4:c9:57:e5:2e:5f:1c:79:bb:23:aa:87:44:57:e9:
        bd:35:4d:41:bb:4b:28:a3:98:b2:1b:d9:0b:17:07:e5:f7:ea:
        9d:f5:76:d7:bf:c4:b6:81:58:ff:c8:ff:64:69:62:79:ad:6e:
        0e:1f:7f:ee:1d:69:e5:b7:72:71:b3:fe:a5:01:35:94:54:2b:
        c0:52:6d:8f:55:c4:c9:d2:b8:cb:ca:34:08:51:85:a0:f5:bc:
        b4:17:58:ea:0a:5c:7a:bd:63:c6:3a:2f:ff:96:49:19:84:ea:
        67:d8:04:b1:61:f4:00:5b:4a:b7:9c:71:37:19:85:79:bf:81:
        b0:c7:13:0e:76:71:3e:3a:80:06:ae:06:16:a7:8d:b5:c2:c4:
        cb:ff:40:a5:5c:8d:a5:c9:3a:ed:72:81:ca:5c:98:3c:d2:34:
        03:77:08:fd:f0:29:59:5d:21:08:c7:60:bf:a4:71:7b:b8:d9:
        1e:82:be:09:af:65:6f:28:ab:bf:4b:b5:ee:3e:08:47:27:a0:
        0f:6f:0f:8b:3f:ac:95:18:f3:b9:0e:dc:67:55:6e:62:9e:46:
        0e:d1:04:78:ca:72:ae:76:d9:a5:f8:b2:df:88:09:61:8b:ef:
        24:4e:d1:59:3f:5a:d4:3d:c9:93:3c:2b:64:f5:81:0d:16:96:
        f7:92:c3:fe:31:6f:e8:2a:32:74:0e:f4:4c:98:4a:18:0e:30:
        54:d5:c5:eb:bc:c5:15:9e:e8:99:21:eb:27:2b:09:0a:db:f1:
        e6:70:18:56:bb:0c:e4:be:f9:e8:10:a4:13:92:b8:1c:e0:db:
        67:1d:53:03:a4:22:a7:dc:5d:92:10:3c:ea:ff:fc:1b:10:1a:
        c3:d8:d0:9c:9d:65:cb:d0:2b:27:31:03:1e:36:e1:3d:76:75:
        0c:ff:45:26:b9:dd:51:bc:23:c7:5f:d8:d8:87:10:40:12:0d:
        3d:38:37:e7:44:3c:18:c0:53:09:64:8f:ff:d5:9a:a6:7c:70:
        2e:73:55:21:e8:df:ff:83:b9:1d:3e:32:1e:d6:a6:7d:2c:f1:
        66:e9:5c:1d:a7:a3:ce:5e:25:32:2b:e3:95:ac:2a:07:ce:b4:
        28:78:86:3c:2d:a6:9d:4d:d2:74:30:dd:64:51:15:db:83:83:
        51:d7:af:fd:33:9d:4d:66
SHA1 Fingerprint=C3:03:C8:22:74:92:E5:61:A2:9C:5F:79:91:2B:1E:44:13:91:30:3A
-----BEGIN CERTIFICATE-----
MIIFfzCCA2egAwIBAgIJAOF8N0D9G/5nMA0GCSqGSIb3DQEBDAUAMF0xCzAJBgNV
BAYTAkpQMSUwIwYDVQQKExxTRUNPTSBUcnVzdCBTeXN0ZW1zIENPLixMVEQuMScw
JQYDVQQDEx5TZWN1cml0eSBDb21tdW5pY2F0aW9uIFJvb3RDQTMwHhcNMTYwNjE2
MDYxNzE2WhcNMzgwMTE4MDYxNzE2WjBdMQswCQYDVQQGEwJKUDElMCMGA1UEChMc
U0VDT00gVHJ1c3QgU3lzdGVtcyBDTy4sTFRELjEnMCUGA1UEAxMeU2VjdXJpdHkg
Q29tbXVuaWNhdGlvbiBSb290Q0EzMIICIjANBgkqhkiG9w0BAQEFAAOCAg8AMIIC
CgKCAgEA48lySfcw3gl8qUCBWNO0Ot26YQ+TUG5pPDXC7ltzkBtnTCHsXzW7OT4r
CmDvu20rhvtxosis5FaU+cmvsXLUIKx00rgVrVH+hXShuRD+BYD5UpOzQD11EKzA
lrenfna84xtSGc4RHwsENPXY9Wk8d/Nk9A2qhd7gCVAEF5aEt8iKvE1y/By7z/MG
TfmfZPd+pmaGNXHIEYBMwXFAWB6+oHP2/D5Q4eAvJj1+XCO1eXDe+uDRpdYMQXF7
9+qMHIjH7Iv10S9VlkZ8WjtYO/u62C21Jdp6Ts9EriGmnpjKIG58u4iFW/vAEGK7
8vknR+/RiTlDxN/e4UG/VHMgly1s2vPUB6PmudhvrvyMGS7TZ2crldtYXLVqAvO4
g160a75BflcJdURQVc1aEWEhCmHCqYj9E7wtiS/NYeCVvsq1e+F7NGcLH7YMx3we
GVPKp7FKFSBWFHA9K4IsD50VHUeAR/94mQ4xr28+j+2GaR57GIgUssL8gjMunEst
+3A7caoreyYn8xrC3PsXuKHqy6C0rtOUfnrQq8PsOC0RLoi/1D+tEjtCrI8Cbn3M
0V9hvqG8OmpI6iZVIhZdXw3/JzOfGAN0iltSIEdrRU0id4xVJ/CvHozJgyJUt5rQ
T9nO/NkuHJYosQLTA70lUhw0Zk8jq/R3gpYd0VcwCBEF/VfR2ccCAwEAAaNCMEAw
HQYDVR0OBBYEFGQUfPxYchamCik0FW8qy7z8r6irMA4GA1UdDwEB/wQEAwIBBjAP
BgNVHRMBAf8EBTADAQH/MA0GCSqGSIb3DQEBDAUAA4ICAQDcAiMI4u8hOscNtybS
YpOnpSNyByCCYN8Y11StaSWSntkUz5m5UoHPrmyKO1o5yGwBQ8IibQLwYs1OY0PA
FNr0Y/Dq9HHuTofjcan0yVflLl8cebsjqodEV+m9NU1Bu0soo5iyG9kLFwfl9+qd
9XbXv8S2gVj/yP9kaWJ5rW4OH3/uHWnlt3Jxs/6lATWUVCvAUm2PVcTJ0rjLyjQI
UYWg9by0F1jqClx6vWPGOi//lkkZhOpn2ASxYfQAW0q3nHE3GYV5v4GwxxMOdnE+
OoAGrgYWp421wsTL/0ClXI2lyTrtcoHKXJg80jQDdwj98ClZXSEIx2C/pHF7uNke
gr4Jr2VvKKu/S7XuPghHJ6APbw+LP6yVGPO5DtxnVW5inkYO0QR4ynKudtml+LLf
iAlhi+8kTtFZP1rUPcmTPCtk9YENFpb3ksP+MW/oKjJ0DvRMmEoYDjBU1cXrvMUV
nuiZIesnKwkK2/HmcBhWuwzkvvnoEKQTkrgc4NtnHVMDpCKn3F2SEDzq//wbEBrD
2NCcnWXL0CsnMQMeNuE9dnUM/0Umud1RvCPHX9jYhxBAEg09ODfnRDwYwFMJZI//
1ZqmfHAuc1Uh6N//g7kdPjIe1qZ9LPFm6Vwdp6POXiUyK+OVrCoHzrQoeIY8Laad
TdJ0MN1kURXbg4NR16/9M51NZg==
-----END CERTIFICATE-----
