##
##  SecureSign Root CA12
##
##  This is a single X.509 certificate for a public Certificate
##  Authority (CA). It was automatically extracted from Mozilla's
##  root CA list (the file `certdata.txt' in security/nss).
##
##  It contains a certificate trusted for server authentication.
##
##  Extracted from nss
##
##  @generated
##
Certificate:
    Data:
        Version: 3 (0x2)
        Serial Number:
            66:f9:c7:c1:af:ec:c2:51:b4:ed:53:97:e6:e6:82:c3:2b:1c:90:16
        Signature Algorithm: sha256WithRSAEncryption
        Issuer: C = JP, O = "Cybertrust Japan Co., Ltd.", CN = SecureSign Root CA12
        Validity
            Not Before: Apr  8 05:36:46 2020 GMT
            Not After : Apr  8 05:36:46 2040 GMT
        Subject: C = JP, O = "Cybertrust Japan Co., Ltd.", CN = SecureSign Root CA12
        Subject Public Key Info:
            Public Key Algorithm: rsaEncryption
                Public-Key: (2048 bit)
                Modulus:
                    00:ba:39:c1:37:7a:68:45:2b:14:b4:eb:e4:13:eb:
                    57:75:23:4d:8f:24:2d:16:e8:ae:8e:c9:7d:a4:57:
                    3b:2a:76:25:33:83:6c:ea:32:8a:94:9b:4e:3c:96:
                    e4:fd:51:bf:99:c9:93:7e:bf:f9:ad:a7:b2:48:2b:
                    07:1c:27:f5:4c:bc:70:12:77:a4:85:54:b5:fd:90:
                    7a:e4:a3:e4:51:58:03:cd:10:79:79:ee:6b:93:1f:
                    64:8e:6b:64:ab:a3:13:e3:71:fe:7d:ab:9c:dd:27:
                    53:37:b3:aa:18:c2:59:26:ec:5b:1f:d2:e6:65:7c:
                    ef:93:bd:d8:58:5c:0b:c0:e3:65:6f:3c:c7:ca:59:
                    e3:fe:6e:5f:ac:83:be:fd:5d:25:4e:2a:29:3b:d6:
                    0b:ab:17:32:78:a4:e1:3e:94:46:be:62:6e:9b:de:
                    46:a8:b1:16:e7:85:6e:f4:08:40:45:11:a0:9e:54:
                    44:84:f7:d8:36:ce:f5:50:47:dc:2c:30:9b:ee:c0:
                    f5:96:d2:fe:09:86:c7:06:59:ae:4f:ae:8e:11:98:
                    7b:f3:0b:52:aa:62:26:aa:21:df:8e:25:33:79:97:
                    16:49:8d:f5:3e:d5:47:9f:37:31:49:33:72:05:4d:
                    0c:b6:55:8c:f1:57:8f:8a:87:d1:ad:c5:11:12:39:
                    a0:ad
                Exponent: 65537 (0x10001)
        X509v3 extensions:
            X509v3 Basic Constraints: critical
                CA:TRUE
            X509v3 Key Usage: critical
                Certificate Sign, CRL Sign
            X509v3 Subject Key Identifier: 
                57:34:F3:74:CF:04:4B:D5:25:E6:F1:40:B6:2C:4C:D9:2D:E9:A0:AD
    Signature Algorithm: sha256WithRSAEncryption
    Signature Value:
        3e:bb:db:17:16:d2:f2:14:01:20:2c:38:83:4b:ad:be:ca:85:
        7a:9a:b6:9b:6b:a6:e1:fc:a5:3a:ac:ad:b4:28:3a:af:d7:01:
        83:49:2b:63:a2:dd:9a:64:0e:98:5c:6f:dd:8e:bb:8a:54:22:
        2d:4a:13:f3:ae:40:43:db:4f:91:b7:86:1a:ec:00:b4:41:81:
        a4:4f:fa:6a:8b:88:b3:76:08:72:2a:49:40:c3:d3:c3:85:89:
        98:10:a5:9d:6f:19:b7:bb:cf:7a:65:55:db:37:eb:3c:8a:72:
        32:97:1e:9a:29:3e:ad:8d:e6:a3:1b:6d:f5:75:1a:e6:b0:68:
        b9:5b:a2:ee:69:47:27:35:a1:86:99:80:f3:33:4b:e1:6b:a4:
        26:c3:ef:74:59:6c:7a:a2:64:b6:1e:44:c3:50:e0:0f:39:3d:
        a9:33:f1:a5:f3:d2:bd:62:84:ac:8e:1c:a9:cd:5a:bd:37:3b:
        6e:0a:22:b4:f4:15:e7:91:58:c5:3a:44:d3:95:28:d9:c0:65:
        e9:72:ca:d0:0f:bd:1f:b3:15:d9:a9:e3:a4:47:09:9e:e0:cb:
        37:fb:fd:bd:97:d5:be:18:1a:69:a2:39:81:d9:1a:f5:ab:7f:
        c8:e3:e2:67:0b:9d:f4:0c:ea:54:df:d2:b2:af:b1:22:f1:20:
        df:bc:44:1c
SHA1 Fingerprint=7A:22:1E:3D:DE:1B:06:AC:9E:C8:47:70:16:8E:3C:E5:F7:6B:06:F4
-----BEGIN CERTIFICATE-----
MIIDcjCCAlqgAwIBAgIUZvnHwa/swlG07VOX5uaCwysckBYwDQYJKoZIhvcNAQEL
BQAwUTELMAkGA1UEBhMCSlAxIzAhBgNVBAoTGkN5YmVydHJ1c3QgSmFwYW4gQ28u
LCBMdGQuMR0wGwYDVQQDExRTZWN1cmVTaWduIFJvb3QgQ0ExMjAeFw0yMDA0MDgw
NTM2NDZaFw00MDA0MDgwNTM2NDZaMFExCzAJBgNVBAYTAkpQMSMwIQYDVQQKExpD
eWJlcnRydXN0IEphcGFuIENvLiwgTHRkLjEdMBsGA1UEAxMUU2VjdXJlU2lnbiBS
b290IENBMTIwggEiMA0GCSqGSIb3DQEBAQUAA4IBDwAwggEKAoIBAQC6OcE3emhF
KxS06+QT61d1I02PJC0W6K6OyX2kVzsqdiUzg2zqMoqUm048luT9Ub+ZyZN+v/mt
p7JIKwccJ/VMvHASd6SFVLX9kHrko+RRWAPNEHl57muTH2SOa2SroxPjcf59q5zd
J1M3s6oYwlkm7Fsf0uZlfO+TvdhYXAvA42VvPMfKWeP+bl+sg779XSVOKik71gur
FzJ4pOE+lEa+Ym6b3kaosRbnhW70CEBFEaCeVESE99g2zvVQR9wsMJvuwPWW0v4J
hscGWa5Pro4RmHvzC1KqYiaqId+OJTN5lxZJjfU+1UefNzFJM3IFTQy2VYzxV4+K
h9GtxRESOaCtAgMBAAGjQjBAMA8GA1UdEwEB/wQFMAMBAf8wDgYDVR0PAQH/BAQD
AgEGMB0GA1UdDgQWBBRXNPN0zwRL1SXm8UC2LEzZLemgrTANBgkqhkiG9w0BAQsF
AAOCAQEAPrvbFxbS8hQBICw4g0utvsqFepq2m2um4fylOqyttCg6r9cBg0krY6Ld
mmQOmFxv3Y67ilQiLUoT865AQ9tPkbeGGuwAtEGBpE/6aouIs3YIcipJQMPTw4WJ
mBClnW8Zt7vPemVV2zfrPIpyMpcemik+rY3moxtt9XUa5rBouVui7mlHJzWhhpmA
8zNL4WukJsPvdFlseqJkth5Ew1DgDzk9qTPxpfPSvWKErI4cqc1avTc7bgoitPQV
55FYxTpE05Uo2cBl6XLK0A+9H7MV2anjpEcJnuDLN/v9vZfVvhgaaaI5gdka9at/
yOPiZwud9AzqVN/Ssq+xIvEg37xEHA==
-----END CERTIFICATE-----
