##
##  Security Communication ECC RootCA1
##
##  This is a single X.509 certificate for a public Certificate
##  Authority (CA). It was automatically extracted from Mozilla's
##  root CA list (the file `certdata.txt' in security/nss).
##
##  It contains a certificate trusted for server authentication.
##
##  Extracted from nss
##  with $FreeBSD$
##
##  @generated
##
Certificate:
    Data:
        Version: 3 (0x2)
        Serial Number:
            d6:5d:9b:b3:78:81:2e:eb
        Signature Algorithm: ecdsa-with-SHA384
        Issuer: C = JP, O = "SECOM Trust Systems CO.,LTD.", CN = Security Communication ECC RootCA1
        Validity
            Not Before: Jun 16 05:15:28 2016 GMT
            Not After : Jan 18 05:15:28 2038 GMT
        Subject: C = JP, O = "SECOM Trust Systems CO.,LTD.", CN = Security Communication ECC RootCA1
        Subject Public Key Info:
            Public Key Algorithm: id-ecPublicKey
                Public-Key: (384 bit)
                pub:
                    04:a4:a5:6f:60:03:03:c3:bd:31:f4:d3:17:9c:2b:
                    84:75:ac:e5:fd:3d:57:6e:d7:63:bf:e6:04:89:92:
                    8e:81:9c:e3:e9:47:6e:ca:90:12:c8:13:e0:a7:9d:
                    f7:65:74:1f:6c:10:b2:e8:e4:e9:ef:6d:85:32:99:
                    44:b1:5e:fd:cc:76:10:d8:5b:bd:a2:c6:f9:d6:42:
                    e4:57:76:dc:90:c2:35:a9:4b:88:3c:12:47:6d:5c:
                    ff:49:4f:1a:4a:50:b1
                ASN1 OID: secp384r1
                NIST CURVE: P-384
        X509v3 extensions:
            X509v3 Subject Key Identifier: 
                86:1C:E7:FE:2D:A5:4A:8B:08:FE:28:11:FA:BE:A3:66:F8:60:59:2F
            X509v3 Key Usage: critical
                Certificate Sign, CRL Sign
            X509v3 Basic Constraints: critical
                CA:TRUE
    Signature Algorithm: ecdsa-with-SHA384
         30:65:02:30:15:5d:42:3d:fc:b6:ee:f7:3b:b1:36:e8:9e:f6:
         c4:46:28:49:33:d0:58:43:2a:63:29:cc:4d:b1:b4:7a:a2:b9:
         0d:38:a5:5d:48:2a:fd:cb:b2:73:5d:a3:88:08:c7:0c:02:31:
         00:c0:ab:2d:0e:6d:ed:18:a2:db:53:e9:25:db:55:08:e0:50:
         cc:df:44:61:16:82:ab:49:b0:b2:81:ec:73:87:78:b4:4c:b2:
         62:1b:12:fa:16:4d:25:4b:63:bd:1e:37:d9
SHA1 Fingerprint=B8:0E:26:A9:BF:D2:B2:3B:C0:EF:46:C9:BA:C7:BB:F6:1D:0D:41:41
-----BEGIN CERTIFICATE-----
MIICODCCAb6gAwIBAgIJANZdm7N4gS7rMAoGCCqGSM49BAMDMGExCzAJBgNVBAYT
AkpQMSUwIwYDVQQKExxTRUNPTSBUcnVzdCBTeXN0ZW1zIENPLixMVEQuMSswKQYD
VQQDEyJTZWN1cml0eSBDb21tdW5pY2F0aW9uIEVDQyBSb290Q0ExMB4XDTE2MDYx
NjA1MTUyOFoXDTM4MDExODA1MTUyOFowYTELMAkGA1UEBhMCSlAxJTAjBgNVBAoT
HFNFQ09NIFRydXN0IFN5c3RlbXMgQ08uLExURC4xKzApBgNVBAMTIlNlY3VyaXR5
IENvbW11bmljYXRpb24gRUNDIFJvb3RDQTEwdjAQBgcqhkjOPQIBBgUrgQQAIgNi
AASkpW9gAwPDvTH00xecK4R1rOX9PVdu12O/5gSJko6BnOPpR27KkBLIE+Cnnfdl
dB9sELLo5OnvbYUymUSxXv3MdhDYW72ixvnWQuRXdtyQwjWpS4g8EkdtXP9JTxpK
ULGjQjBAMB0GA1UdDgQWBBSGHOf+LaVKiwj+KBH6vqNm+GBZLzAOBgNVHQ8BAf8E
BAMCAQYwDwYDVR0TAQH/BAUwAwEB/zAKBggqhkjOPQQDAwNoADBlAjAVXUI9/Lbu
9zuxNuie9sRGKEkz0FhDKmMpzE2xtHqiuQ04pV1IKv3LsnNdo4gIxwwCMQDAqy0O
be0YottT6SXbVQjgUMzfRGEWgqtJsLKB7HOHeLRMsmIbEvoWTSVLY70eN9k=
-----END CERTIFICATE-----
