##
##  SecureSign Root CA14
##
##  This is a single X.509 certificate for a public Certificate
##  Authority (CA). It was automatically extracted from Mozilla's
##  root CA list (the file `certdata.txt' in security/nss).
##
##  It contains a certificate trusted for server authentication.
##
##  Extracted from nss
##
##  @generated
##
Certificate:
    Data:
        Version: 3 (0x2)
        Serial Number:
            64:db:5a:0c:20:4e:e8:d7:29:77:c8:50:27:a2:5a:27:dd:2d:f2:cb
        Signature Algorithm: sha384WithRSAEncryption
        Issuer: C = JP, O = "Cybertrust Japan Co., Ltd.", CN = SecureSign Root CA14
        Validity
            Not Before: Apr  8 07:06:19 2020 GMT
            Not After : Apr  8 07:06:19 2045 GMT
        Subject: C = JP, O = "Cybertrust Japan Co., Ltd.", CN = SecureSign Root CA14
        Subject Public Key Info:
            Public Key Algorithm: rsaEncryption
                Public-Key: (4096 bit)
                Modulus:
                    00:c5:d2:7a:a1:d6:8a:bf:16:31:d0:98:d1:3a:94:
                    fc:5a:b8:6e:22:c1:62:f7:a7:0a:27:ef:50:f6:2e:
                    b1:9e:68:12:f0:6c:24:63:39:f1:f0:df:10:c6:de:
                    b7:52:20:d5:52:5b:42:99:9e:f3:a0:be:52:1f:5f:
                    cc:67:6d:a7:2e:50:a2:c1:97:8d:b6:f8:95:f5:b0:
                    ba:dc:9d:e0:be:cb:df:f7:38:f2:47:f5:a6:9a:92:
                    95:2a:62:59:50:0b:a2:b1:35:e7:65:b2:61:b2:ea:
                    92:71:69:e4:29:f0:4f:81:81:04:3c:b2:a5:5b:d4:
                    c5:a8:59:67:7b:55:1c:49:ab:7a:9d:c2:e7:73:4d:
                    ef:cd:09:c2:c4:57:12:db:01:0e:23:79:09:07:3b:
                    a2:e8:fc:8a:cf:8f:c0:46:24:9c:38:27:e0:83:9d:
                    1b:a0:bf:78:15:10:eb:86:4e:0a:5a:fd:df:da:2c:
                    82:7e:ee:ca:f6:29:e1:fa:71:a1:f7:88:68:9c:9c:
                    f0:8d:be:0f:49:91:d8:ea:3a:f9:fd:d0:68:71:db:
                    e9:b5:2b:4e:82:92:6f:66:1f:e0:f0:dc:4c:ec:ca:
                    d1:ea:ba:74:06:f9:b3:84:90:94:d1:5f:8e:73:19:
                    10:5d:02:e5:70:a5:c0:10:d0:10:7c:6f:c5:58:49:
                    b4:b0:6e:9a:da:7d:95:f5:cc:da:02:af:b8:2c:7d:
                    79:8f:be:43:f1:f9:28:28:8d:09:43:f8:08:dd:6b:
                    c8:8b:2c:24:b1:8d:52:07:bd:78:9b:cb:ca:68:b2:
                    a4:dd:0c:4c:79:60:c6:99:d1:93:f1:30:1a:07:d3:
                    ae:22:c2:ea:ce:f1:84:09:cc:e0:14:6e:7f:3f:7e:
                    d2:82:85:ac:dc:a9:16:4e:85:a0:60:cb:f6:9c:d7:
                    c8:b3:8e:ed:c6:9b:98:75:0d:55:e8:5f:e5:95:8b:
                    02:a4:ae:43:29:28:11:a4:e6:12:30:01:4b:75:6b:
                    1e:66:9d:79:2f:a5:76:2f:1d:40:b4:6d:c9:7d:79:
                    08:ec:d1:6a:b6:5d:2a:b2:a5:66:bd:6b:85:f4:74:
                    56:c3:f5:e7:75:52:28:2c:a5:ff:66:47:a5:d4:fe:
                    fe:9e:54:bf:65:7e:01:d6:30:8f:a5:36:9c:a2:50:
                    1c:ee:38:80:01:48:c6:c7:74:f4:c6:ac:c3:40:49:
                    16:61:74:2c:af:8c:6f:35:ed:7b:18:00:5b:36:3c:
                    9c:50:0d:ca:92:33:10:f1:26:49:6d:df:75:24:37:
                    82:22:d7:e8:96:fd:15:4b:02:96:3e:07:72:95:7e:
                    ab:3d:4c:2e:d7:ca:f0:df:e0:58:3f:2d:2f:04:9a:
                    38:a3:01
                Exponent: 65537 (0x10001)
        X509v3 extensions:
            X509v3 Basic Constraints: critical
                CA:TRUE
            X509v3 Key Usage: critical
                Certificate Sign, CRL Sign
            X509v3 Subject Key Identifier: 
                06:93:A3:0A:5E:28:69:37:AA:61:1D:EB:EB:FC:2D:6F:23:E4:F3:A0
    Signature Algorithm: sha384WithRSAEncryption
    Signature Value:
        96:80:72:09:06:7e:9c:cc:93:04:16:bb:a0:3a:8d:92:4e:b7:
        11:1a:0a:71:71:10:cd:04:ad:7f:a5:45:50:10:66:4e:4a:41:
        a2:03:d9:11:4f:7a:37:b9:4b:e2:c6:8f:32:66:75:25:fb:eb:
        ce:3f:03:29:26:8d:b8:16:1d:f6:1f:33:6e:48:e6:e8:f8:57:
        b2:1b:79:df:3b:87:0a:e2:64:ba:00:ca:6c:ef:7e:d0:23:eb:
        78:8f:ff:64:9b:34:37:9f:35:65:a2:a4:00:3d:12:23:96:58:
        5d:ca:63:87:c6:a3:07:88:4d:e7:69:76:8a:53:cd:f1:4f:ec:
        42:f2:93:e3:99:a4:37:3c:87:b8:62:db:f0:ec:1f:37:3f:37:
        5f:43:cc:51:9d:b5:f0:97:c2:b7:85:6a:68:0b:44:1e:e5:51:
        ee:93:ce:4b:6e:86:c1:d2:0c:24:59:36:1a:9f:2c:91:8f:e3:
        18:db:94:95:0a:ed:91:aa:0e:99:dc:96:53:e3:61:83:c6:16:
        ba:23:ba:dc:dd:7e:1a:c6:7b:42:b6:d9:5a:05:dc:9a:5f:d5:
        df:b8:da:47:7d:da:38:db:ac:39:d5:1e:6b:6c:2a:17:8c:61:
        cd:b1:6d:72:01:c3:c3:20:00:62:68:16:31:d5:76:aa:86:bb:
        0e:aa:9e:c6:f9:f0:d9:f8:0d:21:02:e4:c5:28:16:59:11:b9:
        d9:69:73:2a:92:78:b8:92:57:9b:08:f2:3a:e5:2f:95:b0:58:
        b7:6b:20:14:6d:14:ef:0a:bc:7e:d8:55:d8:88:da:2f:fa:19:
        a5:fb:8b:e0:7f:39:f5:72:2b:85:c4:2c:ac:ef:19:45:92:4c:
        b3:61:07:dc:4d:1f:6e:d2:81:13:5c:9a:f3:12:67:83:cf:9b:
        3f:8b:9f:9d:a4:b9:a8:96:03:7a:c5:ee:20:de:33:da:2f:9e:
        1a:7a:74:1e:e1:ee:cc:5a:3a:04:dd:b3:1a:04:a8:14:63:ac:
        b7:47:12:83:9a:6c:f5:e6:e9:15:15:91:1a:84:19:0e:94:44:
        e7:12:8e:25:5b:80:67:19:dc:63:93:10:0b:65:2e:8a:fa:09:
        9a:4e:da:86:28:7d:aa:61:35:d8:0e:a7:28:1a:bb:52:e0:78:
        f8:6c:ba:6c:b0:6e:b9:87:5e:e9:99:35:37:f1:3d:64:2b:a9:
        a0:34:93:cf:63:2f:d5:81:df:ae:63:27:a5:1e:4e:8d:dc:29:
        78:59:f8:f9:a1:20:8c:a7:26:40:6e:82:72:cd:78:b2:c8:8f:
        3c:1e:73:e7:c1:1f:bf:cf:ce:a5:2a:9b:db:44:64:32:a0:bb:
        7f:5c:25:13:48:b5:7f:92
SHA1 Fingerprint=DD:50:C0:F7:79:B3:64:2E:74:A2:B8:9D:9F:D3:40:DD:BB:F0:F2:4F
-----BEGIN CERTIFICATE-----
MIIFcjCCA1qgAwIBAgIUZNtaDCBO6Ncpd8hQJ6JaJ90t8sswDQYJKoZIhvcNAQEM
BQAwUTELMAkGA1UEBhMCSlAxIzAhBgNVBAoTGkN5YmVydHJ1c3QgSmFwYW4gQ28u
LCBMdGQuMR0wGwYDVQQDExRTZWN1cmVTaWduIFJvb3QgQ0ExNDAeFw0yMDA0MDgw
NzA2MTlaFw00NTA0MDgwNzA2MTlaMFExCzAJBgNVBAYTAkpQMSMwIQYDVQQKExpD
eWJlcnRydXN0IEphcGFuIENvLiwgTHRkLjEdMBsGA1UEAxMUU2VjdXJlU2lnbiBS
b290IENBMTQwggIiMA0GCSqGSIb3DQEBAQUAA4ICDwAwggIKAoICAQDF0nqh1oq/
FjHQmNE6lPxauG4iwWL3pwon71D2LrGeaBLwbCRjOfHw3xDG3rdSINVSW0KZnvOg
vlIfX8xnbacuUKLBl422+JX1sLrcneC+y9/3OPJH9aaakpUqYllQC6KxNedlsmGy
6pJxaeQp8E+BgQQ8sqVb1MWoWWd7VRxJq3qdwudzTe/NCcLEVxLbAQ4jeQkHO6Lo
/IrPj8BGJJw4J+CDnRugv3gVEOuGTgpa/d/aLIJ+7sr2KeH6caH3iGicnPCNvg9J
kdjqOvn90Ghx2+m1K06Ckm9mH+Dw3EzsytHqunQG+bOEkJTRX45zGRBdAuVwpcAQ
0BB8b8VYSbSwbprafZX1zNoCr7gsfXmPvkPx+SgojQlD+Ajda8iLLCSxjVIHvXib
y8posqTdDEx5YMaZ0ZPxMBoH064iwurO8YQJzOAUbn8/ftKChazcqRZOhaBgy/ac
18izju3Gm5h1DVXoX+WViwKkrkMpKBGk5hIwAUt1ax5mnXkvpXYvHUC0bcl9eQjs
0Wq2XSqypWa9a4X0dFbD9ed1Uigspf9mR6XU/v6eVL9lfgHWMI+lNpyiUBzuOIAB
SMbHdPTGrMNASRZhdCyvjG817XsYAFs2PJxQDcqSMxDxJklt33UkN4Ii1+iW/RVL
ApY+B3KVfqs9TC7XyvDf4Fg/LS8EmjijAQIDAQABo0IwQDAPBgNVHRMBAf8EBTAD
AQH/MA4GA1UdDwEB/wQEAwIBBjAdBgNVHQ4EFgQUBpOjCl4oaTeqYR3r6/wtbyPk
86AwDQYJKoZIhvcNAQEMBQADggIBAJaAcgkGfpzMkwQWu6A6jZJOtxEaCnFxEM0E
rX+lRVAQZk5KQaID2RFPeje5S+LGjzJmdSX7684/AykmjbgWHfYfM25I5uj4V7Ib
ed87hwriZLoAymzvftAj63iP/2SbNDefNWWipAA9EiOWWF3KY4fGoweITedpdopT
zfFP7ELyk+OZpDc8h7hi2/DsHzc/N19DzFGdtfCXwreFamgLRB7lUe6TzktuhsHS
DCRZNhqfLJGP4xjblJUK7ZGqDpncllPjYYPGFrojutzdfhrGe0K22VoF3Jpf1d+4
2kd92jjbrDnVHmtsKheMYc2xbXIBw8MgAGJoFjHVdqqGuw6qnsb58Nn4DSEC5MUo
FlkRudlpcyqSeLiSV5sI8jrlL5WwWLdrIBRtFO8KvH7YVdiI2i/6GaX7i+B/OfVy
K4XELKzvGUWSTLNhB9xNH27SgRNcmvMSZ4PPmz+Ln52kuaiWA3rF7iDeM9ovnhp6
dB7h7sxaOgTdsxoEqBRjrLdHEoOabPXm6RUVkRqEGQ6UROcSjiVbgGcZ3GOTEAtl
Lor6CZpO2oYofaphNdgOpygau1LgePhsumywbrmHXumZNTfxPWQrqaA0k89jL9WB
365jJ6UeTo3cKXhZ+PmhIIynJkBugnLNeLLIjzwec+fBH7/PzqUqm9tEZDKgu39c
JRNItX+S
-----END CERTIFICATE-----
