##
##  SSL.com TLS RSA Root CA 2022
##
##  This is a single X.509 certificate for a public Certificate
##  Authority (CA). It was automatically extracted from Mozilla's
##  root CA list (the file `certdata.txt' in security/nss).
##
##  It contains a certificate trusted for server authentication.
##
##  Extracted from nss
##
##  @generated
##
Certificate:
    Data:
        Version: 3 (0x2)
        Serial Number:
            6f:be:da:ad:73:bd:08:40:e2:8b:4d:be:d4:f7:5b:91
        Signature Algorithm: sha256WithRSAEncryption
        Issuer: C = US, O = SSL Corporation, CN = SSL.com TLS RSA Root CA 2022
        Validity
            Not Before: Aug 25 16:34:22 2022 GMT
            Not After : Aug 19 16:34:21 2046 GMT
        Subject: C = US, O = SSL Corporation, CN = SSL.com TLS RSA Root CA 2022
        Subject Public Key Info:
            Public Key Algorithm: rsaEncryption
                Public-Key: (4096 bit)
                Modulus:
                    00:d0:a4:09:72:4f:40:88:12:61:3e:35:23:9e:ee:
                    f6:74:cf:2f:7b:58:3d:ce:3c:0d:10:28:90:2f:97:
                    f7:8c:48:d8:a0:d8:25:b1:4c:b0:11:4c:17:73:50:
                    d0:22:4a:63:bb:81:d3:29:6e:d5:b5:09:3e:26:18:
                    7f:b2:12:7f:93:98:b7:af:f0:36:bf:f2:ee:18:9e:
                    9c:3b:52:c5:47:19:5d:74:f3:64:66:d5:5d:c7:68:
                    b4:bf:1b:1c:06:a3:bc:8f:40:23:b6:1e:c6:84:bd:
                    51:c4:1b:39:c1:95:d2:29:ec:4b:ae:7b:2d:bf:39:
                    fd:b4:62:de:96:7b:41:c6:9c:a0:e0:06:72:fb:f0:
                    07:97:09:39:81:74:af:f7:34:59:11:57:0a:c2:5b:
                    c1:24:f4:31:73:30:82:c6:9d:ba:02:f7:3e:7c:44:
                    5f:83:0d:f3:f1:dd:20:69:16:09:50:e2:d4:55:b6:
                    e0:80:72:76:6e:4c:47:b7:75:55:59:b4:53:74:d9:
                    94:c6:41:ad:58:8a:31:66:0f:1e:a2:1b:29:40:4e:
                    2f:df:7b:e6:16:2c:2d:fc:bf:ec:f3:b4:fa:be:18:
                    f6:9b:49:d4:ee:05:6e:d9:34:f3:9c:f1:ec:01:8b:
                    d1:20:c6:0f:a0:b5:bc:17:4e:48:7b:51:c2:fc:e9:
                    5c:69:37:47:66:b3:68:f8:15:28:f0:b9:d3:a4:15:
                    cc:5a:4f:ba:52:70:a3:12:45:dd:c6:ba:4e:fb:c2:
                    d0:f7:a8:52:27:6d:6e:79:b5:8c:fc:7b:8c:c1:16:
                    4c:ee:80:7f:be:f0:76:be:41:53:12:33:ae:5a:38:
                    42:ab:d7:0f:3e:41:8d:76:07:32:d5:ab:89:f6:4e:
                    67:d9:b1:42:75:23:6e:f3:cd:42:b2:fc:55:f5:53:
                    87:17:3b:c0:33:58:f1:52:d2:f9:80:a4:f0:e8:f0:
                    3b:8b:38:cc:a4:c6:90:7f:0f:9c:fd:8b:d1:a3:cf:
                    da:83:a7:69:c9:50:36:d5:5c:05:d2:0a:41:74:db:
                    63:11:37:c1:a5:a0:96:4b:1e:8c:16:12:77:ae:94:
                    34:7b:1e:7f:c2:66:00:e4:aa:83:ea:8a:90:ad:ce:
                    36:44:4d:d1:51:e9:bc:1f:f3:6a:05:fd:c0:74:1f:
                    25:19:40:51:6e:ea:82:51:40:df:9b:b9:08:2a:06:
                    02:d5:23:1c:13:d6:e9:db:db:c6:b0:7a:cb:7b:27:
                    9b:fb:e0:d5:46:24:ed:10:4b:63:4b:a5:05:8f:ba:
                    b8:1d:2b:a6:fa:91:e2:92:52:bd:ec:eb:67:97:6d:
                    9a:2d:9f:81:32:05:67:32:fb:48:08:3f:d9:25:b8:
                    04:25:2f
                Exponent: 65537 (0x10001)
        X509v3 extensions:
            X509v3 Basic Constraints: critical
                CA:TRUE
            X509v3 Authority Key Identifier: 
                FB:2E:37:EE:E3:84:7A:27:2E:CD:19:35:B1:33:7C:FF:D4:44:42:B9
            X509v3 Subject Key Identifier: 
                FB:2E:37:EE:E3:84:7A:27:2E:CD:19:35:B1:33:7C:FF:D4:44:42:B9
            X509v3 Key Usage: critical
                Digital Signature, Certificate Sign, CRL Sign
    Signature Algorithm: sha256WithRSAEncryption
    Signature Value:
        8d:89:6d:84:45:18:f1:4f:b3:a0:ef:68:a4:c0:1d:ac:30:bc:
        67:66:b0:9a:cd:b6:ab:22:19:66:d3:3b:41:b5:10:9d:10:ba:
        72:6e:29:24:20:1c:01:99:62:d3:96:e0:e2:fb:0c:42:d7:e1:
        5a:c4:96:4d:54:cd:8f:ca:43:53:fd:2a:b8:ea:f8:65:ca:01:
        c2:ad:60:68:06:9f:39:1a:51:d9:e0:8d:26:f9:0b:4e:a5:53:
        25:7a:23:a4:1c:ce:08:1b:df:47:88:b2:ad:3e:e0:27:87:8b:
        49:8c:1f:a9:47:58:7b:96:f2:88:1d:18:ae:b3:d1:a6:0a:94:
        fa:db:d3:e5:38:0a:6b:79:12:33:fb:4a:59:37:16:40:0e:bb:
        de:f5:89:0c:f1:6c:d3:f7:51:6b:5e:35:f5:db:c0:26:ea:12:
        73:4e:a9:91:90:a6:17:c3:6c:2f:38:d4:a3:72:94:43:2c:62:
        e1:4e:5c:32:3d:bd:4c:7d:19:47:a2:c3:49:e7:96:3f:8f:9a:
        d3:3b:e4:11:d8:8b:03:dc:f6:b6:60:55:18:a6:81:51:f3:e1:
        a8:15:6a:eb:e0:0b:f0:14:31:d6:b9:8c:45:3a:a8:10:d8:f0:
        b9:27:eb:f7:cb:7a:ef:05:72:96:b5:c4:8f:96:73:c4:e8:56:
        73:9c:bc:69:51:63:bc:ef:67:1c:43:1a:5f:77:19:1f:18:f8:
        1c:25:29:f9:49:99:29:b6:92:3d:a2:83:37:b1:20:91:a8:9b:
        30:e9:6a:6c:b4:23:93:65:04:ab:11:f3:0e:1d:53:24:49:53:
        1d:a1:3f:9d:48:92:11:e2:7d:0d:4f:f5:d7:bd:a2:58:3e:78:
        9d:1e:1f:2b:fe:21:bb:1a:13:b6:b1:28:64:fd:b0:02:00:c7:
        6c:80:a2:bd:16:50:20:0f:72:81:5f:cc:94:ff:bb:99:e6:ba:
        90:cb:ea:f9:c6:0c:c2:ae:c5:19:ce:33:a1:6b:5c:bb:7e:7c:
        34:57:17:ad:f0:3f:ae:cd:ea:af:99:ec:2c:54:7e:8c:ce:2e:
        12:56:48:ef:17:3b:3f:4a:5e:60:d2:dc:74:36:bc:a5:43:63:
        cb:0f:5b:a3:02:56:09:9e:24:2c:e1:86:81:8c:fe:ab:17:2c:
        fa:c8:e2:32:1a:3a:ff:85:08:c9:83:9f:f2:4a:48:10:54:77:
        37:ed:a2:bc:40:be:e4:10:74:f7:e4:5b:bb:b9:f3:89:f9:8f:
        41:d8:c7:e4:50:90:35:80:3e:1c:b8:4d:90:d3:d4:f7:c3:b0:
        a1:7e:84:ca:77:92:31:2c:b8:90:b1:82:7a:74:4e:9b:13:26:
        b4:d5:50:66:54:78:ae:60
SHA1 Fingerprint=EC:2C:83:40:72:AF:26:95:10:FF:0E:F2:03:EE:31:70:F6:78:9D:CA
-----BEGIN CERTIFICATE-----
MIIFiTCCA3GgAwIBAgIQb77arXO9CEDii02+1PdbkTANBgkqhkiG9w0BAQsFADBO
MQswCQYDVQQGEwJVUzEYMBYGA1UECgwPU1NMIENvcnBvcmF0aW9uMSUwIwYDVQQD
DBxTU0wuY29tIFRMUyBSU0EgUm9vdCBDQSAyMDIyMB4XDTIyMDgyNTE2MzQyMloX
DTQ2MDgxOTE2MzQyMVowTjELMAkGA1UEBhMCVVMxGDAWBgNVBAoMD1NTTCBDb3Jw
b3JhdGlvbjElMCMGA1UEAwwcU1NMLmNvbSBUTFMgUlNBIFJvb3QgQ0EgMjAyMjCC
AiIwDQYJKoZIhvcNAQEBBQADggIPADCCAgoCggIBANCkCXJPQIgSYT41I57u9nTP
L3tYPc48DRAokC+X94xI2KDYJbFMsBFMF3NQ0CJKY7uB0ylu1bUJPiYYf7ISf5OY
t6/wNr/y7hienDtSxUcZXXTzZGbVXcdotL8bHAajvI9AI7YexoS9UcQbOcGV0ins
S657Lb85/bRi3pZ7QcacoOAGcvvwB5cJOYF0r/c0WRFXCsJbwST0MXMwgsadugL3
PnxEX4MN8/HdIGkWCVDi1FW24IBydm5MR7d1VVm0U3TZlMZBrViKMWYPHqIbKUBO
L9975hYsLfy/7PO0+r4Y9ptJ1O4Fbtk085zx7AGL0SDGD6C1vBdOSHtRwvzpXGk3
R2azaPgVKPC506QVzFpPulJwoxJF3ca6TvvC0PeoUidtbnm1jPx7jMEWTO6Af77w
dr5BUxIzrlo4QqvXDz5BjXYHMtWrifZOZ9mxQnUjbvPNQrL8VfVThxc7wDNY8VLS
+YCk8OjwO4s4zKTGkH8PnP2L0aPP2oOnaclQNtVcBdIKQXTbYxE3waWglksejBYS
d66UNHsef8JmAOSqg+qKkK3ONkRN0VHpvB/zagX9wHQfJRlAUW7qglFA35u5CCoG
AtUjHBPW6dvbxrB6y3snm/vg1UYk7RBLY0ulBY+6uB0rpvqR4pJSvezrZ5dtmi2f
gTIFZzL7SAg/2SW4BCUvAgMBAAGjYzBhMA8GA1UdEwEB/wQFMAMBAf8wHwYDVR0j
BBgwFoAU+y437uOEeicuzRk1sTN8/9REQrkwHQYDVR0OBBYEFPsuN+7jhHonLs0Z
NbEzfP/UREK5MA4GA1UdDwEB/wQEAwIBhjANBgkqhkiG9w0BAQsFAAOCAgEAjYlt
hEUY8U+zoO9opMAdrDC8Z2awms22qyIZZtM7QbUQnRC6cm4pJCAcAZli05bg4vsM
QtfhWsSWTVTNj8pDU/0quOr4ZcoBwq1gaAafORpR2eCNJvkLTqVTJXojpBzOCBvf
R4iyrT7gJ4eLSYwfqUdYe5byiB0YrrPRpgqU+tvT5TgKa3kSM/tKWTcWQA673vWJ
DPFs0/dRa1419dvAJuoSc06pkZCmF8NsLzjUo3KUQyxi4U5cMj29TH0ZR6LDSeeW
P4+a0zvkEdiLA9z2tmBVGKaBUfPhqBVq6+AL8BQx1rmMRTqoENjwuSfr98t67wVy
lrXEj5ZzxOhWc5y8aVFjvO9nHEMaX3cZHxj4HCUp+UmZKbaSPaKDN7EgkaibMOlq
bLQjk2UEqxHzDh1TJElTHaE/nUiSEeJ9DU/1172iWD54nR4fK/4huxoTtrEoZP2w
AgDHbICivRZQIA9ygV/MlP+7mea6kMvq+cYMwq7FGc4zoWtcu358NFcXrfA/rs3q
r5nsLFR+jM4uElZI7xc7P0peYNLcdDa8pUNjyw9bowJWCZ4kLOGGgYz+qxcs+sji
Mho6/4UIyYOf8kpIEFR3N+2ivEC+5BB09+Rbu7nzifmPQdjH5FCQNYA+HLhNkNPU
98OwoX6EyneSMSy4kLGCenROmxMmtNVQZlR4rmA=
-----END CERTIFICATE-----
