##
##  SSL.com TLS ECC Root CA 2022
##
##  This is a single X.509 certificate for a public Certificate
##  Authority (CA). It was automatically extracted from Mozilla's
##  root CA list (the file `certdata.txt' in security/nss).
##
##  It contains a certificate trusted for server authentication.
##
##  Extracted from nss
##
##  @generated
##
Certificate:
    Data:
        Version: 3 (0x2)
        Serial Number:
            14:03:f5:ab:fb:37:8b:17:40:5b:e2:43:b2:a5:d1:c4
        Signature Algorithm: ecdsa-with-SHA384
        Issuer: C = US, O = SSL Corporation, CN = SSL.com TLS ECC Root CA 2022
        Validity
            Not Before: Aug 25 16:33:48 2022 GMT
            Not After : Aug 19 16:33:47 2046 GMT
        Subject: C = US, O = SSL Corporation, CN = SSL.com TLS ECC Root CA 2022
        Subject Public Key Info:
            Public Key Algorithm: id-ecPublicKey
                Public-Key: (384 bit)
                pub:
                    04:45:29:35:73:fa:c2:b8:23:ce:14:7d:a8:b1:4d:
                    a0:5b:36:ee:2a:2c:53:c3:60:09:35:b2:24:66:26:
                    69:c0:b3:95:d6:5d:92:40:19:0e:c6:a5:13:70:f4:
                    ef:12:51:28:5d:e7:cc:bd:f9:3c:85:c1:cf:94:90:
                    c9:2b:ce:92:42:58:59:67:fd:94:27:10:64:8c:4f:
                    04:b1:4d:49:e4:7b:4f:9b:f5:e7:08:f8:03:88:f7:
                    a7:c3:92:4b:19:54:81
                ASN1 OID: secp384r1
                NIST CURVE: P-384
        X509v3 extensions:
            X509v3 Basic Constraints: critical
                CA:TRUE
            X509v3 Authority Key Identifier: 
                89:8F:2F:A3:E8:2B:A0:14:54:7B:F3:56:B8:26:5F:67:38:0B:9C:D0
            X509v3 Subject Key Identifier: 
                89:8F:2F:A3:E8:2B:A0:14:54:7B:F3:56:B8:26:5F:67:38:0B:9C:D0
            X509v3 Key Usage: critical
                Digital Signature, Certificate Sign, CRL Sign
    Signature Algorithm: ecdsa-with-SHA384
    Signature Value:
        30:65:02:30:55:e3:22:56:e9:d7:92:24:58:4f:1e:94:32:0f:
        0c:02:36:c2:fd:ac:74:32:4e:e1:fb:1c:80:88:a3:cc:fb:d7:
        eb:2b:ff:37:7d:f0:ed:d7:9e:75:6a:35:76:52:45:e0:02:31:
        00:c7:8d:6f:42:20:8f:be:b6:4d:59:ed:77:4d:29:c4:20:20:
        45:64:86:3a:50:c6:c4:ad:2d:93:f5:18:7d:72:ed:a9:cf:c4:
        ac:57:36:28:08:65:df:3c:79:66:7e:a0:ea
SHA1 Fingerprint=9F:5F:D9:1A:54:6D:F5:0C:71:F0:EE:7A:BD:17:49:98:84:73:E2:39
-----BEGIN CERTIFICATE-----
MIICOjCCAcCgAwIBAgIQFAP1q/s3ixdAW+JDsqXRxDAKBggqhkjOPQQDAzBOMQsw
CQYDVQQGEwJVUzEYMBYGA1UECgwPU1NMIENvcnBvcmF0aW9uMSUwIwYDVQQDDBxT
U0wuY29tIFRMUyBFQ0MgUm9vdCBDQSAyMDIyMB4XDTIyMDgyNTE2MzM0OFoXDTQ2
MDgxOTE2MzM0N1owTjELMAkGA1UEBhMCVVMxGDAWBgNVBAoMD1NTTCBDb3Jwb3Jh
dGlvbjElMCMGA1UEAwwcU1NMLmNvbSBUTFMgRUNDIFJvb3QgQ0EgMjAyMjB2MBAG
ByqGSM49AgEGBSuBBAAiA2IABEUpNXP6wrgjzhR9qLFNoFs27iosU8NgCTWyJGYm
acCzldZdkkAZDsalE3D07xJRKF3nzL35PIXBz5SQySvOkkJYWWf9lCcQZIxPBLFN
SeR7T5v15wj4A4j3p8OSSxlUgaNjMGEwDwYDVR0TAQH/BAUwAwEB/zAfBgNVHSME
GDAWgBSJjy+j6CugFFR781a4Jl9nOAuc0DAdBgNVHQ4EFgQUiY8vo+groBRUe/NW
uCZfZzgLnNAwDgYDVR0PAQH/BAQDAgGGMAoGCCqGSM49BAMDA2gAMGUCMFXjIlbp
15IkWE8elDIPDAI2wv2sdDJO4fscgIijzPvX6yv/N33w7deedWo1dlJF4AIxAMeN
b0Igj762TVntd00pxCAgRWSGOlDGxK0tk/UYfXLtqc/ErFc2KAhl3zx5Zn6g6g==
-----END CERTIFICATE-----
