##
##  SwissSign RSA TLS Root CA 2022 - 1
##
##  This is a single X.509 certificate for a public Certificate
##  Authority (CA). It was automatically extracted from Mozilla's
##  root CA list (the file `certdata.txt' in security/nss)
##  licensed under the MPL 2.0, http://mozilla.org/MPL/2.0/.
##
##  @generated
##
Certificate:
    Data:
        Version: 3 (0x2)
        Serial Number:
            43:fa:0c:5f:4e:1b:80:18:44:ef:d1:b4:4f:35:1f:44:f4:80:ed:cb
        Signature Algorithm: sha256WithRSAEncryption
        Issuer: C=CH, O=SwissSign AG, CN=SwissSign RSA TLS Root CA 2022 - 1
        Validity
            Not Before: Jun  8 11:08:22 2022 GMT
            Not After : Jun  8 11:08:22 2047 GMT
        Subject: C=CH, O=SwissSign AG, CN=SwissSign RSA TLS Root CA 2022 - 1
        Subject Public Key Info:
            Public Key Algorithm: rsaEncryption
                Public-Key: (4096 bit)
                Modulus:
                    00:cb:2a:68:e2:0b:c3:57:bc:35:63:bc:70:a5:3b:
                    f3:8c:3c:4e:57:96:6e:c3:4e:36:a4:f6:02:ca:1e:
                    aa:ae:b8:de:a8:af:1d:76:da:ba:35:d0:91:70:07:
                    df:b3:06:f2:8a:f2:2e:55:51:7b:bb:2c:24:cb:7f:
                    92:26:80:a3:b4:94:f6:82:a1:a4:e8:fa:75:1d:59:
                    f3:07:6a:61:64:e2:c6:8c:95:af:a3:bb:8e:6f:56:
                    cf:71:cc:5e:81:61:0d:6d:f2:ab:02:2e:a4:97:e5:
                    71:fc:8a:b0:91:20:5b:9c:74:52:6d:ae:15:27:59:
                    78:f2:09:ca:65:0e:7f:cb:f4:eb:e7:dc:a9:4c:77:
                    f6:2b:16:04:95:ae:9c:71:a5:3f:2a:da:41:42:e7:
                    3c:84:10:f4:e1:3d:8c:6b:e2:2b:91:47:55:4f:b8:
                    56:be:45:de:22:51:4d:4e:28:d9:5f:19:41:06:8f:
                    0e:4d:06:e0:70:40:23:01:6a:e4:cb:13:9b:73:ac:
                    4d:14:48:92:2d:fe:6d:a7:f8:87:6b:79:75:e1:be:
                    10:b1:aa:88:40:59:54:d7:cf:c4:d0:9b:44:b3:38:
                    69:64:8c:81:d1:23:7e:aa:39:3c:3b:0f:9f:4a:7b:
                    82:ca:6b:6f:ca:22:3e:31:d0:b0:d0:2a:1c:92:8a:
                    8f:d8:19:9c:47:e4:3e:0c:b9:c2:cd:be:41:0c:f8:
                    a4:47:05:db:c1:17:30:38:3a:69:dc:cd:c3:69:23:
                    fd:9a:0f:02:ce:10:6a:ce:ca:f8:b9:29:a3:36:89:
                    86:ae:0b:c0:4f:63:b9:06:59:49:5e:0e:c1:69:b3:
                    0a:f3:77:7e:2e:9d:8c:b3:27:98:d2:99:8d:25:a7:
                    1f:86:b3:a6:54:70:38:fc:7d:5d:e8:4f:83:0c:d1:
                    93:e5:12:e4:54:da:3e:f2:ad:3a:de:3e:3c:45:f0:
                    28:0f:06:b9:e1:db:97:7b:99:45:9e:dd:fe:95:59:
                    04:2f:75:3f:d3:ae:89:99:86:ac:14:b4:a8:84:fa:
                    c8:5d:3b:1b:58:93:c1:17:94:55:c8:0b:e3:82:79:
                    84:9f:f3:00:84:34:ee:dc:31:d5:8f:f2:fa:4f:96:
                    4c:06:aa:78:fb:de:64:a2:23:cd:1f:3e:c5:8c:bc:
                    37:54:0e:bb:5a:72:55:ef:c8:5b:b5:72:f8:78:df:
                    37:20:4c:57:91:73:92:73:ac:18:77:43:82:20:69:
                    ec:e9:ac:29:46:e5:0b:4e:f8:37:73:89:96:8a:1c:
                    6d:bd:ef:be:d8:b6:f4:ca:c0:fd:47:f0:ae:0b:58:
                    20:c5:c8:1d:36:ae:97:8d:50:83:26:24:29:f7:9d:
                    3b:0f:05
                Exponent: 65537 (0x10001)
        X509v3 extensions:
            X509v3 Basic Constraints: critical
                CA:TRUE
            X509v3 Key Usage: critical
                Certificate Sign, CRL Sign
            X509v3 Authority Key Identifier: 
                6F:8E:62:8B:93:43:B0:E1:40:F6:A7:C3:FD:F1:0F:B8:0F:15:38:A5
            X509v3 Subject Key Identifier: 
                6F:8E:62:8B:93:43:B0:E1:40:F6:A7:C3:FD:F1:0F:B8:0F:15:38:A5
    Signature Algorithm: sha256WithRSAEncryption
    Signature Value:
        ac:2c:29:41:7d:fa:5c:f5:1a:95:18:bf:2c:a9:8a:a9:24:54:
        75:f5:b8:40:ab:cb:a8:24:51:2b:18:3f:63:a9:ae:98:56:2b:
        05:43:22:a3:b7:d7:46:9e:c0:2a:12:3d:8e:96:96:40:df:0c:
        33:8b:6b:37:91:3a:95:bb:39:29:6d:c0:02:6c:8a:94:0b:07:
        02:4d:18:3e:fb:fb:7b:f5:76:3d:9b:f6:5e:30:06:58:33:1e:
        aa:78:d5:e6:54:04:3a:b2:82:09:8d:ce:16:33:59:45:28:f1:
        a5:a3:97:0e:43:23:fd:0b:20:80:90:ff:e3:26:cf:b8:64:91:
        e5:05:8f:13:a0:76:0d:d7:37:0c:10:88:96:f4:3e:be:95:bd:
        f1:c3:7d:f0:a3:c3:79:47:0b:5c:92:15:63:ed:52:75:8a:e7:
        46:69:cb:51:55:0b:2a:4c:f5:f2:64:4f:a9:5c:ff:67:32:8e:
        55:2d:32:82:1c:80:2f:6a:91:f8:cb:bc:7e:18:a2:26:a8:2e:
        a3:53:28:87:ed:57:e5:65:7a:4e:00:4a:5b:4e:53:c9:62:36:
        bd:c2:8e:5b:eb:cc:6e:27:81:18:59:8b:44:63:9f:d5:0c:65:
        f4:29:65:7f:91:2c:e5:7f:7e:e8:89:cf:8f:20:cb:6d:07:42:
        11:51:26:32:8a:2e:3a:47:13:b8:8d:bd:47:0d:09:f0:16:a4:
        ed:96:86:2e:19:d8:be:8c:3a:e8:45:2e:11:ba:ae:5a:e7:b9:
        bf:b1:cc:8f:e0:a0:ff:b8:b3:d1:85:7b:79:66:a3:39:b5:3b:
        66:d8:40:be:cf:b7:67:8b:48:c9:19:25:55:fc:bd:8d:cf:5e:
        da:4e:a6:f2:69:ce:fd:7f:4c:77:d0:c1:46:35:98:5c:23:9b:
        02:45:43:94:5a:dd:bc:47:ad:22:fe:ba:5e:2f:91:29:29:86:
        7b:21:de:6e:64:b7:cb:0d:8f:37:5b:a3:08:6a:eb:f4:dd:02:
        8f:50:03:02:b1:b8:37:68:96:50:eb:b8:5f:d4:28:8a:a5:22:
        0c:8a:84:f0:59:2e:d5:37:d1:61:e5:42:73:58:2a:81:f7:76:
        db:e2:e2:4d:0d:5f:f6:b7:be:05:b4:ae:4e:0d:de:16:3d:03:
        81:b3:26:5e:4b:b8:4b:00:cf:ff:8c:17:ba:6c:60:2d:27:87:
        37:24:e6:7a:60:2f:b5:d3:83:04:aa:4f:43:75:a2:c1:83:b2:
        27:98:2b:b1:0e:80:ba:c0:85:5e:42:b9:df:b1:60:91:d3:eb:
        18:7e:70:78:ae:76:83:be:71:5a:d0:90:e3:ca:c1:16:25:67:
        4a:f0:b6:7b:ba:e1:9c:d9
SHA1 Fingerprint=81:34:0A:BE:4C:CD:CE:CC:E7:7D:CC:8A:D4:57:E2:45:A0:77:5D:CE
-----BEGIN CERTIFICATE-----
MIIFkzCCA3ugAwIBAgIUQ/oMX04bgBhE79G0TzUfRPSA7cswDQYJKoZIhvcNAQEL
BQAwUTELMAkGA1UEBhMCQ0gxFTATBgNVBAoTDFN3aXNzU2lnbiBBRzErMCkGA1UE
AxMiU3dpc3NTaWduIFJTQSBUTFMgUm9vdCBDQSAyMDIyIC0gMTAeFw0yMjA2MDgx
MTA4MjJaFw00NzA2MDgxMTA4MjJaMFExCzAJBgNVBAYTAkNIMRUwEwYDVQQKEwxT
d2lzc1NpZ24gQUcxKzApBgNVBAMTIlN3aXNzU2lnbiBSU0EgVExTIFJvb3QgQ0Eg
MjAyMiAtIDEwggIiMA0GCSqGSIb3DQEBAQUAA4ICDwAwggIKAoICAQDLKmjiC8NX
vDVjvHClO/OMPE5Xlm7DTjak9gLKHqquuN6orx122ro10JFwB9+zBvKK8i5VUXu7
LCTLf5ImgKO0lPaCoaTo+nUdWfMHamFk4saMla+ju45vVs9xzF6BYQ1t8qsCLqSX
5XH8irCRIFucdFJtrhUnWXjyCcplDn/L9Ovn3KlMd/YrFgSVrpxxpT8q2kFC5zyE
EPThPYxr4iuRR1VPuFa+Rd4iUU1OKNlfGUEGjw5NBuBwQCMBauTLE5tzrE0USJIt
/m2n+IdreXXhvhCxqohAWVTXz8TQm0SzOGlkjIHRI36qOTw7D59Ke4LKa2/KIj4x
0LDQKhySio/YGZxH5D4MucLNvkEM+KRHBdvBFzA4OmnczcNpI/2aDwLOEGrOyvi5
KaM2iYauC8BPY7kGWUleDsFpswrzd34unYyzJ5jSmY0lpx+Gs6ZUcDj8fV3oT4MM
0ZPlEuRU2j7yrTrePjxF8CgPBrnh25d7mUWe3f6VWQQvdT/TromZhqwUtKiE+shd
OxtYk8EXlFXIC+OCeYSf8wCENO7cMdWP8vpPlkwGqnj73mSiI80fPsWMvDdUDrta
clXvyFu1cvh43zcgTFeRc5JzrBh3Q4IgaezprClG5QtO+DdziZaKHG29777YtvTK
wP1H8K4LWCDFyB02rpeNUIMmJCn3nTsPBQIDAQABo2MwYTAPBgNVHRMBAf8EBTAD
AQH/MA4GA1UdDwEB/wQEAwIBBjAfBgNVHSMEGDAWgBRvjmKLk0Ow4UD2p8P98Q+4
DxU4pTAdBgNVHQ4EFgQUb45ii5NDsOFA9qfD/fEPuA8VOKUwDQYJKoZIhvcNAQEL
BQADggIBAKwsKUF9+lz1GpUYvyypiqkkVHX1uECry6gkUSsYP2OprphWKwVDIqO3
10aewCoSPY6WlkDfDDOLazeROpW7OSltwAJsipQLBwJNGD77+3v1dj2b9l4wBlgz
Hqp41eZUBDqyggmNzhYzWUUo8aWjlw5DI/0LIICQ/+Mmz7hkkeUFjxOgdg3XNwwQ
iJb0Pr6VvfHDffCjw3lHC1ySFWPtUnWK50Zpy1FVCypM9fJkT6lc/2cyjlUtMoIc
gC9qkfjLvH4YoiaoLqNTKIftV+Vlek4ASltOU8liNr3CjlvrzG4ngRhZi0Rjn9UM
ZfQpZX+RLOV/fuiJz48gy20HQhFRJjKKLjpHE7iNvUcNCfAWpO2Whi4Z2L6MOuhF
LhG6rlrnub+xzI/goP+4s9GFe3lmozm1O2bYQL7Pt2eLSMkZJVX8vY3PXtpOpvJp
zv1/THfQwUY1mFwjmwJFQ5Ra3bxHrSL+ul4vkSkphnsh3m5kt8sNjzdbowhq6/Td
Ao9QAwKxuDdollDruF/UKIqlIgyKhPBZLtU30WHlQnNYKoH3dtvi4k0NX/a3vgW0
rk4N3hY9A4GzJl5LuEsAz/+MF7psYC0nhzck5npgL7XTgwSqT0N1osGDsieYK7EO
gLrAhV5Cud+xYJHT6xh+cHiudoO+cVrQkOPKwRYlZ0rwtnu64ZzZ
-----END CERTIFICATE-----
