##
##  Symantec Class 1 Public Primary Certification Authority - G6
##
##  This is a single X.509 certificate for a public Certificate
##  Authority (CA). It was automatically extracted from Mozilla's
##  root CA list (the file `certdata.txt' in security/nss).
##
##  Extracted from nss
##  with $FreeBSD$
##
##  @generated
##
Certificate:
    Data:
        Version: 3 (0x2)
        Serial Number:
            24:32:75:f2:1d:2f:d2:09:33:f7:b4:6a:ca:d0:f3:98
        Signature Algorithm: sha256WithRSAEncryption
        Issuer: C = US, O = Symantec Corporation, OU = Symantec Trust Network, CN = Symantec Class 1 Public Primary Certification Authority - G6
        Validity
            Not Before: Oct 18 00:00:00 2011 GMT
            Not After : Dec  1 23:59:59 2037 GMT
        Subject: C = US, O = Symantec Corporation, OU = Symantec Trust Network, CN = Symantec Class 1 Public Primary Certification Authority - G6
        Subject Public Key Info:
            Public Key Algorithm: rsaEncryption
                RSA Public-Key: (2048 bit)
                Modulus:
                    00:c7:39:d7:49:64:a9:99:82:22:4c:ea:45:d9:07:
                    16:e3:7b:f4:83:e8:99:73:fa:6b:b1:36:e0:9a:77:
                    a0:40:c2:81:8d:01:c7:cc:8c:bd:8f:7d:f7:79:e3:
                    7a:4c:03:4d:d9:fb:fd:87:38:28:2c:dd:9a:8b:54:
                    08:db:67:fb:1b:8c:fe:28:92:2f:be:b7:b2:48:a7:
                    81:a1:d8:5e:88:c3:cc:39:40:41:5a:d1:dc:e5:da:
                    10:9f:2f:da:01:4d:fd:2e:46:7c:f9:2e:27:0a:69:
                    37:ee:91:a3:1b:6a:cc:44:bf:1b:c7:c3:d4:11:b2:
                    50:60:97:09:bd:2e:22:f5:41:84:66:9f:cd:40:a6:
                    a9:00:80:c1:1f:95:92:9f:de:f3:48:ef:db:1d:77:
                    61:fc:7f:df:ee:96:a4:72:d0:b6:3e:ff:78:27:af:
                    cb:92:15:69:08:db:63:10:e2:e6:97:ac:6e:dc:ac:
                    f6:a2:ce:1e:47:99:b9:89:b7:12:e6:a1:d4:cd:59:
                    11:67:c3:6f:85:d8:42:4e:28:be:59:55:59:04:95:
                    ab:8f:37:80:bf:0d:f0:fc:1f:3a:64:31:58:81:78:
                    d7:e2:35:f6:20:3f:29:b8:8f:16:6e:3e:48:dc:b5:
                    4c:07:e1:f2:1a:ea:7e:0a:79:d6:a8:bd:eb:5d:86:
                    2b:4d
                Exponent: 65537 (0x10001)
        X509v3 extensions:
            X509v3 Key Usage: critical
                Certificate Sign, CRL Sign
            X509v3 Basic Constraints: critical
                CA:TRUE
            X509v3 Subject Key Identifier: 
                33:41:E8:C8:39:12:15:93:48:F2:96:32:2E:5A:F5:DA:94:5F:53:60
    Signature Algorithm: sha256WithRSAEncryption
         15:e3:73:57:b1:17:b6:5f:49:69:44:a6:f6:5e:7a:67:ac:d2:
         de:75:49:ab:fe:25:55:c7:3a:c9:44:15:10:6e:bf:31:6b:cb:
         d9:07:93:7f:1c:85:63:00:e3:32:12:e0:cc:cb:fb:39:6c:8f:
         e2:53:e2:3c:40:33:d9:a4:8c:47:e6:ad:58:fb:89:af:e3:de:
         86:29:56:34:2c:45:b8:12:fa:44:89:6e:2d:14:25:28:24:01:
         65:d6:ea:52:ac:05:6e:56:12:09:3d:d0:74:f4:d7:bd:06:ca:
         a8:3a:8d:56:42:fa:8d:72:3e:74:f1:03:72:df:87:1b:5e:0e:
         7a:55:96:2c:38:b7:98:85:cd:4d:33:44:c9:94:8f:5a:31:30:
         37:4b:a3:3a:12:b3:e7:36:d1:21:68:4b:2d:38:e6:53:ae:1c:
         25:56:08:56:03:67:84:9d:c6:c3:ce:24:62:c7:4c:36:cf:b0:
         06:44:b7:f5:5f:02:dd:d9:54:e9:2f:90:4e:7a:c8:4e:83:40:
         0c:9a:97:3c:37:bf:bf:ec:f6:f0:b4:85:77:28:c1:0b:c8:67:
         82:10:17:38:a2:b7:06:ea:9b:bf:3a:f8:e9:23:07:bf:74:e0:
         98:38:15:55:78:ee:72:00:5c:19:a3:f4:d2:33:e0:ff:bd:d1:
         54:39:29:0f
SHA1 Fingerprint=51:7F:61:1E:29:91:6B:53:82:FB:72:E7:44:D9:8D:C3:CC:53:6D:64
-----BEGIN CERTIFICATE-----
MIID9jCCAt6gAwIBAgIQJDJ18h0v0gkz97RqytDzmDANBgkqhkiG9w0BAQsFADCB
lDELMAkGA1UEBhMCVVMxHTAbBgNVBAoTFFN5bWFudGVjIENvcnBvcmF0aW9uMR8w
HQYDVQQLExZTeW1hbnRlYyBUcnVzdCBOZXR3b3JrMUUwQwYDVQQDEzxTeW1hbnRl
YyBDbGFzcyAxIFB1YmxpYyBQcmltYXJ5IENlcnRpZmljYXRpb24gQXV0aG9yaXR5
IC0gRzYwHhcNMTExMDE4MDAwMDAwWhcNMzcxMjAxMjM1OTU5WjCBlDELMAkGA1UE
BhMCVVMxHTAbBgNVBAoTFFN5bWFudGVjIENvcnBvcmF0aW9uMR8wHQYDVQQLExZT
eW1hbnRlYyBUcnVzdCBOZXR3b3JrMUUwQwYDVQQDEzxTeW1hbnRlYyBDbGFzcyAx
IFB1YmxpYyBQcmltYXJ5IENlcnRpZmljYXRpb24gQXV0aG9yaXR5IC0gRzYwggEi
MA0GCSqGSIb3DQEBAQUAA4IBDwAwggEKAoIBAQDHOddJZKmZgiJM6kXZBxbje/SD
6Jlz+muxNuCad6BAwoGNAcfMjL2Pffd543pMA03Z+/2HOCgs3ZqLVAjbZ/sbjP4o
ki++t7JIp4Gh2F6Iw8w5QEFa0dzl2hCfL9oBTf0uRnz5LicKaTfukaMbasxEvxvH
w9QRslBglwm9LiL1QYRmn81ApqkAgMEflZKf3vNI79sdd2H8f9/ulqRy0LY+/3gn
r8uSFWkI22MQ4uaXrG7crPaizh5HmbmJtxLmodTNWRFnw2+F2EJOKL5ZVVkElauP
N4C/DfD8HzpkMViBeNfiNfYgPym4jxZuPkjctUwH4fIa6n4KedaovetdhitNAgMB
AAGjQjBAMA4GA1UdDwEB/wQEAwIBBjAPBgNVHRMBAf8EBTADAQH/MB0GA1UdDgQW
BBQzQejIORIVk0jyljIuWvXalF9TYDANBgkqhkiG9w0BAQsFAAOCAQEAFeNzV7EX
tl9JaUSm9l56Z6zS3nVJq/4lVcc6yUQVEG6/MWvL2QeTfxyFYwDjMhLgzMv7OWyP
4lPiPEAz2aSMR+atWPuJr+PehilWNCxFuBL6RIluLRQlKCQBZdbqUqwFblYSCT3Q
dPTXvQbKqDqNVkL6jXI+dPEDct+HG14OelWWLDi3mIXNTTNEyZSPWjEwN0ujOhKz
5zbRIWhLLTjmU64cJVYIVgNnhJ3Gw84kYsdMNs+wBkS39V8C3dlU6S+QTnrIToNA
DJqXPDe/v+z28LSFdyjBC8hnghAXOKK3Buqbvzr46SMHv3TgmDgVVXjucgBcGaP0
0jPg/73RVDkpDw==
-----END CERTIFICATE-----
