##
##  Telekom Security TLS RSA Root 2023
##
##  This is a single X.509 certificate for a public Certificate
##  Authority (CA). It was automatically extracted from Mozilla's
##  root CA list (the file `certdata.txt' in security/nss).
##
##  It contains a certificate trusted for server authentication.
##
##  Extracted from nss
##
##  @generated
##
Certificate:
    Data:
        Version: 3 (0x2)
        Serial Number:
            21:9c:54:2d:e8:f6:ec:71:77:fa:4e:e8:c3:70:57:97
        Signature Algorithm: sha384WithRSAEncryption
        Issuer: C = DE, O = Deutsche Telekom Security GmbH, CN = Telekom Security TLS RSA Root 2023
        Validity
            Not Before: Mar 28 12:16:45 2023 GMT
            Not After : Mar 27 23:59:59 2048 GMT
        Subject: C = DE, O = Deutsche Telekom Security GmbH, CN = Telekom Security TLS RSA Root 2023
        Subject Public Key Info:
            Public Key Algorithm: rsaEncryption
                Public-Key: (4096 bit)
                Modulus:
                    00:ed:35:a1:81:80:f3:cb:4a:69:5b:c2:fb:51:83:
                    ae:26:fd:e1:6e:f3:81:12:7d:71:40:ff:87:75:42:
                    29:21:ed:81:52:2c:df:12:c1:19:84:89:c1:bd:c5:
                    28:d5:d5:4b:6c:44:d6:4c:db:07:96:4a:55:7a:ca:
                    36:82:04:36:a8:a5:fc:27:f6:49:f1:d5:72:9e:91:
                    f9:23:d6:70:7b:bb:f5:9b:c1:ec:93:cf:19:ea:65:
                    7e:88:70:a0:73:fc:f6:ff:b5:56:62:e1:73:6a:34:
                    98:3e:82:b8:ac:95:53:f4:01:a0:27:07:72:a3:00:
                    53:a0:e4:b2:ab:83:38:57:33:25:94:9f:be:48:1d:
                    98:e1:a3:ba:9e:5c:cd:04:71:51:7d:75:78:ab:f3:
                    59:aa:c4:e0:60:be:8f:83:52:b8:75:1a:41:35:ed:
                    bc:f3:3a:63:e9:a9:14:45:d7:e6:52:d1:6e:d2:de:
                    bc:e3:f5:0b:3b:e6:e0:c4:bd:43:64:13:a6:ce:f4:
                    98:37:6c:8a:95:a8:97:c8:47:0f:f0:5e:10:8b:e7:
                    1d:1c:fe:b1:3b:a0:05:33:68:05:41:82:c1:03:2b:
                    01:c8:e7:8f:4d:ab:e8:b5:f6:cd:6b:44:b5:e7:dd:
                    8b:ec:ea:25:b4:00:22:57:4d:b0:b1:b2:31:c1:16:
                    ce:ff:fd:14:84:b7:47:fa:b2:f1:70:de:db:8b:6c:
                    36:58:a4:7c:b3:11:d1:c3:77:7f:5f:b6:25:e0:0d:
                    c5:d2:b3:f9:b8:b8:77:db:37:71:71:47:e3:60:18:
                    4f:24:b6:75:37:78:b9:a3:62:af:bd:c9:72:8e:2f:
                    cc:bb:ae:db:e4:15:52:19:07:33:fb:6a:b7:2d:4b:
                    90:28:82:73:fe:18:8b:35:8d:db:a7:04:6a:be:ea:
                    c1:4d:36:3b:16:36:91:32:ef:b6:40:89:91:43:e0:
                    f2:a2:ab:04:2e:e6:f2:4c:0e:16:34:20:ac:87:c1:
                    2d:7e:c9:66:47:17:14:11:a4:f3:f7:a1:24:89:ab:
                    d8:1a:c8:a1:5c:b1:a3:f7:8c:6d:c8:01:c9:4f:c9:
                    ec:c4:fc:ac:51:33:d1:c8:83:d1:c9:9f:1d:d4:47:
                    34:29:3e:cb:b0:0e:fa:83:0b:28:58:e5:29:dc:3f:
                    7c:a8:9f:c9:b6:0a:bb:a6:e8:46:16:0f:96:e5:7b:
                    e4:6a:7a:48:6d:76:98:05:a5:dc:6d:1e:42:1e:42:
                    da:1a:e0:52:f7:b5:83:c0:1a:7b:78:35:2c:38:f5:
                    1f:fd:49:a3:2e:d2:59:63:bf:80:b0:8c:93:73:cb:
                    35:a6:99:95:22:61:65:03:60:fb:2f:93:4b:fa:9a:
                    9c:80:3b
                Exponent: 65537 (0x10001)
        X509v3 extensions:
            X509v3 Key Usage: critical
                Certificate Sign, CRL Sign
            X509v3 Subject Key Identifier: 
                B6:A7:97:82:3D:74:85:9B:F7:3C:9F:93:9A:95:79:75:52:8C:6D:47
            X509v3 Basic Constraints: critical
                CA:TRUE
            X509v3 Authority Key Identifier: 
                B6:A7:97:82:3D:74:85:9B:F7:3C:9F:93:9A:95:79:75:52:8C:6D:47
    Signature Algorithm: sha384WithRSAEncryption
    Signature Value:
        a8:cc:61:a6:be:75:9e:15:50:a4:6b:fb:a8:70:45:7c:ba:7e:
        b1:5a:fc:5b:23:fa:0a:77:f8:98:71:82:0c:6d:e0:5e:46:aa:
        93:f4:1e:a0:c3:e1:93:db:4b:ad:b2:a6:5d:ab:b0:d4:62:cb:
        5e:bb:66:f5:2d:ee:97:40:3c:62:eb:5e:d6:14:d6:8c:e2:96:
        8b:41:69:93:35:e6:b9:99:6b:62:b4:a1:17:66:34:a6:6b:63:
        c6:b9:4e:f2:22:e9:58:0d:56:41:d1:fa:0c:4a:f0:33:cd:3b:
        bb:6d:21:3a:ae:8e:72:b5:c3:4a:fb:e9:7d:e5:b1:9b:86:ee:
        e2:e0:7d:b4:f7:32:fd:22:84:f1:85:c9:37:79:e9:b5:3f:bf:
        5c:e4:74:b2:8f:11:62:00:dd:18:66:a1:d9:7b:23:5f:f1:8e:
        d5:67:e8:54:da:5b:3a:6b:36:6f:f9:81:b1:33:47:33:77:40:
        f9:52:aa:dd:d4:83:cf:85:78:99:9a:93:b9:73:67:42:46:11:
        21:ea:fe:0a:a9:1b:1a:65:69:b3:8f:ae:16:b6:f6:4b:56:b2:
        2d:f9:a5:c8:ec:3b:62:a3:ed:6b:d0:4e:d5:40:09:a4:1f:98:
        d7:3a:a5:92:59:20:e4:b0:7d:cd:5b:73:68:bd:6d:c4:a2:13:
        0e:67:19:b8:8d:42:7e:6c:0c:9a:6e:a0:24:2d:d5:45:1b:dc:
        c4:02:14:fe:85:5b:65:97:ca:4e:90:50:08:7a:42:35:f9:ea:
        c2:66:d4:f8:01:ae:1e:b4:be:c3:a8:ef:fe:76:9a:a2:a6:1f:
        46:f6:84:ed:fc:db:ce:c4:02:ce:77:48:2c:8c:b2:ec:c3:00:
        a3:ec:2c:55:18:c1:7e:19:ee:e1:2f:f2:ad:83:9b:9e:ab:19:
        df:c6:8a:2f:8c:77:e5:b7:05:ec:3b:c1:ec:be:86:b3:86:bc:
        c0:f7:dc:e7:ea:5b:ae:b2:cc:b5:35:86:4b:d0:e2:3f:b6:d8:
        f8:0e:00:ee:5d:e3:f7:8d:58:ff:cf:8b:37:e9:63:5f:6e:f7:
        09:71:36:c2:12:5d:57:f2:c8:b4:cd:f3:ee:02:df:11:dc:6a:
        b9:57:84:1d:59:4d:8c:ce:c8:0e:23:c2:b7:26:9a:10:14:71:
        fe:93:b2:8a:b8:80:f0:0e:10:9e:d3:a8:50:0c:37:82:2f:ea:
        e0:8a:9d:e1:2c:39:ff:b5:b4:73:00:e4:f7:48:a6:73:ac:bf:
        b2:de:77:04:87:b4:a3:cd:9b:35:24:37:fa:90:93:13:81:42:
        c6:98:26:75:37:66:41:10:ac:bb:f5:94:e3:c2:31:2b:ad:e7:
        23:56:cc:35:25:92:b3:50
SHA1 Fingerprint=54:D3:AC:B3:BD:57:56:F6:85:9D:CE:E5:C3:21:E2:D4:AD:83:D0:93
-----BEGIN CERTIFICATE-----
MIIFszCCA5ugAwIBAgIQIZxULej27HF3+k7ow3BXlzANBgkqhkiG9w0BAQwFADBj
MQswCQYDVQQGEwJERTEnMCUGA1UECgweRGV1dHNjaGUgVGVsZWtvbSBTZWN1cml0
eSBHbWJIMSswKQYDVQQDDCJUZWxla29tIFNlY3VyaXR5IFRMUyBSU0EgUm9vdCAy
MDIzMB4XDTIzMDMyODEyMTY0NVoXDTQ4MDMyNzIzNTk1OVowYzELMAkGA1UEBhMC
REUxJzAlBgNVBAoMHkRldXRzY2hlIFRlbGVrb20gU2VjdXJpdHkgR21iSDErMCkG
A1UEAwwiVGVsZWtvbSBTZWN1cml0eSBUTFMgUlNBIFJvb3QgMjAyMzCCAiIwDQYJ
KoZIhvcNAQEBBQADggIPADCCAgoCggIBAO01oYGA88tKaVvC+1GDrib94W7zgRJ9
cUD/h3VCKSHtgVIs3xLBGYSJwb3FKNXVS2xE1kzbB5ZKVXrKNoIENqil/Cf2SfHV
cp6R+SPWcHu79ZvB7JPPGeplfohwoHP89v+1VmLhc2o0mD6CuKyVU/QBoCcHcqMA
U6DksquDOFczJZSfvkgdmOGjup5czQRxUX11eKvzWarE4GC+j4NSuHUaQTXtvPM6
Y+mpFEXX5lLRbtLevOP1Czvm4MS9Q2QTps70mDdsipWol8hHD/BeEIvnHRz+sTug
BTNoBUGCwQMrAcjnj02r6LX2zWtEtefdi+zqJbQAIldNsLGyMcEWzv/9FIS3R/qy
8XDe24tsNlikfLMR0cN3f1+2JeANxdKz+bi4d9s3cXFH42AYTyS2dTd4uaNir73J
co4vzLuu2+QVUhkHM/tqty1LkCiCc/4YizWN26cEar7qwU02OxY2kTLvtkCJkUPg
8qKrBC7m8kwOFjQgrIfBLX7JZkcXFBGk8/ehJImr2BrIoVyxo/eMbcgByU/J7MT8
rFEz0ciD0cmfHdRHNCk+y7AO+oMLKFjlKdw/fKifybYKu6boRhYPluV75Gp6SG12
mAWl3G0eQh5C2hrgUve1g8Aae3g1LDj1H/1Joy7SWWO/gLCMk3PLNaaZlSJhZQNg
+y+TS/qanIA7AgMBAAGjYzBhMA4GA1UdDwEB/wQEAwIBBjAdBgNVHQ4EFgQUtqeX
gj10hZv3PJ+TmpV5dVKMbUcwDwYDVR0TAQH/BAUwAwEB/zAfBgNVHSMEGDAWgBS2
p5eCPXSFm/c8n5OalXl1UoxtRzANBgkqhkiG9w0BAQwFAAOCAgEAqMxhpr51nhVQ
pGv7qHBFfLp+sVr8WyP6Cnf4mHGCDG3gXkaqk/QeoMPhk9tLrbKmXauw1GLLXrtm
9S3ul0A8Yute1hTWjOKWi0FpkzXmuZlrYrShF2Y0pmtjxrlO8iLpWA1WQdH6DErw
M807u20hOq6OcrXDSvvpfeWxm4bu4uB9tPcy/SKE8YXJN3nptT+/XOR0so8RYgDd
GGah2XsjX/GO1WfoVNpbOms2b/mBsTNHM3dA+VKq3dSDz4V4mZqTuXNnQkYRIer+
CqkbGmVps4+uFrb2S1ayLfmlyOw7YqPta9BO1UAJpB+Y1zqlklkg5LB9zVtzaL1t
xKITDmcZuI1CfmwMmm6gJC3VRRvcxAIU/oVbZZfKTpBQCHpCNfnqwmbU+AGuHrS+
w6jv/naaoqYfRvaE7fzbzsQCzndILIyy7MMAo+wsVRjBfhnu4S/yrYObnqsZ38aK
L4x35bcF7DvB7L6Gs4a8wPfc5+pbrrLMtTWGS9DiP7bY+A4A7l3j941Y/8+LN+lj
X273CXE2whJdV/LItM3z7gLfEdxquVeEHVlNjM7IDiPCtyaaEBRx/pOyiriA8A4Q
ntOoUAw3gi/q4Iqd4Sw5/7W0cwDk90imc6y/st53BIe0o82bNSQ3+pCTE4FCxpgm
dTdmQRCsu/WU48IxK63nI1bMNSWSs1A=
-----END CERTIFICATE-----
