##
##  Telia Root CA v2
##
##  This is a single X.509 certificate for a public Certificate
##  Authority (CA). It was automatically extracted from Mozilla's
##  root CA list (the file `certdata.txt' in security/nss).
##
##  It contains a certificate trusted for server authentication.
##
##  Extracted from nss
##  with $FreeBSD$
##
##  @generated
##
Certificate:
    Data:
        Version: 3 (0x2)
        Serial Number:
            01:67:5f:27:d6:fe:7a:e3:e4:ac:be:09:5b:05:9e
        Signature Algorithm: sha256WithRSAEncryption
        Issuer: C = FI, O = Telia Finland Oyj, CN = Telia Root CA v2
        Validity
            Not Before: Nov 29 11:55:54 2018 GMT
            Not After : Nov 29 11:55:54 2043 GMT
        Subject: C = FI, O = Telia Finland Oyj, CN = Telia Root CA v2
        Subject Public Key Info:
            Public Key Algorithm: rsaEncryption
                RSA Public-Key: (4096 bit)
                Modulus:
                    00:b2:d0:3f:07:bc:e2:7b:d0:6b:99:f8:e2:77:69:
                    e7:ce:9d:a4:03:bc:82:6d:a1:fe:81:65:1f:4c:27:
                    ac:8e:00:ba:16:7b:eb:30:6a:00:c0:b3:74:68:7e:
                    b2:af:c7:d5:62:b3:7a:3f:50:ca:8c:36:44:24:63:
                    d2:36:e9:0c:85:f6:43:76:d5:4c:a1:60:72:67:e2:
                    28:33:a5:cb:31:b8:3a:22:23:34:b8:7d:bd:56:22:
                    40:9d:ea:f4:7b:03:ad:68:fc:b2:81:4f:98:d0:74:
                    ea:8d:e5:7d:cd:63:c3:a3:f6:de:92:c2:58:19:e0:
                    96:bb:c5:c4:a9:3d:a5:74:96:fe:af:f9:89:aa:bd:
                    95:17:54:d8:78:44:f1:0c:77:15:92:e0:98:42:a7:
                    a4:d6:aa:20:92:cd:c1:a0:b3:96:b2:3a:84:42:8d:
                    7d:d5:95:e4:d6:db:e9:62:c4:58:b3:79:c5:8c:d3:
                    35:33:83:9f:75:a1:52:27:61:38:f1:59:3d:8e:50:
                    e0:bd:79:3c:e7:6c:96:fe:5e:d9:02:65:b4:8e:5c:
                    d0:11:34:df:5d:bf:52:a7:81:00:c3:7f:99:45:99:
                    15:d5:17:c8:0a:53:ec:63:f3:99:7d:cc:69:12:86:
                    c2:17:f0:01:9e:bf:84:bc:d1:52:cb:1b:92:66:ce:
                    a4:53:e5:a1:bf:c4:db:09:d6:e6:89:56:2b:c8:e3:
                    7c:de:e3:ff:89:e5:35:6e:28:e8:6c:0b:23:51:a9:
                    25:05:eb:48:f8:dd:b1:ca:fa:6c:08:51:ef:b7:18:
                    6c:44:ca:26:e1:73:c6:89:06:81:e5:8a:ac:b0:e2:
                    29:c6:b9:24:b3:6b:44:11:f4:a5:43:c2:4c:43:e5:
                    70:36:8c:b6:33:57:7a:95:2e:82:a0:f4:5c:10:b3:
                    61:83:f6:02:05:86:2e:7c:2d:6c:dc:03:46:6e:35:
                    93:d5:7a:95:2f:de:20:d8:5b:7e:94:90:04:6a:ba:
                    59:3d:04:05:75:9d:37:a2:0e:2e:3d:eb:c1:a4:52:
                    83:fe:d0:6b:d4:66:8e:dc:c6:e9:12:4e:1d:2a:57:
                    aa:10:bc:7c:5e:82:7d:a6:a6:c9:f2:2d:b9:f5:17:
                    27:ad:d1:0e:89:54:2b:95:fa:c0:ad:1d:98:14:78:
                    33:42:86:0a:a9:73:b5:fb:74:0d:b7:1b:30:19:c4:
                    5a:0e:1c:27:b7:da:18:d0:ff:8a:c8:05:ba:f1:aa:
                    1c:a2:37:b7:e6:48:a4:46:2c:94:ea:a8:76:62:47:
                    8b:10:53:07:48:57:6c:e2:92:4d:b6:ae:05:cb:dc:
                    c1:4a:5e:8f:ac:3d:19:4e:c2:ed:60:75:2b:db:c1:
                    ca:42:d5
                Exponent: 65537 (0x10001)
        X509v3 extensions:
            X509v3 Authority Key Identifier: 
                keyid:72:AC:E4:33:79:AA:45:87:F6:FD:AC:1D:9E:D6:C7:2F:86:D8:24:39

            X509v3 Subject Key Identifier: 
                72:AC:E4:33:79:AA:45:87:F6:FD:AC:1D:9E:D6:C7:2F:86:D8:24:39
            X509v3 Key Usage: critical
                Certificate Sign, CRL Sign
            X509v3 Basic Constraints: critical
                CA:TRUE
    Signature Algorithm: sha256WithRSAEncryption
         a0:3b:59:a7:09:94:3e:36:84:d2:7e:2f:39:a5:96:97:fa:11:
         ad:fc:67:f3:71:09:f2:b2:89:84:67:44:af:b9:ef:ed:96:ec:
         9c:64:db:32:30:6f:67:9a:ac:7e:5f:b2:ab:01:36:7e:81:fa:
         e4:84:5e:d2:ac:36:e0:6b:62:c5:7d:4b:0e:82:6d:d2:76:62:
         d1:fe:97:f8:9f:30:7c:18:f9:b4:52:77:82:1d:76:db:d3:1d:
         a9:f0:c1:9a:00:bd:6d:75:d8:7d:e7:fa:c7:38:a3:9c:70:e8:
         46:79:03:af:2e:74:db:75:f8:6e:53:0c:03:c8:99:1a:89:35:
         19:3c:d3:c9:54:7c:a8:f0:2c:e6:6e:07:79:6f:6a:e1:e6:ea:
         91:82:69:0a:1d:c3:7e:59:a2:9e:6b:46:15:98:5b:d3:af:46:
         1d:62:c8:ce:80:52:49:11:3f:c9:04:12:c3:13:7c:3f:3b:8a:
         96:db:3c:a0:1e:0a:b4:8b:54:b2:24:67:0d:ef:82:cb:be:3c:
         7d:d1:e2:7f:ae:16:d6:56:58:b9:da:20:b1:83:15:a1:ef:8a:
         4d:32:6f:41:2f:13:52:82:94:d7:1a:c1:78:a2:51:dd:2b:70:
         6d:b7:1a:f9:f7:b0:e0:67:97:56:db:7c:61:53:09:03:28:02:
         40:c7:b3:d8:fd:9c:70:6a:c6:28:c3:85:e9:e2:ed:1a:93:a0:
         de:4b:98:a2:84:3e:05:77:01:96:3d:fb:b4:20:0f:9c:72:02:
         7a:12:2f:d5:a3:ba:51:78:af:2a:2b:44:65:4e:b5:fd:0a:e8:
         c1:cd:79:87:61:2b:de:80:57:45:bf:67:f1:9b:91:5e:a5:a4:
         ec:59:48:10:0d:38:c7:b0:fa:c3:44:6d:04:f5:78:50:1c:92:
         96:5b:da:f5:b8:2e:ba:5b:cf:e5:f0:6a:9d:4b:2f:58:73:2d:
         4f:2d:c4:1c:3e:f4:b3:3f:ab:15:0e:3b:19:41:8a:a4:c1:57:
         12:66:71:4c:fa:53:e3:57:eb:62:95:09:9e:54:dd:d1:c2:3c:
         57:3c:bd:38:ad:98:64:b7:b8:03:9a:53:56:60:5d:b3:d8:42:
         1b:5c:4b:12:8a:1c:eb:eb:7d:c6:7a:69:c7:27:7f:a4:f8:8b:
         f2:e4:94:66:87:4b:e9:94:07:09:12:79:8a:b2:eb:74:04:dc:
         ce:f4:44:59:e0:16:ca:c5:2c:58:d7:3c:7b:cf:62:86:6a:50:
         7d:35:36:66:a7:fb:37:e7:28:c7:d8:d0:ad:a5:69:94:8f:e8:
         c1:df:24:f8:1b:07:31:87:81:d8:5d:f6:e8:28:d8:4a:52:80:
         ac:13:ee:50:14:1e:98:c7
SHA1 Fingerprint=B9:99:CD:D1:73:50:8A:C4:47:05:08:9C:8C:88:FB:BE:A0:2B:40:CD
-----BEGIN CERTIFICATE-----
MIIFdDCCA1ygAwIBAgIPAWdfJ9b+euPkrL4JWwWeMA0GCSqGSIb3DQEBCwUAMEQx
CzAJBgNVBAYTAkZJMRowGAYDVQQKDBFUZWxpYSBGaW5sYW5kIE95ajEZMBcGA1UE
AwwQVGVsaWEgUm9vdCBDQSB2MjAeFw0xODExMjkxMTU1NTRaFw00MzExMjkxMTU1
NTRaMEQxCzAJBgNVBAYTAkZJMRowGAYDVQQKDBFUZWxpYSBGaW5sYW5kIE95ajEZ
MBcGA1UEAwwQVGVsaWEgUm9vdCBDQSB2MjCCAiIwDQYJKoZIhvcNAQEBBQADggIP
ADCCAgoCggIBALLQPwe84nvQa5n44ndp586dpAO8gm2h/oFlH0wnrI4AuhZ76zBq
AMCzdGh+sq/H1WKzej9Qyow2RCRj0jbpDIX2Q3bVTKFgcmfiKDOlyzG4OiIjNLh9
vVYiQJ3q9HsDrWj8soFPmNB06o3lfc1jw6P23pLCWBnglrvFxKk9pXSW/q/5iaq9
lRdU2HhE8Qx3FZLgmEKnpNaqIJLNwaCzlrI6hEKNfdWV5Nbb6WLEWLN5xYzTNTOD
n3WhUidhOPFZPY5Q4L15POdslv5e2QJltI5c0BE0312/UqeBAMN/mUWZFdUXyApT
7GPzmX3MaRKGwhfwAZ6/hLzRUssbkmbOpFPlob/E2wnW5olWK8jjfN7j/4nlNW4o
6GwLI1GpJQXrSPjdscr6bAhR77cYbETKJuFzxokGgeWKrLDiKca5JLNrRBH0pUPC
TEPlcDaMtjNXepUugqD0XBCzYYP2AgWGLnwtbNwDRm41k9V6lS/eINhbfpSQBGq6
WT0EBXWdN6IOLj3rwaRSg/7Qa9RmjtzG6RJOHSpXqhC8fF6CfaamyfItufUXJ63R
DolUK5X6wK0dmBR4M0KGCqlztft0DbcbMBnEWg4cJ7faGND/isgFuvGqHKI3t+ZI
pEYslOqodmJHixBTB0hXbOKSTbauBcvcwUpej6w9GU7C7WB1K9vBykLVAgMBAAGj
YzBhMB8GA1UdIwQYMBaAFHKs5DN5qkWH9v2sHZ7Wxy+G2CQ5MB0GA1UdDgQWBBRy
rOQzeapFh/b9rB2e1scvhtgkOTAOBgNVHQ8BAf8EBAMCAQYwDwYDVR0TAQH/BAUw
AwEB/zANBgkqhkiG9w0BAQsFAAOCAgEAoDtZpwmUPjaE0n4vOaWWl/oRrfxn83EJ
8rKJhGdEr7nv7ZbsnGTbMjBvZ5qsfl+yqwE2foH65IRe0qw24GtixX1LDoJt0nZi
0f6X+J8wfBj5tFJ3gh1229MdqfDBmgC9bXXYfef6xzijnHDoRnkDry5023X4blMM
A8iZGok1GTzTyVR8qPAs5m4HeW9q4ebqkYJpCh3DflminmtGFZhb069GHWLIzoBS
SRE/yQQSwxN8PzuKlts8oB4KtItUsiRnDe+Cy748fdHif64W1lZYudogsYMVoe+K
TTJvQS8TUoKU1xrBeKJR3Stwbbca+few4GeXVtt8YVMJAygCQMez2P2ccGrGKMOF
6eLtGpOg3kuYooQ+BXcBlj37tCAPnHICehIv1aO6UXivKitEZU61/Qrowc15h2Er
3oBXRb9n8ZuRXqWk7FlIEA04x7D6w0RtBPV4UBySllva9bguulvP5fBqnUsvWHMt
Ty3EHD70sz+rFQ47GUGKpMFXEmZxTPpT41frYpUJnlTd0cI8Vzy9OK2YZLe4A5pT
VmBds9hCG1xLEooc6+t9xnppxyd/pPiL8uSUZodL6ZQHCRJ5irLrdATczvREWeAW
ysUsWNc8e89ihmpQfTU2Zqf7N+cox9jQraVplI/owd8k+BsHMYeB2F326CjYSlKA
rBPuUBQemMc=
-----END CERTIFICATE-----
