##
##  TrustAsia TLS ECC Root CA
##
##  This is a single X.509 certificate for a public Certificate
##  Authority (CA). It was automatically extracted from Mozilla's
##  root CA list (the file `certdata.txt' in security/nss)
##  licensed under the MPL 2.0, http://mozilla.org/MPL/2.0/.
##
##  @generated
##
Certificate:
    Data:
        Version: 3 (0x2)
        Serial Number:
            36:74:e1:4d:7c:65:13:c9:ac:83:55:25:a0:3e:52:7e:2f:50:68:c7
        Signature Algorithm: ecdsa-with-SHA384
        Issuer: C=CN, O=TrustAsia Technologies, Inc., CN=TrustAsia TLS ECC Root CA
        Validity
            Not Before: May 15 05:41:56 2024 GMT
            Not After : May 15 05:41:55 2044 GMT
        Subject: C=CN, O=TrustAsia Technologies, Inc., CN=TrustAsia TLS ECC Root CA
        Subject Public Key Info:
            Public Key Algorithm: id-ecPublicKey
                Public-Key: (384 bit)
                pub:
                    04:b8:7f:a5:5b:3f:01:3e:7d:f0:88:6d:ae:29:98:
                    e1:9b:5c:53:99:db:f7:08:ff:d5:6a:e0:8e:cb:44:
                    a6:f0:c1:8c:bd:4f:d4:ce:d4:88:53:e8:5e:57:d7:
                    4e:be:2c:3f:f3:12:a7:00:e9:82:e3:2a:5b:32:7c:
                    4b:9b:14:29:9e:f8:2d:83:b5:eb:8e:31:49:3d:26:
                    61:e9:1d:72:8b:89:b6:0a:bb:9c:33:35:0f:da:ec:
                    de:a9:4a:1f:c9:33:b1
                ASN1 OID: secp384r1
                NIST CURVE: P-384
        X509v3 extensions:
            X509v3 Basic Constraints: critical
                CA:TRUE
            X509v3 Subject Key Identifier: 
                2C:85:53:BB:B1:43:CD:32:EA:9E:A3:87:FE:A2:98:A8:A6:93:E9:10
            X509v3 Key Usage: critical
                Certificate Sign, CRL Sign
    Signature Algorithm: ecdsa-with-SHA384
    Signature Value:
        30:65:02:30:54:47:d7:c3:2d:61:86:48:f4:79:5a:55:0d:35:
        2f:5f:0d:f6:67:6c:77:40:1a:46:e7:f8:68:5b:4e:27:1d:b8:
        98:7d:7f:93:bf:08:4d:c4:da:45:30:a1:0f:5e:4a:78:02:31:
        00:a3:91:87:f2:11:33:83:c3:c1:8a:91:3a:4c:2b:50:b1:bd:
        22:94:5d:35:89:73:83:c5:9b:19:fe:b4:a1:e9:d4:a1:66:b6:
        01:a5:36:f9:d8:68:61:28:b7:74:e1:a2:31
SHA1 Fingerprint=B5:EC:39:F3:A1:66:37:AE:C3:05:94:57:E2:BE:11:BE:B7:A1:7F:36
-----BEGIN CERTIFICATE-----
MIICMTCCAbegAwIBAgIUNnThTXxlE8msg1UloD5Sfi9QaMcwCgYIKoZIzj0EAwMw
WDELMAkGA1UEBhMCQ04xJTAjBgNVBAoTHFRydXN0QXNpYSBUZWNobm9sb2dpZXMs
IEluYy4xIjAgBgNVBAMTGVRydXN0QXNpYSBUTFMgRUNDIFJvb3QgQ0EwHhcNMjQw
NTE1MDU0MTU2WhcNNDQwNTE1MDU0MTU1WjBYMQswCQYDVQQGEwJDTjElMCMGA1UE
ChMcVHJ1c3RBc2lhIFRlY2hub2xvZ2llcywgSW5jLjEiMCAGA1UEAxMZVHJ1c3RB
c2lhIFRMUyBFQ0MgUm9vdCBDQTB2MBAGByqGSM49AgEGBSuBBAAiA2IABLh/pVs/
AT598IhtrimY4ZtcU5nb9wj/1WrgjstEpvDBjL1P1M7UiFPoXlfXTr4sP/MSpwDp
guMqWzJ8S5sUKZ74LYO1644xST0mYekdcouJtgq7nDM1D9rs3qlKH8kzsaNCMEAw
DwYDVR0TAQH/BAUwAwEB/zAdBgNVHQ4EFgQULIVTu7FDzTLqnqOH/qKYqKaT6RAw
DgYDVR0PAQH/BAQDAgEGMAoGCCqGSM49BAMDA2gAMGUCMFRH18MtYYZI9HlaVQ01
L18N9mdsd0AaRuf4aFtOJx24mH1/k78ITcTaRTChD15KeAIxAKORh/IRM4PDwYqR
OkwrULG9IpRdNYlzg8WbGf60oenUoWa2AaU2+dhoYSi3dOGiMQ==
-----END CERTIFICATE-----
