##
##  TrustAsia Global Root CA G4
##
##  This is a single X.509 certificate for a public Certificate
##  Authority (CA). It was automatically extracted from Mozilla's
##  root CA list (the file `certdata.txt' in security/nss).
##
##  It contains a certificate trusted for server authentication.
##
##  Extracted from nss
##
##  @generated
##
Certificate:
    Data:
        Version: 3 (0x2)
        Serial Number:
            4f:23:64:b8:8e:97:63:9e:c6:53:81:c1:76:4e:cb:2a:74:15:d6:d7
        Signature Algorithm: ecdsa-with-SHA384
        Issuer: C = CN, O = "TrustAsia Technologies, Inc.", CN = TrustAsia Global Root CA G4
        Validity
            Not Before: May 20 02:10:22 2021 GMT
            Not After : May 19 02:10:22 2046 GMT
        Subject: C = CN, O = "TrustAsia Technologies, Inc.", CN = TrustAsia Global Root CA G4
        Subject Public Key Info:
            Public Key Algorithm: id-ecPublicKey
                Public-Key: (384 bit)
                pub:
                    04:f1:b3:cd:38:e4:25:43:e5:de:19:09:bb:81:79:
                    a2:15:5f:15:63:01:de:c2:ab:dd:b3:a6:1b:67:4b:
                    80:83:af:99:cb:ac:17:db:2b:96:ca:7c:52:55:e2:
                    1a:e1:3d:56:f0:2f:16:08:fa:15:bc:9b:bb:47:e6:
                    3f:ee:a8:e1:4c:8c:f5:d3:36:f9:38:5d:ab:70:9a:
                    47:0d:e2:81:41:06:eb:49:f9:b0:29:dd:33:ec:50:
                    a5:7f:79:29:b8:20:98
                ASN1 OID: secp384r1
                NIST CURVE: P-384
        X509v3 extensions:
            X509v3 Basic Constraints: critical
                CA:TRUE
            X509v3 Authority Key Identifier: 
                A5:BB:4A:97:CE:B3:2B:7F:A4:31:DE:97:83:59:83:A6:6F:71:CB:DE
            X509v3 Subject Key Identifier: 
                A5:BB:4A:97:CE:B3:2B:7F:A4:31:DE:97:83:59:83:A6:6F:71:CB:DE
            X509v3 Key Usage: critical
                Certificate Sign, CRL Sign
    Signature Algorithm: ecdsa-with-SHA384
    Signature Value:
        30:64:02:30:5e:f2:eb:06:cc:49:31:9f:40:00:6d:b7:7e:36:
        f0:4d:11:4f:f3:cb:89:3a:2c:78:91:50:a3:5b:c0:ca:75:26:
        f2:bf:90:5d:0b:82:8c:60:28:9f:c6:70:9a:68:e4:f1:02:30:
        5c:58:0e:56:76:cf:58:c3:d7:10:8c:ba:8e:ae:e3:bc:64:75:
        47:c5:55:90:e3:fd:ba:55:eb:07:c4:53:ab:37:a9:ee:21:b2:
        21:5b:60:8f:3d:32:f1:d5:23:94:d6:58
SHA1 Fingerprint=57:73:A5:61:5D:80:B2:E6:AC:38:82:FC:68:07:31:AC:9F:B5:92:5A
-----BEGIN CERTIFICATE-----
MIICVTCCAdygAwIBAgIUTyNkuI6XY57GU4HBdk7LKnQV1tcwCgYIKoZIzj0EAwMw
WjELMAkGA1UEBhMCQ04xJTAjBgNVBAoMHFRydXN0QXNpYSBUZWNobm9sb2dpZXMs
IEluYy4xJDAiBgNVBAMMG1RydXN0QXNpYSBHbG9iYWwgUm9vdCBDQSBHNDAeFw0y
MTA1MjAwMjEwMjJaFw00NjA1MTkwMjEwMjJaMFoxCzAJBgNVBAYTAkNOMSUwIwYD
VQQKDBxUcnVzdEFzaWEgVGVjaG5vbG9naWVzLCBJbmMuMSQwIgYDVQQDDBtUcnVz
dEFzaWEgR2xvYmFsIFJvb3QgQ0EgRzQwdjAQBgcqhkjOPQIBBgUrgQQAIgNiAATx
s8045CVD5d4ZCbuBeaIVXxVjAd7Cq92zphtnS4CDr5nLrBfbK5bKfFJV4hrhPVbw
LxYI+hW8m7tH5j/uqOFMjPXTNvk4XatwmkcN4oFBButJ+bAp3TPsUKV/eSm4IJij
YzBhMA8GA1UdEwEB/wQFMAMBAf8wHwYDVR0jBBgwFoAUpbtKl86zK3+kMd6Xg1mD
pm9xy94wHQYDVR0OBBYEFKW7SpfOsyt/pDHel4NZg6ZvccveMA4GA1UdDwEB/wQE
AwIBBjAKBggqhkjOPQQDAwNnADBkAjBe8usGzEkxn0AAbbd+NvBNEU/zy4k6LHiR
UKNbwMp1JvK/kF0LgoxgKJ/GcJpo5PECMFxYDlZ2z1jD1xCMuo6u47xkdUfFVZDj
/bpV6wfEU6s3qe4hsiFbYI89MvHVI5TWWA==
-----END CERTIFICATE-----
