##
##  TrustAsia Global Root CA G3
##
##  This is a single X.509 certificate for a public Certificate
##  Authority (CA). It was automatically extracted from Mozilla's
##  root CA list (the file `certdata.txt' in security/nss).
##
##  It contains a certificate trusted for server authentication.
##
##  Extracted from nss
##
##  @generated
##
Certificate:
    Data:
        Version: 3 (0x2)
        Serial Number:
            64:f6:0e:65:77:61:6a:ab:3b:b4:ea:85:84:bb:b1:89:b8:71:93:0f
        Signature Algorithm: sha384WithRSAEncryption
        Issuer: C = CN, O = "TrustAsia Technologies, Inc.", CN = TrustAsia Global Root CA G3
        Validity
            Not Before: May 20 02:10:19 2021 GMT
            Not After : May 19 02:10:19 2046 GMT
        Subject: C = CN, O = "TrustAsia Technologies, Inc.", CN = TrustAsia Global Root CA G3
        Subject Public Key Info:
            Public Key Algorithm: rsaEncryption
                Public-Key: (4096 bit)
                Modulus:
                    00:c0:31:82:61:92:e4:94:1b:0a:2a:65:d0:be:06:
                    a9:87:3b:51:12:ea:70:41:ae:e2:fb:74:ea:0a:8d:
                    b9:b3:4c:dc:8f:b7:13:52:4f:54:18:e1:2c:73:95:
                    91:c5:66:3b:6a:cf:ac:63:6d:87:53:f0:f7:f1:39:
                    b7:a0:43:63:b0:c4:03:5d:57:a9:e7:44:ce:c4:a1:
                    83:65:f6:50:3e:b1:7e:16:b8:3a:8a:02:d0:96:1f:
                    00:cd:05:21:ef:06:6d:dd:21:9c:19:43:45:a1:c5:
                    e8:80:ca:c2:ad:40:62:17:06:c6:aa:bc:f3:d6:e6:
                    fc:50:7e:66:42:1f:3c:8b:a6:79:79:86:40:35:9f:
                    20:ef:3f:eb:8b:47:1f:8f:8e:c5:d4:8e:b6:2c:c9:
                    44:04:e3:d4:43:75:3f:d5:3f:af:1c:cc:7e:46:5f:
                    ac:df:64:10:8a:ef:46:f0:90:f0:0f:2d:f4:88:0b:
                    b1:29:aa:af:85:aa:49:58:a8:bf:63:a0:38:91:e6:
                    b3:e6:77:68:c4:f9:2a:19:84:bb:0e:e1:f5:af:89:
                    ec:a5:2f:50:20:74:1e:12:41:73:1e:24:d9:ca:ce:
                    2c:a1:59:35:c0:c8:1d:46:27:61:5a:8f:f9:4d:d3:
                    72:79:66:1e:9f:15:90:21:2d:fd:ed:8b:56:70:03:
                    4a:49:3e:7f:69:31:12:69:c7:1e:5c:ca:7a:13:8b:
                    e8:e6:f5:60:0f:cc:93:2c:84:7f:f1:fc:6a:fc:9b:
                    47:9d:db:ad:88:3d:f3:76:75:33:d7:4b:a4:c8:8b:
                    f9:f5:43:58:4f:cb:c8:03:54:8f:a5:85:78:04:1a:
                    f3:73:f2:d7:87:1d:41:9f:e7:d8:17:ce:1a:9c:0f:
                    4a:fc:dc:44:68:54:68:e2:41:3c:fe:2c:84:86:37:
                    3c:cd:3f:2f:a2:db:e7:f7:54:03:5f:59:d3:f7:91:
                    78:c7:8b:77:6a:16:e5:49:85:90:45:72:70:2f:91:
                    5d:f8:3e:65:40:0b:19:99:c9:26:20:5a:68:c1:35:
                    bf:4f:a7:51:f1:d8:11:2b:5b:e0:9a:9e:28:3b:0a:
                    3a:0a:1f:c1:81:e5:2e:f0:a6:b9:69:a5:88:94:e6:
                    6b:13:7f:d1:64:3f:3d:9c:70:46:e5:a2:85:7b:58:
                    84:27:dc:c4:80:3e:67:9a:9a:c7:9a:31:0e:30:ec:
                    e6:17:40:95:d9:45:ed:01:96:aa:bf:0c:f3:4b:d1:
                    63:f7:13:58:c0:b8:f3:fa:67:dd:9b:7d:6d:4a:ff:
                    32:4c:b5:25:3b:ff:1c:67:0f:85:22:59:05:91:91:
                    41:77:81:d0:85:4c:87:10:71:ff:9e:43:1b:ae:95:
                    75:2d:81
                Exponent: 65537 (0x10001)
        X509v3 extensions:
            X509v3 Basic Constraints: critical
                CA:TRUE
            X509v3 Authority Key Identifier: 
                40:E4:E4:F2:23:EF:38:CA:B0:AE:57:7F:F2:21:30:16:34:DB:BC:92
            X509v3 Subject Key Identifier: 
                40:E4:E4:F2:23:EF:38:CA:B0:AE:57:7F:F2:21:30:16:34:DB:BC:92
            X509v3 Key Usage: critical
                Certificate Sign, CRL Sign
    Signature Algorithm: sha384WithRSAEncryption
    Signature Value:
        26:3b:51:e1:4d:38:f3:32:18:b4:b4:5e:e1:65:5e:c4:94:4f:
        d4:a7:61:a3:f8:c0:cf:33:01:02:e9:c3:aa:35:0f:f1:94:13:
        77:77:35:9e:2d:56:51:44:6e:e1:c6:2e:28:1e:ff:da:ec:47:
        cd:97:44:17:f7:e0:4c:c2:e1:7c:7c:32:7a:66:c8:5a:b6:5c:
        53:45:57:5a:45:d4:05:99:2f:2e:23:55:ee:63:68:df:d3:1b:
        78:a7:12:94:06:00:75:0d:72:84:e9:2e:bc:5a:6a:d5:de:2f:
        59:c7:a3:ec:d2:87:66:db:b7:54:b5:24:ab:f4:43:78:db:4b:
        04:c4:6f:dd:e6:3e:66:3e:29:f2:4b:68:71:22:87:a0:f8:b1:
        33:63:76:e3:0d:85:72:44:22:55:3f:1c:7c:e9:fc:b8:15:e8:
        52:fa:aa:3e:a3:21:39:35:74:89:a6:6a:c2:39:fa:78:cf:b6:
        ac:e7:e7:d6:56:ff:23:92:2e:50:0b:a9:b5:07:33:f4:38:5f:
        a4:49:a6:cb:65:70:76:e8:0a:85:80:4b:36:3d:33:f7:95:54:
        75:25:da:ac:c4:73:82:65:e9:52:f5:5c:fd:38:95:02:6a:69:
        30:c5:1c:0a:57:07:ae:22:a4:2c:f9:c5:41:b7:b8:ec:9f:4f:
        48:00:f9:01:04:55:cc:ac:f9:32:31:c4:75:95:06:a0:7f:d1:
        8d:27:dd:b3:a9:a4:72:87:fe:59:8b:9a:7a:74:16:dd:16:a5:
        62:29:eb:3a:96:dc:8b:a7:68:59:d3:eb:77:91:39:f8:d7:cb:
        d9:8f:5f:5a:27:01:7d:5d:68:19:62:d8:c8:cd:f4:b7:72:47:
        be:5b:97:ce:f2:ad:a2:99:93:ad:94:cb:93:f6:12:09:95:b6:
        ab:d7:3b:d0:3f:11:cb:30:16:2e:79:80:e4:67:81:2d:5d:ed:
        70:78:b6:60:59:ac:e1:5d:45:63:8f:c8:df:72:68:5b:ea:1d:
        b8:01:f1:7e:fb:e7:8a:b3:e3:54:a0:38:09:e0:3c:de:42:f2:
        c2:ed:2e:9b:f3:1f:35:b6:36:d8:e3:80:a1:8b:cd:99:64:0f:
        c2:aa:ab:b1:ca:f5:6f:9e:43:8d:84:54:99:b3:6e:c0:12:66:
        d8:70:10:f1:06:35:33:43:a8:9c:2e:ba:14:31:ce:10:7f:1c:
        86:e3:8f:d2:d5:f8:77:ec:9b:ab:f1:2f:63:d9:42:5f:e0:67:
        81:64:91:f1:97:2f:fc:6e:26:f6:33:f8:d3:b5:f8:c4:62:ab:
        31:51:25:02:7a:f8:dd:6b:65:d5:6d:4d:30:c8:65:ba:68:14:
        65:ac:27:0b:74:8a:f2:87
SHA1 Fingerprint=63:CF:B6:C1:27:2B:56:E4:88:8E:1C:23:9A:B6:2E:81:47:24:C3:C7
-----BEGIN CERTIFICATE-----
MIIFpTCCA42gAwIBAgIUZPYOZXdhaqs7tOqFhLuxibhxkw8wDQYJKoZIhvcNAQEM
BQAwWjELMAkGA1UEBhMCQ04xJTAjBgNVBAoMHFRydXN0QXNpYSBUZWNobm9sb2dp
ZXMsIEluYy4xJDAiBgNVBAMMG1RydXN0QXNpYSBHbG9iYWwgUm9vdCBDQSBHMzAe
Fw0yMTA1MjAwMjEwMTlaFw00NjA1MTkwMjEwMTlaMFoxCzAJBgNVBAYTAkNOMSUw
IwYDVQQKDBxUcnVzdEFzaWEgVGVjaG5vbG9naWVzLCBJbmMuMSQwIgYDVQQDDBtU
cnVzdEFzaWEgR2xvYmFsIFJvb3QgQ0EgRzMwggIiMA0GCSqGSIb3DQEBAQUAA4IC
DwAwggIKAoICAQDAMYJhkuSUGwoqZdC+BqmHO1ES6nBBruL7dOoKjbmzTNyPtxNS
T1QY4SxzlZHFZjtqz6xjbYdT8PfxObegQ2OwxANdV6nnRM7EoYNl9lA+sX4WuDqK
AtCWHwDNBSHvBm3dIZwZQ0WhxeiAysKtQGIXBsaqvPPW5vxQfmZCHzyLpnl5hkA1
nyDvP+uLRx+PjsXUjrYsyUQE49RDdT/VP68czH5GX6zfZBCK70bwkPAPLfSIC7Ep
qq+FqklYqL9joDiR5rPmd2jE+SoZhLsO4fWvieylL1AgdB4SQXMeJNnKziyhWTXA
yB1GJ2Faj/lN03J5Zh6fFZAhLf3ti1ZwA0pJPn9pMRJpxx5cynoTi+jm9WAPzJMs
hH/x/Gr8m0ed262IPfN2dTPXS6TIi/n1Q1hPy8gDVI+lhXgEGvNz8teHHUGf59gX
zhqcD0r83ERoVGjiQTz+LISGNzzNPy+i2+f3VANfWdP3kXjHi3dqFuVJhZBFcnAv
kV34PmVACxmZySYgWmjBNb9Pp1Hx2BErW+Canig7CjoKH8GB5S7wprlppYiU5msT
f9FkPz2ccEblooV7WIQn3MSAPmeamseaMQ4w7OYXQJXZRe0Blqq/DPNL0WP3E1jA
uPP6Z92bfW1K/zJMtSU7/xxnD4UiWQWRkUF3gdCFTIcQcf+eQxuulXUtgQIDAQAB
o2MwYTAPBgNVHRMBAf8EBTADAQH/MB8GA1UdIwQYMBaAFEDk5PIj7zjKsK5Xf/Ih
MBY027ySMB0GA1UdDgQWBBRA5OTyI+84yrCuV3/yITAWNNu8kjAOBgNVHQ8BAf8E
BAMCAQYwDQYJKoZIhvcNAQEMBQADggIBACY7UeFNOPMyGLS0XuFlXsSUT9SnYaP4
wM8zAQLpw6o1D/GUE3d3NZ4tVlFEbuHGLige/9rsR82XRBf34EzC4Xx8MnpmyFq2
XFNFV1pF1AWZLy4jVe5jaN/TG3inEpQGAHUNcoTpLrxaatXeL1nHo+zSh2bbt1S1
JKv0Q3jbSwTEb93mPmY+KfJLaHEih6D4sTNjduMNhXJEIlU/HHzp/LgV6FL6qj6j
ITk1dImmasI5+njPtqzn59ZW/yOSLlALqbUHM/Q4X6RJpstlcHboCoWASzY9M/eV
VHUl2qzEc4Jl6VL1XP04lQJqaTDFHApXB64ipCz5xUG3uOyfT0gA+QEEVcys+TIx
xHWVBqB/0Y0n3bOppHKH/lmLmnp0Ft0WpWIp6zqW3IunaFnT63eROfjXy9mPX1on
AX1daBli2MjN9LdyR75bl87yraKZk62Uy5P2EgmVtqvXO9A/EcswFi55gORngS1d
7XB4tmBZrOFdRWOPyN9yaFvqHbgB8X7754qz41SgOAngPN5C8sLtLpvzHzW2Ntjj
gKGLzZlkD8Kqq7HK9W+eQ42EVJmzbsASZthwEPEGNTNDqJwuuhQxzhB/HIbjj9LV
+Hfsm6vxL2PZQl/gZ4FkkfGXL/xuJvYz+NO1+MRiqzFRJQJ6+N1rZdVtTTDIZbpo
FGWsJwt0ivKH
-----END CERTIFICATE-----
