##
##  Trustis FPS Root CA
##
##  This is a single X.509 certificate for a public Certificate
##  Authority (CA). It was automatically extracted from Mozilla's
##  root CA list (the file `certdata.txt' in security/nss).
##
##  Extracted from nss
##  with $FreeBSD$
##
##  @generated
##
Certificate:
    Data:
        Version: 3 (0x2)
        Serial Number:
            1b:1f:ad:b6:20:f9:24:d3:36:6b:f7:c7:f1:8c:a0:59
        Signature Algorithm: sha1WithRSAEncryption
        Issuer: C = GB, O = Trustis Limited, OU = Trustis FPS Root CA
        Validity
            Not Before: Dec 23 12:14:06 2003 GMT
            Not After : Jan 21 11:36:54 2024 GMT
        Subject: C = GB, O = Trustis Limited, OU = Trustis FPS Root CA
        Subject Public Key Info:
            Public Key Algorithm: rsaEncryption
                RSA Public-Key: (2048 bit)
                Modulus:
                    00:c5:50:7b:9e:3b:35:d0:df:c4:8c:cd:8e:9b:ed:
                    a3:c0:36:99:f4:42:ea:a7:3e:80:83:0f:a6:a7:59:
                    87:c9:90:45:43:7e:00:ea:86:79:2a:03:bd:3d:37:
                    99:89:66:b7:e5:8a:56:86:93:9c:68:4b:68:04:8c:
                    93:93:02:3e:30:d2:37:3a:22:61:89:1c:85:4e:7d:
                    8f:d5:af:7b:35:f6:7e:28:47:89:31:dc:0e:79:64:
                    1f:99:d2:5b:ba:fe:7f:60:bf:ad:eb:e7:3c:38:29:
                    6a:2f:e5:91:0b:55:ff:ec:6f:58:d5:2d:c9:de:4c:
                    66:71:8f:0c:d7:04:da:07:e6:1e:18:e3:bd:29:02:
                    a8:fa:1c:e1:5b:b9:83:a8:41:48:bc:1a:71:8d:e7:
                    62:e5:2d:b2:eb:df:7c:cf:db:ab:5a:ca:31:f1:4c:
                    22:f3:05:13:f7:82:f9:73:79:0c:be:d7:4b:1c:c0:
                    d1:15:3c:93:41:64:d1:e6:be:23:17:22:00:89:5e:
                    1f:6b:a5:ac:6e:a7:4b:8c:ed:a3:72:e6:af:63:4d:
                    2f:85:d2:14:35:9a:2e:4e:8c:ea:32:98:28:86:a1:
                    91:09:41:3a:b4:e1:e3:f2:fa:f0:c9:0a:a2:41:dd:
                    a9:e3:03:c7:88:15:3b:1c:d4:1a:94:d7:9f:64:59:
                    12:6d
                Exponent: 65537 (0x10001)
        X509v3 extensions:
            X509v3 Basic Constraints: critical
                CA:TRUE
            X509v3 Authority Key Identifier: 
                keyid:BA:FA:71:25:79:8B:57:41:25:21:86:0B:71:EB:B2:64:0E:8B:21:67

            X509v3 Subject Key Identifier: 
                BA:FA:71:25:79:8B:57:41:25:21:86:0B:71:EB:B2:64:0E:8B:21:67
    Signature Algorithm: sha1WithRSAEncryption
         7e:58:ff:fd:35:19:7d:9c:18:4f:9e:b0:2b:bc:8e:8c:14:ff:
         2c:a0:da:47:5b:c3:ef:81:2d:af:05:ea:74:48:5b:f3:3e:4e:
         07:c7:6d:c5:b3:93:cf:22:35:5c:b6:3f:75:27:5f:09:96:cd:
         a0:fe:be:40:0c:5c:12:55:f8:93:82:ca:29:e9:5e:3f:56:57:
         8b:38:36:f7:45:1a:4c:28:cd:9e:41:b8:ed:56:4c:84:a4:40:
         c8:b8:b0:a5:2b:69:70:04:6a:c3:f8:d4:12:32:f9:0e:c3:b1:
         dc:32:84:44:2c:6f:cb:46:0f:ea:66:41:0f:4f:f1:58:a5:a6:
         0d:0d:0f:61:de:a5:9e:5d:7d:65:a1:3c:17:e7:a8:55:4e:ef:
         a0:c7:ed:c6:44:7f:54:f5:a3:e0:8f:f0:7c:55:22:8f:29:b6:
         81:a3:e1:6d:4e:2c:1b:80:67:ec:ad:20:9f:0c:62:61:d5:97:
         ff:43:ed:2d:c1:da:5d:29:2a:85:3f:ac:65:ee:86:0f:05:8d:
         90:5f:df:ee:9f:f4:bf:ee:1d:fb:98:e4:7f:90:2b:84:78:10:
         0e:6c:49:53:ef:15:5b:65:46:4a:5d:af:ba:fb:3a:72:1d:cd:
         f6:25:88:1e:97:cc:21:9c:29:01:0d:65:eb:57:d9:f3:57:96:
         bb:48:cd:81
SHA1 Fingerprint=3B:C0:38:0B:33:C3:F6:A6:0C:86:15:22:93:D9:DF:F5:4B:81:C0:04
-----BEGIN CERTIFICATE-----
MIIDZzCCAk+gAwIBAgIQGx+ttiD5JNM2a/fH8YygWTANBgkqhkiG9w0BAQUFADBF
MQswCQYDVQQGEwJHQjEYMBYGA1UEChMPVHJ1c3RpcyBMaW1pdGVkMRwwGgYDVQQL
ExNUcnVzdGlzIEZQUyBSb290IENBMB4XDTAzMTIyMzEyMTQwNloXDTI0MDEyMTEx
MzY1NFowRTELMAkGA1UEBhMCR0IxGDAWBgNVBAoTD1RydXN0aXMgTGltaXRlZDEc
MBoGA1UECxMTVHJ1c3RpcyBGUFMgUm9vdCBDQTCCASIwDQYJKoZIhvcNAQEBBQAD
ggEPADCCAQoCggEBAMVQe547NdDfxIzNjpvto8A2mfRC6qc+gIMPpqdZh8mQRUN+
AOqGeSoDvT03mYlmt+WKVoaTnGhLaASMk5MCPjDSNzoiYYkchU59j9WvezX2fihH
iTHcDnlkH5nSW7r+f2C/revnPDgpai/lkQtV/+xvWNUtyd5MZnGPDNcE2gfmHhjj
vSkCqPoc4Vu5g6hBSLwacY3nYuUtsuvffM/bq1rKMfFMIvMFE/eC+XN5DL7XSxzA
0RU8k0Fk0ea+IxciAIleH2ulrG6nS4zto3Lmr2NNL4XSFDWaLk6M6jKYKIahkQlB
OrTh4/L68MkKokHdqeMDx4gVOxzUGpTXn2RZEm0CAwEAAaNTMFEwDwYDVR0TAQH/
BAUwAwEB/zAfBgNVHSMEGDAWgBS6+nEleYtXQSUhhgtx67JkDoshZzAdBgNVHQ4E
FgQUuvpxJXmLV0ElIYYLceuyZA6LIWcwDQYJKoZIhvcNAQEFBQADggEBAH5Y//01
GX2cGE+esCu8jowU/yyg2kdbw++BLa8F6nRIW/M+TgfHbcWzk88iNVy2P3UnXwmW
zaD+vkAMXBJV+JOCyinpXj9WV4s4NvdFGkwozZ5BuO1WTISkQMi4sKUraXAEasP4
1BIy+Q7DsdwyhEQsb8tGD+pmQQ9P8Vilpg0ND2HepZ5dfWWhPBfnqFVO76DH7cZE
f1T1o+CP8HxVIo8ptoGj4W1OLBuAZ+ytIJ8MYmHVl/9D7S3B2l0pKoU/rGXuhg8F
jZBf3+6f9L/uHfuY5H+QK4R4EA5sSVPvFVtlRkpdr7r7OnIdzfYliB6XzCGcKQEN
ZetX2fNXlrtIzYE=
-----END CERTIFICATE-----
