##
##  TrustAsia TLS RSA Root CA
##
##  This is a single X.509 certificate for a public Certificate
##  Authority (CA). It was automatically extracted from Mozilla's
##  root CA list (the file `certdata.txt' in security/nss)
##  licensed under the MPL 2.0, http://mozilla.org/MPL/2.0/.
##
##  @generated
##
Certificate:
    Data:
        Version: 3 (0x2)
        Serial Number:
            1c:18:d8:cf:e5:53:3f:22:35:46:53:54:24:3c:6c:47:d1:5c:4a:9c
        Signature Algorithm: sha384WithRSAEncryption
        Issuer: C=CN, O=TrustAsia Technologies, Inc., CN=TrustAsia TLS RSA Root CA
        Validity
            Not Before: May 15 05:41:57 2024 GMT
            Not After : May 15 05:41:56 2044 GMT
        Subject: C=CN, O=TrustAsia Technologies, Inc., CN=TrustAsia TLS RSA Root CA
        Subject Public Key Info:
            Public Key Algorithm: rsaEncryption
                Public-Key: (4096 bit)
                Modulus:
                    00:c3:16:b8:1b:6a:a4:44:73:e5:d6:4e:f4:b9:cf:
                    5b:0b:c1:d1:9a:81:f5:63:b0:8f:43:c1:bb:08:5a:
                    1a:7a:e1:07:76:26:1f:8f:69:56:be:fe:36:60:d0:
                    0c:83:cd:94:ea:e7:c5:2d:5c:2f:05:16:02:9e:0a:
                    a8:2f:e5:60:26:54:96:f8:98:40:1d:ac:ae:9d:74:
                    67:2f:54:fb:94:63:98:e3:26:4a:83:c6:95:b6:09:
                    43:50:cd:0d:7d:de:44:0e:60:12:4f:5b:35:bd:bf:
                    99:38:6d:7d:6c:da:e2:68:73:1f:f9:31:a5:19:10:
                    73:05:2a:c3:32:19:85:ea:34:aa:dd:42:1e:30:8d:
                    3f:9e:b5:1e:61:d5:6f:bd:00:72:72:ad:12:3f:aa:
                    a6:49:73:f2:86:15:95:0c:10:5f:51:64:ce:ff:77:
                    b8:c9:6d:ac:e5:d5:98:f1:99:2e:6c:e3:c9:44:f9:
                    b5:43:27:08:4d:f6:7e:de:44:79:bb:b2:8c:1c:da:
                    d3:4b:6c:2e:d6:c3:78:b7:4c:d5:a4:e4:da:dc:8a:
                    8e:0e:ff:0f:c3:a6:60:26:28:cf:36:bf:fa:57:0a:
                    ec:5b:3f:e9:30:16:7b:c4:db:c4:d4:64:a0:30:fb:
                    e5:fd:1d:71:92:dd:29:8f:41:58:de:00:ad:3a:fd:
                    3d:7c:1a:a8:b1:17:f0:4e:34:78:58:25:d6:85:21:
                    eb:79:1d:d0:dc:ab:cf:62:3c:b0:c7:97:8b:d6:d0:
                    9f:d3:fe:3c:de:c5:e3:fc:3a:83:70:84:21:1d:09:
                    c2:a1:fc:bb:28:21:65:53:60:7a:90:6d:96:38:5b:
                    ff:f1:d7:7a:5b:6d:d3:c9:70:49:4a:ba:1d:3a:d0:
                    50:da:32:20:19:e4:8b:3f:eb:d5:16:26:37:3c:fb:
                    75:9e:b0:07:70:b8:14:60:77:dc:f6:0f:5c:52:0a:
                    bc:5d:6d:8d:51:0a:da:c5:18:c8:9b:6d:dc:b0:83:
                    b3:7f:a3:4e:78:4c:98:25:ab:f2:7e:2e:20:5e:82:
                    15:a6:d6:d8:8f:ac:e5:cd:32:86:c8:f9:e4:da:89:
                    e2:3b:3e:93:c5:13:6a:ff:c7:f7:18:fc:67:b5:ef:
                    18:2c:54:ab:40:d3:6c:4d:ed:c5:c8:b7:38:4f:64:
                    c4:94:4c:4f:a0:cd:ae:a5:c6:27:25:75:27:6d:c6:
                    da:9c:8e:b0:05:99:d5:28:11:c5:21:d4:b8:fc:c7:
                    96:ab:4a:64:59:61:6b:13:fc:4b:cc:92:a6:0f:a4:
                    51:bf:0e:58:90:d9:82:83:39:a6:5f:b3:fa:6e:92:
                    b3:cd:33:0e:85:a8:f1:29:d3:ab:59:ad:d6:db:de:
                    d4:2b:81
                Exponent: 65537 (0x10001)
        X509v3 extensions:
            X509v3 Basic Constraints: critical
                CA:TRUE
            X509v3 Subject Key Identifier: 
                B8:07:91:79:5C:06:F4:46:FD:7B:59:CA:5A:26:91:A7:45:2B:F8:53
            X509v3 Key Usage: critical
                Certificate Sign, CRL Sign
    Signature Algorithm: sha384WithRSAEncryption
    Signature Value:
        21:9b:6a:05:20:5d:18:16:a7:12:a4:f7:47:3f:cd:ca:3b:ae:
        8e:c0:82:ce:dc:48:25:78:17:6c:e0:e0:70:c4:d6:96:d9:d9:
        f6:bf:7a:9c:13:bb:53:95:92:ff:cf:92:e0:f3:c5:27:35:57:
        a8:3b:a2:19:eb:f8:8a:a3:04:de:69:8b:e4:3c:3c:bd:e5:af:
        d0:12:1b:e5:89:6b:73:9b:6f:25:02:4b:90:82:af:40:c2:ad:
        ba:9a:60:24:5a:81:4d:05:18:a3:e2:33:79:7a:0b:1f:93:ed:
        ec:39:4a:f5:13:04:ec:8d:74:9d:81:0a:a8:6f:e8:76:fe:8b:
        4f:2b:69:12:86:0a:34:36:dd:82:9b:6f:4f:e0:73:dd:49:7f:
        28:3e:c9:3b:a3:57:04:d8:93:d9:3c:29:db:12:10:68:e1:c4:
        89:b8:06:20:e7:1b:7a:bc:b1:93:61:9a:19:40:11:b5:6a:85:
        57:01:f1:b6:5a:2d:26:73:27:96:f9:b9:3f:5b:d0:88:9d:e4:
        a0:fd:ba:4e:95:09:83:7f:77:dc:51:05:94:9d:20:71:76:b1:
        ec:fa:89:b5:9c:2e:85:f1:b9:5b:24:5a:b1:09:ab:da:ca:1a:
        07:cd:86:df:db:69:db:b4:48:18:00:2d:bc:a2:c4:89:45:23:
        a5:0e:e1:44:65:3e:8a:c1:6a:30:1d:e2:60:f8:3a:aa:87:09:
        42:b9:81:92:dc:25:88:98:89:f1:7c:35:f1:62:ca:ee:79:f8:
        19:2f:fe:5f:f8:db:87:ce:ea:a8:0f:0c:a6:e8:0b:a0:3c:e0:
        6b:94:98:9c:7f:ad:06:e6:1c:ea:42:10:5f:e2:26:15:3c:37:
        39:f7:d7:bc:ee:b8:e5:ef:03:ee:bd:22:fb:28:86:34:58:c4:
        5a:7f:61:a2:78:0f:5e:f3:ca:9d:bc:1b:3c:a7:c8:2d:f6:a7:
        22:11:ca:03:d8:e7:67:0a:8a:0e:cb:35:8e:34:39:d8:c8:ea:
        8d:9f:64:e0:37:b0:6c:d7:c5:8f:c1:90:61:26:db:24:8c:1e:
        4a:c0:88:df:35:90:ce:3f:02:f4:64:61:de:c7:c8:07:95:de:
        32:18:3a:8f:a2:42:40:24:e5:d6:33:5d:7c:ae:ef:b1:4d:4f:
        d4:57:90:35:6a:dc:ae:04:97:49:89:34:97:2e:30:04:e7:98:
        f7:db:0b:01:90:c1:1f:0a:3f:f8:c2:fe:4e:fa:db:9a:73:73:
        16:bc:05:b8:79:d8:59:af:06:e7:3f:67:38:39:b1:7c:ab:94:
        e0:29:14:a6:28:f2:df:6d:e2:9a:db:54:43:f8:47:58:a3:5d:
        74:15:9c:c1:ab:b0:c7:34
SHA1 Fingerprint=A5:46:50:C5:62:EA:95:9A:1A:A7:04:6F:17:58:C7:29:53:3D:03:FA
-----BEGIN CERTIFICATE-----
MIIFgDCCA2igAwIBAgIUHBjYz+VTPyI1RlNUJDxsR9FcSpwwDQYJKoZIhvcNAQEM
BQAwWDELMAkGA1UEBhMCQ04xJTAjBgNVBAoTHFRydXN0QXNpYSBUZWNobm9sb2dp
ZXMsIEluYy4xIjAgBgNVBAMTGVRydXN0QXNpYSBUTFMgUlNBIFJvb3QgQ0EwHhcN
MjQwNTE1MDU0MTU3WhcNNDQwNTE1MDU0MTU2WjBYMQswCQYDVQQGEwJDTjElMCMG
A1UEChMcVHJ1c3RBc2lhIFRlY2hub2xvZ2llcywgSW5jLjEiMCAGA1UEAxMZVHJ1
c3RBc2lhIFRMUyBSU0EgUm9vdCBDQTCCAiIwDQYJKoZIhvcNAQEBBQADggIPADCC
AgoCggIBAMMWuBtqpERz5dZO9LnPWwvB0ZqB9WOwj0PBuwhaGnrhB3YmH49pVr7+
NmDQDIPNlOrnxS1cLwUWAp4KqC/lYCZUlviYQB2srp10Zy9U+5RjmOMmSoPGlbYJ
Q1DNDX3eRA5gEk9bNb2/mThtfWza4mhzH/kxpRkQcwUqwzIZheo0qt1CHjCNP561
HmHVb70AcnKtEj+qpklz8oYVlQwQX1Fkzv93uMltrOXVmPGZLmzjyUT5tUMnCE32
ft5EebuyjBza00tsLtbDeLdM1aTk2tyKjg7/D8OmYCYozza/+lcK7Fs/6TAWe8Tb
xNRkoDD75f0dcZLdKY9BWN4ArTr9PXwaqLEX8E40eFgl1oUh63kd0Nyrz2I8sMeX
i9bQn9P+PN7F4/w6g3CEIR0JwqH8uyghZVNgepBtljhb//HXeltt08lwSUq6HTrQ
UNoyIBnkiz/r1RYmNzz7dZ6wB3C4FGB33PYPXFIKvF1tjVEK2sUYyJtt3LCDs3+j
TnhMmCWr8n4uIF6CFabW2I+s5c0yhsj55NqJ4js+k8UTav/H9xj8Z7XvGCxUq0DT
bE3txci3OE9kxJRMT6DNrqXGJyV1J23G2pyOsAWZ1SgRxSHUuPzHlqtKZFlhaxP8
S8ySpg+kUb8OWJDZgoM5pl+z+m6Ss80zDoWo8SnTq1mt1tve1CuBAgMBAAGjQjBA
MA8GA1UdEwEB/wQFMAMBAf8wHQYDVR0OBBYEFLgHkXlcBvRG/XtZylomkadFK/hT
MA4GA1UdDwEB/wQEAwIBBjANBgkqhkiG9w0BAQwFAAOCAgEAIZtqBSBdGBanEqT3
Rz/NyjuujsCCztxIJXgXbODgcMTWltnZ9r96nBO7U5WS/8+S4PPFJzVXqDuiGev4
iqME3mmL5Dw8veWv0BIb5Ylrc5tvJQJLkIKvQMKtuppgJFqBTQUYo+IzeXoLH5Pt
7DlK9RME7I10nYEKqG/odv6LTytpEoYKNDbdgptvT+Bz3Ul/KD7JO6NXBNiT2Twp
2xIQaOHEibgGIOcberyxk2GaGUARtWqFVwHxtlotJnMnlvm5P1vQiJ3koP26TpUJ
g3933FEFlJ0gcXax7PqJtZwuhfG5WyRasQmr2soaB82G39tp27RIGAAtvKLEiUUj
pQ7hRGU+isFqMB3iYPg6qocJQrmBktwliJiJ8Xw18WLK7nn4GS/+X/jbh87qqA8M
pugLoDzga5SYnH+tBuYc6kIQX+ImFTw3OffXvO645e8D7r0i+yiGNFjEWn9hongP
XvPKnbwbPKfILfanIhHKA9jnZwqKDss1jjQ52MjqjZ9k4DewbNfFj8GQYSbbJIwe
SsCI3zWQzj8C9GRh3sfIB5XeMhg6j6JCQCTl1jNdfK7vsU1P1FeQNWrcrgSXSYk0
ly4wBOeY99sLAZDBHwo/+ML+TvrbmnNzFrwFuHnYWa8G5z9nODmxfKuU4CkUpijy
323imttUQ/hHWKNddBWcwauwxzQ=
-----END CERTIFICATE-----
