##
##  TunTrust Root CA
##
##  This is a single X.509 certificate for a public Certificate
##  Authority (CA). It was automatically extracted from Mozilla's
##  root CA list (the file `certdata.txt' in security/nss).
##
##  It contains a certificate trusted for server authentication.
##
##  Extracted from nss
##
##  @generated
##
Certificate:
    Data:
        Version: 3 (0x2)
        Serial Number:
            13:02:d5:e2:40:4c:92:46:86:16:67:5d:b4:bb:bb:b2:6b:3e:fc:13
        Signature Algorithm: sha256WithRSAEncryption
        Issuer: C = TN, O = Agence Nationale de Certification Electronique, CN = TunTrust Root CA
        Validity
            Not Before: Apr 26 08:57:56 2019 GMT
            Not After : Apr 26 08:57:56 2044 GMT
        Subject: C = TN, O = Agence Nationale de Certification Electronique, CN = TunTrust Root CA
        Subject Public Key Info:
            Public Key Algorithm: rsaEncryption
                Public-Key: (4096 bit)
                Modulus:
                    00:c3:cd:d3:fc:bd:04:53:dd:0c:20:3a:d5:88:2e:
                    05:4b:41:f5:83:82:7e:f7:59:9f:9e:9e:63:e8:73:
                    da:f6:06:a9:4f:1f:b4:f9:0b:1f:39:8c:9a:20:d0:
                    7e:06:d4:ec:34:d9:86:bc:75:5b:87:88:f0:d2:d9:
                    d4:a3:0a:b2:6c:1b:eb:49:2c:3e:ac:5d:d8:94:03:
                    a0:ec:34:e5:30:c4:35:7d:fb:26:4d:1b:6e:30:54:
                    d8:f5:80:45:9c:39:ad:9c:c9:25:04:4d:9a:90:3e:
                    4e:40:6e:8a:6b:cd:29:67:c6:cc:2d:e0:74:e8:05:
                    57:0a:48:50:fa:7a:43:da:7e:ec:5b:9a:0e:62:76:
                    fe:ea:9d:1d:85:72:ec:11:bb:35:e8:1f:27:bf:c1:
                    a1:c7:bb:48:16:dd:56:d7:cc:4e:a0:e1:b9:ac:db:
                    d5:83:19:1a:85:d1:94:97:d7:ca:a3:65:0b:f3:38:
                    f9:02:ae:dd:f6:67:cf:c9:3f:f5:8a:2c:47:1a:99:
                    6f:05:0d:fd:d0:1d:82:31:fc:29:cc:00:58:97:91:
                    4c:80:00:1c:33:85:96:2f:cb:41:c2:8b:10:84:c3:
                    09:24:89:1f:b5:0f:d9:d9:77:47:18:92:94:60:5c:
                    c7:99:03:3c:fe:f7:95:a7:7d:50:a1:80:c2:a9:83:
                    ad:58:96:55:21:db:86:59:d4:af:c6:bc:dd:81:6e:
                    07:db:60:62:fe:ec:10:6e:da:68:01:f4:83:1b:a9:
                    3e:a2:5b:23:d7:64:c6:df:dc:a2:7d:d8:4b:ba:82:
                    d2:51:f8:66:bf:06:46:e4:79:2a:26:36:79:8f:1f:
                    4e:99:1d:b2:8f:0c:0e:1c:ff:c9:5d:c0:fd:90:10:
                    a6:b1:37:f3:cd:3a:24:6e:b4:85:90:bf:80:b9:0c:
                    8c:d5:9b:d6:c8:f1:56:3f:1a:80:89:7a:a9:e2:1b:
                    32:51:2c:3e:f2:df:7b:f6:5d:7a:29:19:8e:e5:c8:
                    bd:36:71:8b:5d:4c:c2:1d:3f:ad:58:a2:cf:3d:70:
                    4d:a6:50:98:25:dc:23:f9:b8:58:41:08:71:bf:4f:
                    b8:84:a0:8f:00:54:15:fc:91:6d:58:a7:96:3b:eb:
                    4b:96:27:cd:6b:a2:a1:86:ac:0d:7c:54:e6:66:4c:
                    66:5f:90:be:21:9a:02:46:2d:e4:83:c2:80:b9:cf:
                    4b:3e:e8:7f:3c:01:ec:8f:5e:cd:7f:d2:28:42:01:
                    95:8a:e2:97:3d:10:21:7d:f6:9d:1c:c5:34:a1:ec:
                    2c:0e:0a:52:2c:12:55:70:24:3d:cb:c2:14:35:43:
                    5d:27:4e:be:c0:bd:aa:7c:96:e7:fc:9e:61:ad:44:
                    d3:00:97
                Exponent: 65537 (0x10001)
        X509v3 extensions:
            X509v3 Subject Key Identifier: 
                06:9A:9B:1F:53:7D:F1:F5:A4:C8:D3:86:3E:A1:73:59:B4:F7:44:21
            X509v3 Basic Constraints: critical
                CA:TRUE
            X509v3 Authority Key Identifier: 
                06:9A:9B:1F:53:7D:F1:F5:A4:C8:D3:86:3E:A1:73:59:B4:F7:44:21
            X509v3 Key Usage: critical
                Certificate Sign, CRL Sign
    Signature Algorithm: sha256WithRSAEncryption
    Signature Value:
        aa:05:6e:b6:dd:15:c9:bf:b3:c6:20:f6:06:47:b0:86:93:25:
        d3:8d:b9:c8:00:3f:97:f5:52:27:88:71:c9:74:fd:eb:ca:64:
        db:5b:ef:1e:5d:ba:bf:d1:eb:ee:5c:69:ba:16:c8:f3:b9:8f:
        d3:36:2e:40:49:07:0d:59:de:8b:10:b0:49:05:e2:ff:91:3f:
        4b:b7:dd:02:8e:f8:81:28:5c:cc:dc:6d:af:5f:14:9c:7d:58:
        78:0d:f6:80:09:b9:e9:0e:97:29:19:b8:b7:eb:f8:16:cb:55:
        12:e4:c6:7d:bb:c4:ec:f8:b5:1c:4e:3e:67:bf:c5:5f:1b:6d:
        6d:47:28:aa:04:58:61:d6:76:bf:22:7f:d0:07:6a:a7:64:53:
        f0:97:8d:9d:80:3f:bb:c1:07:db:65:af:e6:9b:32:9a:c3:54:
        93:c4:1c:08:c3:44:fb:7b:63:11:43:d1:6a:1a:61:6a:79:6d:
        90:4f:29:8e:47:05:c1:12:69:69:d6:c6:36:31:e1:fc:fa:80:
        ba:5c:4f:c4:eb:b7:32:ac:f8:75:61:17:d7:10:19:b9:f1:d2:
        09:ef:7a:42:9d:5b:5a:0b:d4:c6:95:4e:2a:ce:ff:07:d7:4f:
        7e:18:06:88:f1:19:b5:d9:98:bb:ae:71:c4:1c:e7:74:59:58:
        ef:0c:89:cf:8b:1f:75:93:1a:04:14:92:48:50:a9:eb:57:29:
        00:16:e3:36:1c:c8:f8:bf:f0:33:d5:41:0f:c4:cc:3c:dd:e9:
        33:43:01:91:10:2b:1e:d1:b9:5d:cd:32:19:8b:8f:8c:20:77:
        d7:22:c4:42:dc:84:16:9b:25:6d:e8:b4:55:71:7f:b0:7c:b3:
        d3:71:49:b9:cf:52:a4:04:3f:dc:3d:a0:bb:af:33:9e:0a:30:
        60:8e:db:9d:5d:94:a8:bd:60:e7:62:80:76:81:83:0c:8c:cc:
        30:46:49:e2:0c:d2:a8:af:eb:61:71:ef:e7:22:62:a9:f7:5c:
        64:6c:9f:16:8c:67:36:27:45:f5:09:7b:bf:f6:10:0a:f1:b0:
        8d:54:43:8c:04:ba:a3:3f:ef:e2:35:c7:f9:74:e0:6f:34:41:
        d0:bf:73:65:57:20:f9:9b:67:7a:66:68:24:4e:80:65:bd:10:
        99:06:59:f2:65:af:b8:c6:47:bb:fd:90:78:8b:41:73:2e:af:
        55:1f:dc:3b:92:72:6e:84:d3:d0:61:4c:0d:cc:76:57:e2:2d:
        85:22:15:36:0d:eb:01:9d:eb:d8:eb:c4:84:99:fb:c0:0c:cc:
        32:e8:e3:77:da:83:44:8b:9e:55:28:c0:8b:58:d3:90:3e:4e:
        1b:00:f1:15:ad:83:2b:9a
SHA1 Fingerprint=CF:E9:70:84:0F:E0:73:0F:9D:F6:0C:7F:2C:4B:EE:20:46:34:9C:BB
-----BEGIN CERTIFICATE-----
MIIFszCCA5ugAwIBAgIUEwLV4kBMkkaGFmddtLu7sms+/BMwDQYJKoZIhvcNAQEL
BQAwYTELMAkGA1UEBhMCVE4xNzA1BgNVBAoMLkFnZW5jZSBOYXRpb25hbGUgZGUg
Q2VydGlmaWNhdGlvbiBFbGVjdHJvbmlxdWUxGTAXBgNVBAMMEFR1blRydXN0IFJv
b3QgQ0EwHhcNMTkwNDI2MDg1NzU2WhcNNDQwNDI2MDg1NzU2WjBhMQswCQYDVQQG
EwJUTjE3MDUGA1UECgwuQWdlbmNlIE5hdGlvbmFsZSBkZSBDZXJ0aWZpY2F0aW9u
IEVsZWN0cm9uaXF1ZTEZMBcGA1UEAwwQVHVuVHJ1c3QgUm9vdCBDQTCCAiIwDQYJ
KoZIhvcNAQEBBQADggIPADCCAgoCggIBAMPN0/y9BFPdDCA61YguBUtB9YOCfvdZ
n56eY+hz2vYGqU8ftPkLHzmMmiDQfgbU7DTZhrx1W4eI8NLZ1KMKsmwb60ksPqxd
2JQDoOw05TDENX37Jk0bbjBU2PWARZw5rZzJJQRNmpA+TkBuimvNKWfGzC3gdOgF
VwpIUPp6Q9p+7FuaDmJ2/uqdHYVy7BG7NegfJ7/Boce7SBbdVtfMTqDhuazb1YMZ
GoXRlJfXyqNlC/M4+QKu3fZnz8k/9YosRxqZbwUN/dAdgjH8KcwAWJeRTIAAHDOF
li/LQcKLEITDCSSJH7UP2dl3RxiSlGBcx5kDPP73lad9UKGAwqmDrViWVSHbhlnU
r8a83YFuB9tgYv7sEG7aaAH0gxupPqJbI9dkxt/con3YS7qC0lH4Zr8GRuR5KiY2
eY8fTpkdso8MDhz/yV3A/ZAQprE38806JG60hZC/gLkMjNWb1sjxVj8agIl6qeIb
MlEsPvLfe/ZdeikZjuXIvTZxi11Mwh0/rViizz1wTaZQmCXcI/m4WEEIcb9PuISg
jwBUFfyRbVinljvrS5YnzWuioYasDXxU5mZMZl+QviGaAkYt5IPCgLnPSz7ofzwB
7I9ezX/SKEIBlYrilz0QIX32nRzFNKHsLA4KUiwSVXAkPcvCFDVDXSdOvsC9qnyW
5/yeYa1E0wCXAgMBAAGjYzBhMB0GA1UdDgQWBBQGmpsfU33x9aTI04Y+oXNZtPdE
ITAPBgNVHRMBAf8EBTADAQH/MB8GA1UdIwQYMBaAFAaamx9TffH1pMjThj6hc1m0
90QhMA4GA1UdDwEB/wQEAwIBBjANBgkqhkiG9w0BAQsFAAOCAgEAqgVutt0Vyb+z
xiD2BkewhpMl0425yAA/l/VSJ4hxyXT968pk21vvHl26v9Hr7lxpuhbI87mP0zYu
QEkHDVneixCwSQXi/5E/S7fdAo74gShczNxtr18UnH1YeA32gAm56Q6XKRm4t+v4
FstVEuTGfbvE7Pi1HE4+Z7/FXxttbUcoqgRYYdZ2vyJ/0Adqp2RT8JeNnYA/u8EH
22Wv5psymsNUk8QcCMNE+3tjEUPRahphanltkE8pjkcFwRJpadbGNjHh/PqAulxP
xOu3Mqz4dWEX1xAZufHSCe96Qp1bWgvUxpVOKs7/B9dPfhgGiPEZtdmYu65xxBzn
dFlY7wyJz4sfdZMaBBSSSFCp61cpABbjNhzI+L/wM9VBD8TMPN3pM0MBkRArHtG5
Xc0yGYuPjCB31yLEQtyEFpslbei0VXF/sHyz03FJuc9SpAQ/3D2gu68zngowYI7b
nV2UqL1g52KAdoGDDIzMMEZJ4gzSqK/rYXHv5yJiqfdcZGyfFoxnNidF9Ql7v/YQ
CvGwjVRDjAS6oz/v4jXH+XTgbzRB0L9zZVcg+ZtnemZoJE6AZb0QmQZZ8mWvuMZH
u/2QeItBcy6vVR/cO5JyboTT0GFMDcx2V+IthSIVNg3rAZ3r2OvEhJn7wAzMMujj
d9qDRIueVSjAi1jTkD5OGwDxFa2DK5o=
-----END CERTIFICATE-----
