##
##  TWCA CYBER Root CA
##
##  This is a single X.509 certificate for a public Certificate
##  Authority (CA). It was automatically extracted from Mozilla's
##  root CA list (the file `certdata.txt' in security/nss).
##
##  It contains a certificate trusted for server authentication.
##
##  Extracted from nss
##
##  @generated
##
Certificate:
    Data:
        Version: 3 (0x2)
        Serial Number:
            40:01:34:8c:c2:00:00:00:00:00:00:00:01:3c:f2:c6
        Signature Algorithm: sha384WithRSAEncryption
        Issuer: C = TW, O = TAIWAN-CA, OU = Root CA, CN = TWCA CYBER Root CA
        Validity
            Not Before: Nov 22 06:54:29 2022 GMT
            Not After : Nov 22 15:59:59 2047 GMT
        Subject: C = TW, O = TAIWAN-CA, OU = Root CA, CN = TWCA CYBER Root CA
        Subject Public Key Info:
            Public Key Algorithm: rsaEncryption
                Public-Key: (4096 bit)
                Modulus:
                    00:c6:f8:ca:1e:d9:09:20:7e:1d:6c:4e:ce:8f:e3:
                    47:33:44:9c:c7:c9:69:aa:3a:5b:78:ee:70:d2:92:
                    f8:04:b3:52:52:1d:67:72:28:a1:df:8b:5d:95:0a:
                    fe:ea:cd:ed:f7:29:ce:f0:6f:7f:ac:cd:3d:ef:b3:
                    1c:45:6a:f7:28:90:f1:61:57:c5:0c:c4:a3:50:5d:
                    de:d4:b5:cb:19:ca:80:b9:75:ce:29:ce:d2:85:22:
                    ec:02:63:cc:44:30:20:da:ea:91:5b:56:e6:1d:1c:
                    d5:9d:66:c7:3f:df:86:ca:4b:53:c4:d9:8d:b2:1d:
                    ea:f8:dc:27:53:a3:47:e1:61:cc:7d:b5:b0:f8:ee:
                    73:91:c5:ce:73:6f:ce:ee:10:1f:1a:06:cf:e9:27:
                    60:c5:4f:19:e4:eb:ce:22:26:45:d7:60:99:dd:ce:
                    4f:37:e0:7f:e7:63:ad:b0:b8:59:b8:d0:06:68:35:
                    60:d3:36:ae:71:43:04:f1:69:65:78:7c:f3:1f:f3:
                    ca:28:9f:5a:20:95:66:b4:cd:b7:ee:8f:78:a4:45:
                    18:e9:26:2f:8d:9b:29:28:b1:a4:b7:3a:6d:b9:d4:
                    1c:38:72:45:58:b1:5e:eb:f0:28:9b:b7:82:ca:fd:
                    cf:d6:33:0f:9f:fb:97:9e:b1:1c:9c:9e:ea:5f:5e:
                    db:aa:dd:54:e9:30:21:28:6d:8e:79:f3:75:92:8c:
                    26:fe:dc:c5:f6:c3:b0:df:44:59:43:a3:b6:03:28:
                    f6:08:30:aa:0d:33:e1:ef:9c:a9:07:22:e3:59:5b:
                    40:8f:da:88:b7:69:08:a8:b7:23:2e:44:09:59:37:
                    5b:c7:e3:17:f2:22:eb:6e:39:52:c5:de:54:a7:98:
                    c9:4b:20:95:dc:46:89:5f:b4:12:f9:85:29:8e:eb:
                    c8:27:15:20:c0:4b:d4:cc:7c:0c:6c:34:0c:26:9b:
                    26:31:a6:3c:a7:f6:d9:d0:4b:a2:64:ff:3b:99:41:
                    72:c1:e0:70:97:f1:24:bb:2b:c4:74:22:b1:ac:6b:
                    22:32:24:d3:78:2a:c0:c0:a1:2f:f1:52:05:c9:3f:
                    ef:76:66:e2:45:d8:0d:3d:ad:95:c8:c7:89:26:c8:
                    0f:ae:a7:03:2e:fb:c1:5f:fa:20:e1:70:ad:b0:65:
                    20:37:33:60:b0:d5:af:d7:0c:1c:c2:90:70:d7:4a:
                    18:bc:7e:01:b0:b0:eb:15:1e:44:06:cd:a4:4f:e8:
                    0c:d1:c3:20:10:e1:54:65:9e:b6:51:d0:1a:76:6b:
                    42:5a:58:76:34:ea:b7:37:19:ae:2e:75:f9:96:e5:
                    c1:59:f7:94:57:29:25:8d:3a:4c:ab:4d:9a:41:d0:
                    5f:26:03
                Exponent: 65537 (0x10001)
        X509v3 extensions:
            X509v3 Key Usage: critical
                Certificate Sign, CRL Sign
            X509v3 Basic Constraints: critical
                CA:TRUE
            X509v3 Authority Key Identifier: 
                9D:85:61:14:7C:C1:62:6F:97:68:E4:4F:37:40:E1:AD:E0:0D:56:37
            X509v3 Subject Key Identifier: 
                9D:85:61:14:7C:C1:62:6F:97:68:E4:4F:37:40:E1:AD:E0:0D:56:37
    Signature Algorithm: sha384WithRSAEncryption
    Signature Value:
        64:8f:7a:c4:62:0e:b5:88:cc:b8:c7:86:0e:a1:4a:16:cd:70:
        0b:b7:a7:85:0b:b3:76:b6:0f:a7:ff:08:8b:0b:25:cf:a8:d4:
        83:75:2a:b8:96:88:b6:fb:df:2d:2d:b4:69:53:21:35:57:d6:
        89:4d:73:bf:69:8f:70:a3:61:cc:9a:db:1e:9a:e0:20:f8:6c:
        bb:9b:22:9d:5d:84:31:9a:2c:8a:dd:6a:a1:d7:28:69:ca:fe:
        76:55:7a:46:67:eb:cc:43:88:16:a2:03:d6:b9:17:f8:19:6c:
        6d:23:02:7f:f1:5f:d0:0a:29:23:3b:d1:aa:0a:ed:a9:17:26:
        54:0a:4d:c2:a5:4d:f8:c5:fd:b8:81:cf:2b:2c:78:a3:67:4c:
        a9:07:9a:f3:df:5e:fb:7c:f5:89:cd:74:97:61:10:6a:07:2b:
        81:5a:d2:8e:b7:e7:20:d1:20:6e:24:a8:84:27:a1:57:ac:aa:
        55:58:2f:dc:d9:ca:fa:68:04:9e:ed:44:24:f9:74:40:3b:23:
        33:ab:83:5a:18:26:42:b6:6d:54:b5:16:60:30:6c:b1:a0:f8:
        b8:41:a0:5d:49:49:d2:65:05:3a:ea:fe:9d:61:bc:86:d9:bf:
        de:d3:ba:3a:b1:7f:7e:92:34:8e:c9:00:6e:dc:98:bd:dc:ec:
        80:05:ad:02:3d:df:65:ed:0b:03:f7:f7:16:84:04:31:ba:93:
        94:d8:f2:12:f8:8a:e3:bf:42:af:a7:d4:cd:11:17:16:c8:42:
        1d:14:a8:42:f6:d2:40:86:a0:4f:23:ca:96:45:56:60:06:cd:
        b7:55:01:a6:01:94:65:fe:6e:05:09:ba:b4:a4:aa:e2:ef:58:
        be:bd:27:56:d8:ef:73:71:5b:44:33:f2:9a:72:ea:b0:5e:3e:
        6e:a9:52:5b:ec:70:6d:b5:87:8f:37:5e:3c:8c:9c:ce:e4:f0:
        ce:0c:67:41:cc:ce:f6:80:ab:4e:cc:4c:56:f5:c1:61:59:93:
        b4:3e:a6:da:b8:37:12:9f:2a:32:e3:8b:b8:21:ec:c3:2b:65:
        0c:ef:22:de:88:29:3b:4c:d7:fa:fe:b7:e1:47:be:9c:3e:3e:
        83:fb:51:5d:f5:68:f7:2e:21:85:dc:bf:f1:5a:e2:7c:d7:c5:
        e4:83:c1:6a:eb:ba:80:5a:de:5c:2d:70:76:f8:c8:e5:87:87:
        ca:a0:9d:a1:e5:22:12:27:0f:44:3d:1d:6c:ea:d4:c2:8b:2f:
        6f:79:ab:7f:50:a6:c4:19:a7:a1:7a:b7:96:f9:c1:1f:62:5a:
        a2:43:07:40:5e:26:c6:ac:ed:ae:70:16:c5:aa:ca:72:8a:4d:
        b0:cf:01:8b:03:3f:6e:d7
SHA1 Fingerprint=F6:B1:1C:1A:83:38:E9:7B:DB:B3:A8:C8:33:24:E0:2D:9C:7F:26:66
-----BEGIN CERTIFICATE-----
MIIFjTCCA3WgAwIBAgIQQAE0jMIAAAAAAAAAATzyxjANBgkqhkiG9w0BAQwFADBQ
MQswCQYDVQQGEwJUVzESMBAGA1UEChMJVEFJV0FOLUNBMRAwDgYDVQQLEwdSb290
IENBMRswGQYDVQQDExJUV0NBIENZQkVSIFJvb3QgQ0EwHhcNMjIxMTIyMDY1NDI5
WhcNNDcxMTIyMTU1OTU5WjBQMQswCQYDVQQGEwJUVzESMBAGA1UEChMJVEFJV0FO
LUNBMRAwDgYDVQQLEwdSb290IENBMRswGQYDVQQDExJUV0NBIENZQkVSIFJvb3Qg
Q0EwggIiMA0GCSqGSIb3DQEBAQUAA4ICDwAwggIKAoICAQDG+Moe2Qkgfh1sTs6P
40czRJzHyWmqOlt47nDSkvgEs1JSHWdyKKHfi12VCv7qze33Kc7wb3+szT3vsxxF
avcokPFhV8UMxKNQXd7UtcsZyoC5dc4pztKFIuwCY8xEMCDa6pFbVuYdHNWdZsc/
34bKS1PE2Y2yHer43CdTo0fhYcx9tbD47nORxc5zb87uEB8aBs/pJ2DFTxnk684i
JkXXYJndzk834H/nY62wuFm40AZoNWDTNq5xQwTxaWV4fPMf88oon1oglWa0zbfu
j3ikRRjpJi+NmykosaS3Om251Bw4ckVYsV7r8Cibt4LK/c/WMw+f+5eesRycnupf
Xtuq3VTpMCEobY5583WSjCb+3MX2w7DfRFlDo7YDKPYIMKoNM+HvnKkHIuNZW0CP
2oi3aQiotyMuRAlZN1vH4xfyIutuOVLF3lSnmMlLIJXcRolftBL5hSmO68gnFSDA
S9TMfAxsNAwmmyYxpjyn9tnQS6Jk/zuZQXLB4HCX8SS7K8R0IrGsayIyJNN4KsDA
oS/xUgXJP+92ZuJF2A09rZXIx4kmyA+upwMu+8Ff+iDhcK2wZSA3M2Cw1a/XDBzC
kHDXShi8fgGwsOsVHkQGzaRP6AzRwyAQ4VRlnrZR0Bp2a0JaWHY06rc3Ga4udfmW
5cFZ95RXKSWNOkyrTZpB0F8mAwIDAQABo2MwYTAOBgNVHQ8BAf8EBAMCAQYwDwYD
VR0TAQH/BAUwAwEB/zAfBgNVHSMEGDAWgBSdhWEUfMFib5do5E83QOGt4A1WNzAd
BgNVHQ4EFgQUnYVhFHzBYm+XaORPN0DhreANVjcwDQYJKoZIhvcNAQEMBQADggIB
AGSPesRiDrWIzLjHhg6hShbNcAu3p4ULs3a2D6f/CIsLJc+o1IN1KriWiLb73y0t
tGlTITVX1olNc79pj3CjYcya2x6a4CD4bLubIp1dhDGaLIrdaqHXKGnK/nZVekZn
68xDiBaiA9a5F/gZbG0jAn/xX9AKKSM70aoK7akXJlQKTcKlTfjF/biBzysseKNn
TKkHmvPfXvt89YnNdJdhEGoHK4Fa0o635yDRIG4kqIQnoVesqlVYL9zZyvpoBJ7t
RCT5dEA7IzOrg1oYJkK2bVS1FmAwbLGg+LhBoF1JSdJlBTrq/p1hvIbZv97Tujqx
f36SNI7JAG7cmL3c7IAFrQI932XtCwP39xaEBDG6k5TY8hL4iuO/Qq+n1M0RFxbI
Qh0UqEL20kCGoE8jypZFVmAGzbdVAaYBlGX+bgUJurSkquLvWL69J1bY73NxW0Qz
8ppy6rBePm6pUlvscG21h483XjyMnM7k8M4MZ0HMzvaAq07MTFb1wWFZk7Q+ptq4
NxKfKjLji7gh7MMrZQzvIt6IKTtM1/r+t+FHvpw+PoP7UV31aPcuIYXcv/Fa4nzX
xeSDwWrruoBa3lwtcHb4yOWHh8qgnaHlIhInD0Q9HWzq1MKLL295q39QpsQZp6F6
t5b5wR9iWqJDB0BeJsas7a5wFsWqynKKTbDPAYsDP27X
-----END CERTIFICATE-----
