##
##  VeriSign Universal Root Certification Authority
##
##  This is a single X.509 certificate for a public Certificate
##  Authority (CA). It was automatically extracted from Mozilla's
##  root CA list (the file `certdata.txt' in security/nss).
##
##  Extracted from nss
##  with $FreeBSD: head/secure/caroot/MAca-bundle.pl 352951 2019-10-02 01:27:50Z kevans $
##
##  @generated
##
Certificate:
    Data:
        Version: 3 (0x2)
        Serial Number:
            40:1a:c4:64:21:b3:13:21:03:0e:bb:e4:12:1a:c5:1d
        Signature Algorithm: sha256WithRSAEncryption
        Issuer: C = US, O = "VeriSign, Inc.", OU = VeriSign Trust Network, OU = "(c) 2008 VeriSign, Inc. - For authorized use only", CN = VeriSign Universal Root Certification Authority
        Validity
            Not Before: Apr  2 00:00:00 2008 GMT
            Not After : Dec  1 23:59:59 2037 GMT
        Subject: C = US, O = "VeriSign, Inc.", OU = VeriSign Trust Network, OU = "(c) 2008 VeriSign, Inc. - For authorized use only", CN = VeriSign Universal Root Certification Authority
        Subject Public Key Info:
            Public Key Algorithm: rsaEncryption
                RSA Public-Key: (2048 bit)
                Modulus:
                    00:c7:61:37:5e:b1:01:34:db:62:d7:15:9b:ff:58:
                    5a:8c:23:23:d6:60:8e:91:d7:90:98:83:7a:e6:58:
                    19:38:8c:c5:f6:e5:64:85:b4:a2:71:fb:ed:bd:b9:
                    da:cd:4d:00:b4:c8:2d:73:a5:c7:69:71:95:1f:39:
                    3c:b2:44:07:9c:e8:0e:fa:4d:4a:c4:21:df:29:61:
                    8f:32:22:61:82:c5:87:1f:6e:8c:7c:5f:16:20:51:
                    44:d1:70:4f:57:ea:e3:1c:e3:cc:79:ee:58:d8:0e:
                    c2:b3:45:93:c0:2c:e7:9a:17:2b:7b:00:37:7a:41:
                    33:78:e1:33:e2:f3:10:1a:7f:87:2c:be:f6:f5:f7:
                    42:e2:e5:bf:87:62:89:5f:00:4b:df:c5:dd:e4:75:
                    44:32:41:3a:1e:71:6e:69:cb:0b:75:46:08:d1:ca:
                    d2:2b:95:d0:cf:fb:b9:40:6b:64:8c:57:4d:fc:13:
                    11:79:84:ed:5e:54:f6:34:9f:08:01:f3:10:25:06:
                    17:4a:da:f1:1d:7a:66:6b:98:60:66:a4:d9:ef:d2:
                    2e:82:f1:f0:ef:09:ea:44:c9:15:6a:e2:03:6e:33:
                    d3:ac:9f:55:00:c7:f6:08:6a:94:b9:5f:dc:e0:33:
                    f1:84:60:f9:5b:27:11:b4:fc:16:f2:bb:56:6a:80:
                    25:8d
                Exponent: 65537 (0x10001)
        X509v3 extensions:
            X509v3 Basic Constraints: critical
                CA:TRUE
            X509v3 Key Usage: critical
                Certificate Sign, CRL Sign
            1.3.6.1.5.5.7.1.12: 
                0_.].[0Y0W0U..image/gif0!0.0...+..............k...j.H.,{..0%.#http://logo.verisign.com/vslogo.gif
            X509v3 Subject Key Identifier: 
                B6:77:FA:69:48:47:9F:53:12:D5:C2:EA:07:32:76:07:D1:97:07:19
    Signature Algorithm: sha256WithRSAEncryption
         4a:f8:f8:b0:03:e6:2c:67:7b:e4:94:77:63:cc:6e:4c:f9:7d:
         0e:0d:dc:c8:b9:35:b9:70:4f:63:fa:24:fa:6c:83:8c:47:9d:
         3b:63:f3:9a:f9:76:32:95:91:b1:77:bc:ac:9a:be:b1:e4:31:
         21:c6:81:95:56:5a:0e:b1:c2:d4:b1:a6:59:ac:f1:63:cb:b8:
         4c:1d:59:90:4a:ef:90:16:28:1f:5a:ae:10:fb:81:50:38:0c:
         6c:cc:f1:3d:c3:f5:63:e3:b3:e3:21:c9:24:39:e9:fd:15:66:
         46:f4:1b:11:d0:4d:73:a3:7d:46:f9:3d:ed:a8:5f:62:d4:f1:
         3f:f8:e0:74:57:2b:18:9d:81:b4:c4:28:da:94:97:a5:70:eb:
         ac:1d:be:07:11:f0:d5:db:dd:e5:8c:f0:d5:32:b0:83:e6:57:
         e2:8f:bf:be:a1:aa:bf:3d:1d:b5:d4:38:ea:d7:b0:5c:3a:4f:
         6a:3f:8f:c0:66:6c:63:aa:e9:d9:a4:16:f4:81:d1:95:14:0e:
         7d:cd:95:34:d9:d2:8f:70:73:81:7b:9c:7e:bd:98:61:d8:45:
         87:98:90:c5:eb:86:30:c6:35:bf:f0:ff:c3:55:88:83:4b:ef:
         05:92:06:71:f2:b8:98:93:b7:ec:cd:82:61:f1:38:e6:4f:97:
         98:2a:5a:8d
SHA1 Fingerprint=36:79:CA:35:66:87:72:30:4D:30:A5:FB:87:3B:0F:A7:7B:B7:0D:54
-----BEGIN CERTIFICATE-----
MIIEuTCCA6GgAwIBAgIQQBrEZCGzEyEDDrvkEhrFHTANBgkqhkiG9w0BAQsFADCB
vTELMAkGA1UEBhMCVVMxFzAVBgNVBAoTDlZlcmlTaWduLCBJbmMuMR8wHQYDVQQL
ExZWZXJpU2lnbiBUcnVzdCBOZXR3b3JrMTowOAYDVQQLEzEoYykgMjAwOCBWZXJp
U2lnbiwgSW5jLiAtIEZvciBhdXRob3JpemVkIHVzZSBvbmx5MTgwNgYDVQQDEy9W
ZXJpU2lnbiBVbml2ZXJzYWwgUm9vdCBDZXJ0aWZpY2F0aW9uIEF1dGhvcml0eTAe
Fw0wODA0MDIwMDAwMDBaFw0zNzEyMDEyMzU5NTlaMIG9MQswCQYDVQQGEwJVUzEX
MBUGA1UEChMOVmVyaVNpZ24sIEluYy4xHzAdBgNVBAsTFlZlcmlTaWduIFRydXN0
IE5ldHdvcmsxOjA4BgNVBAsTMShjKSAyMDA4IFZlcmlTaWduLCBJbmMuIC0gRm9y
IGF1dGhvcml6ZWQgdXNlIG9ubHkxODA2BgNVBAMTL1ZlcmlTaWduIFVuaXZlcnNh
bCBSb290IENlcnRpZmljYXRpb24gQXV0aG9yaXR5MIIBIjANBgkqhkiG9w0BAQEF
AAOCAQ8AMIIBCgKCAQEAx2E3XrEBNNti1xWb/1hajCMj1mCOkdeQmIN65lgZOIzF
9uVkhbSicfvtvbnazU0AtMgtc6XHaXGVHzk8skQHnOgO+k1KxCHfKWGPMiJhgsWH
H26MfF8WIFFE0XBPV+rjHOPMee5Y2A7Cs0WTwCznmhcrewA3ekEzeOEz4vMQGn+H
LL729fdC4uW/h2KJXwBL38Xd5HVEMkE6HnFuacsLdUYI0crSK5XQz/u5QGtkjFdN
/BMReYTtXlT2NJ8IAfMQJQYXStrxHXpma5hgZqTZ79IugvHw7wnqRMkVauIDbjPT
rJ9VAMf2CGqUuV/c4DPxhGD5WycRtPwW8rtWaoAljQIDAQABo4GyMIGvMA8GA1Ud
EwEB/wQFMAMBAf8wDgYDVR0PAQH/BAQDAgEGMG0GCCsGAQUFBwEMBGEwX6FdoFsw
WTBXMFUWCWltYWdlL2dpZjAhMB8wBwYFKw4DAhoEFI/l0xqGrI2Oa8PPgGrUSBgs
exkuMCUWI2h0dHA6Ly9sb2dvLnZlcmlzaWduLmNvbS92c2xvZ28uZ2lmMB0GA1Ud
DgQWBBS2d/ppSEefUxLVwuoHMnYH0ZcHGTANBgkqhkiG9w0BAQsFAAOCAQEASvj4
sAPmLGd75JR3Y8xuTPl9Dg3cyLk1uXBPY/ok+myDjEedO2Pzmvl2MpWRsXe8rJq+
seQxIcaBlVZaDrHC1LGmWazxY8u4TB1ZkErvkBYoH1quEPuBUDgMbMzxPcP1Y+Oz
4yHJJDnp/RVmRvQbEdBNc6N9Rvk97ahfYtTxP/jgdFcrGJ2BtMQo2pSXpXDrrB2+
BxHw1dvd5Yzw1TKwg+ZX4o+/vqGqvz0dtdQ46tewXDpPaj+PwGZsY6rp2aQW9IHR
lRQOfc2VNNnSj3BzgXucfr2YYdhFh5iQxeuGMMY1v/D/w1WIg0vvBZIGcfK4mJO3
7M2CYfE45k+XmCpajQ==
-----END CERTIFICATE-----
