##
##  VeriSign Class 3 Public Primary Certification Authority - G4
##
##  This is a single X.509 certificate for a public Certificate
##  Authority (CA). It was automatically extracted from Mozilla's
##  root CA list (the file `certdata.txt' in security/nss).
##
##  Extracted from nss
##  with $FreeBSD: head/secure/caroot/MAca-bundle.pl 352951 2019-10-02 01:27:50Z kevans $
##
##  @generated
##
Certificate:
    Data:
        Version: 3 (0x2)
        Serial Number:
            2f:80:fe:23:8c:0e:22:0f:48:67:12:28:91:87:ac:b3
        Signature Algorithm: ecdsa-with-SHA384
        Issuer: C = US, O = "VeriSign, Inc.", OU = VeriSign Trust Network, OU = "(c) 2007 VeriSign, Inc. - For authorized use only", CN = VeriSign Class 3 Public Primary Certification Authority - G4
        Validity
            Not Before: Nov  5 00:00:00 2007 GMT
            Not After : Jan 18 23:59:59 2038 GMT
        Subject: C = US, O = "VeriSign, Inc.", OU = VeriSign Trust Network, OU = "(c) 2007 VeriSign, Inc. - For authorized use only", CN = VeriSign Class 3 Public Primary Certification Authority - G4
        Subject Public Key Info:
            Public Key Algorithm: id-ecPublicKey
                Public-Key: (384 bit)
                pub:
                    04:a7:56:7a:7c:52:da:64:9b:0e:2d:5c:d8:5e:ac:
                    92:3d:fe:01:e6:19:4a:3d:14:03:4b:fa:60:27:20:
                    d9:83:89:69:fa:54:c6:9a:18:5e:55:2a:64:de:06:
                    f6:8d:4a:3b:ad:10:3c:65:3d:90:88:04:89:e0:30:
                    61:b3:ae:5d:01:a7:7b:de:7c:b2:be:ca:65:61:00:
                    86:ae:da:8f:7b:d0:89:ad:4d:1d:59:9a:41:b1:bc:
                    47:80:dc:9e:62:c3:f9
                ASN1 OID: secp384r1
                NIST CURVE: P-384
        X509v3 extensions:
            X509v3 Basic Constraints: critical
                CA:TRUE
            X509v3 Key Usage: critical
                Certificate Sign, CRL Sign
            1.3.6.1.5.5.7.1.12: 
                0_.].[0Y0W0U..image/gif0!0.0...+..............k...j.H.,{..0%.#http://logo.verisign.com/vslogo.gif
            X509v3 Subject Key Identifier: 
                B3:16:91:FD:EE:A6:6E:E4:B5:2E:49:8F:87:78:81:80:EC:E5:B1:B5
    Signature Algorithm: ecdsa-with-SHA384
         30:65:02:30:66:21:0c:18:26:60:5a:38:7b:56:42:e0:a7:fc:
         36:84:51:91:20:2c:76:4d:43:3d:c4:1d:84:23:d0:ac:d6:7c:
         35:06:ce:cd:69:bd:90:0d:db:6c:48:42:1d:0e:aa:42:02:31:
         00:9c:3d:48:39:23:39:58:1a:15:12:59:6a:9e:ef:d5:59:b2:
         1d:52:2c:99:71:cd:c7:29:df:1b:2a:61:7b:71:d1:de:f3:c0:
         e5:0d:3a:4a:aa:2d:a7:d8:86:2a:dd:2e:10
SHA1 Fingerprint=22:D5:D8:DF:8F:02:31:D1:8D:F7:9D:B7:CF:8A:2D:64:C9:3F:6C:3A
-----BEGIN CERTIFICATE-----
MIIDhDCCAwqgAwIBAgIQL4D+I4wOIg9IZxIokYesszAKBggqhkjOPQQDAzCByjEL
MAkGA1UEBhMCVVMxFzAVBgNVBAoTDlZlcmlTaWduLCBJbmMuMR8wHQYDVQQLExZW
ZXJpU2lnbiBUcnVzdCBOZXR3b3JrMTowOAYDVQQLEzEoYykgMjAwNyBWZXJpU2ln
biwgSW5jLiAtIEZvciBhdXRob3JpemVkIHVzZSBvbmx5MUUwQwYDVQQDEzxWZXJp
U2lnbiBDbGFzcyAzIFB1YmxpYyBQcmltYXJ5IENlcnRpZmljYXRpb24gQXV0aG9y
aXR5IC0gRzQwHhcNMDcxMTA1MDAwMDAwWhcNMzgwMTE4MjM1OTU5WjCByjELMAkG
A1UEBhMCVVMxFzAVBgNVBAoTDlZlcmlTaWduLCBJbmMuMR8wHQYDVQQLExZWZXJp
U2lnbiBUcnVzdCBOZXR3b3JrMTowOAYDVQQLEzEoYykgMjAwNyBWZXJpU2lnbiwg
SW5jLiAtIEZvciBhdXRob3JpemVkIHVzZSBvbmx5MUUwQwYDVQQDEzxWZXJpU2ln
biBDbGFzcyAzIFB1YmxpYyBQcmltYXJ5IENlcnRpZmljYXRpb24gQXV0aG9yaXR5
IC0gRzQwdjAQBgcqhkjOPQIBBgUrgQQAIgNiAASnVnp8Utpkmw4tXNherJI9/gHm
GUo9FANL+mAnINmDiWn6VMaaGF5VKmTeBvaNSjutEDxlPZCIBIngMGGzrl0Bp3ve
fLK+ymVhAIau2o970ImtTR1ZmkGxvEeA3J5iw/mjgbIwga8wDwYDVR0TAQH/BAUw
AwEB/zAOBgNVHQ8BAf8EBAMCAQYwbQYIKwYBBQUHAQwEYTBfoV2gWzBZMFcwVRYJ
aW1hZ2UvZ2lmMCEwHzAHBgUrDgMCGgQUj+XTGoasjY5rw8+AatRIGCx7GS4wJRYj
aHR0cDovL2xvZ28udmVyaXNpZ24uY29tL3ZzbG9nby5naWYwHQYDVR0OBBYEFLMW
kf3upm7ktS5Jj4d4gYDs5bG1MAoGCCqGSM49BAMDA2gAMGUCMGYhDBgmYFo4e1ZC
4Kf8NoRRkSAsdk1DPcQdhCPQrNZ8NQbOzWm9kA3bbEhCHQ6qQgIxAJw9SDkjOVga
FRJZap7v1VmyHVIsmXHNxynfGyphe3HR3vPA5Q06Sqotp9iGKt0uEA==
-----END CERTIFICATE-----
