##
##  Verisign Class 2 Public Primary Certification Authority - G3
##
##  This is a single X.509 certificate for a public Certificate
##  Authority (CA). It was automatically extracted from Mozilla's
##  root CA list (the file `certdata.txt' in security/nss).
##
##  Extracted from nss
##  with $FreeBSD: head/secure/caroot/MAca-bundle.pl 352951 2019-10-02 01:27:50Z kevans $
##
##  @generated
##
Certificate:
    Data:
        Version: 1 (0x0)
        Serial Number:
            61:70:cb:49:8c:5f:98:45:29:e7:b0:a6:d9:50:5b:7a
        Signature Algorithm: sha1WithRSAEncryption
        Issuer: C = US, O = "VeriSign, Inc.", OU = VeriSign Trust Network, OU = "(c) 1999 VeriSign, Inc. - For authorized use only", CN = VeriSign Class 2 Public Primary Certification Authority - G3
        Validity
            Not Before: Oct  1 00:00:00 1999 GMT
            Not After : Jul 16 23:59:59 2036 GMT
        Subject: C = US, O = "VeriSign, Inc.", OU = VeriSign Trust Network, OU = "(c) 1999 VeriSign, Inc. - For authorized use only", CN = VeriSign Class 2 Public Primary Certification Authority - G3
        Subject Public Key Info:
            Public Key Algorithm: rsaEncryption
                RSA Public-Key: (2048 bit)
                Modulus:
                    00:af:0a:0d:c2:d5:2c:db:67:b9:2d:e5:94:27:dd:
                    a5:be:e0:b0:4d:8f:b3:61:56:3c:d6:7c:c3:f4:cd:
                    3e:86:cb:a2:88:e2:e1:d8:a4:69:c5:b5:e2:bf:c1:
                    a6:47:50:5e:46:39:8b:d5:96:ba:b5:6f:14:bf:10:
                    ce:27:13:9e:05:47:9b:31:7a:13:d8:1f:d9:d3:02:
                    37:8b:ad:2c:47:f0:8e:81:06:a7:0d:30:0c:eb:f7:
                    3c:0f:20:1d:dc:72:46:ee:a5:02:c8:5b:c3:c9:56:
                    69:4c:c5:18:c1:91:7b:0b:d5:13:00:9b:bc:ef:c3:
                    48:3e:46:60:20:85:2a:d5:90:b6:cd:8b:a0:cc:32:
                    dd:b7:fd:40:55:b2:50:1c:56:ae:cc:8d:77:4d:c7:
                    20:4d:a7:31:76:ef:68:92:8a:90:1e:08:81:56:b2:
                    ad:69:a3:52:d0:cb:1c:c4:23:3d:1f:99:fe:4c:e8:
                    16:63:8e:c6:08:8e:f6:31:f6:d2:fa:e5:76:dd:b5:
                    1c:92:a3:49:cd:cd:01:cd:68:cd:a9:69:ba:a3:eb:
                    1d:0d:9c:a4:20:a6:c1:a0:c5:d1:46:4c:17:6d:d2:
                    ac:66:3f:96:8c:e0:84:d4:36:ff:22:59:c5:f9:11:
                    60:a8:5f:04:7d:f2:1a:f6:25:42:61:0f:c4:4a:b8:
                    3e:89
                Exponent: 65537 (0x10001)
    Signature Algorithm: sha1WithRSAEncryption
         34:26:15:3c:c0:8d:4d:43:49:1d:bd:e9:21:92:d7:66:9c:b7:
         de:c5:b8:d0:e4:5d:5f:76:22:c0:26:f9:84:3a:3a:f9:8c:b5:
         fb:ec:60:f1:e8:ce:04:b0:c8:dd:a7:03:8f:30:f3:98:df:a4:
         e6:a4:31:df:d3:1c:0b:46:dc:72:20:3f:ae:ee:05:3c:a4:33:
         3f:0b:39:ac:70:78:73:4b:99:2b:df:30:c2:54:b0:a8:3b:55:
         a1:fe:16:28:cd:42:bd:74:6e:80:db:27:44:a7:ce:44:5d:d4:
         1b:90:98:0d:1e:42:94:b1:00:2c:04:d0:74:a3:02:05:22:63:
         63:cd:83:b5:fb:c1:6d:62:6b:69:75:fd:5d:70:41:b9:f5:bf:
         7c:df:be:c1:32:73:22:21:8b:58:81:7b:15:91:7a:ba:e3:64:
         48:b0:7f:fb:36:25:da:95:d0:f1:24:14:17:dd:18:80:6b:46:
         23:39:54:f5:8e:62:09:04:1d:94:90:a6:9b:e6:25:e2:42:45:
         aa:b8:90:ad:be:08:8f:a9:0b:42:18:94:cf:72:39:e1:b1:43:
         e0:28:cf:b7:e7:5a:6c:13:6b:49:b3:ff:e3:18:7c:89:8b:33:
         5d:ac:33:d7:a7:f9:da:3a:55:c9:58:10:f9:aa:ef:5a:b6:cf:
         4b:4b:df:2a
SHA1 Fingerprint=61:EF:43:D7:7F:CA:D4:61:51:BC:98:E0:C3:59:12:AF:9F:EB:63:11
-----BEGIN CERTIFICATE-----
MIIEGTCCAwECEGFwy0mMX5hFKeewptlQW3owDQYJKoZIhvcNAQEFBQAwgcoxCzAJ
BgNVBAYTAlVTMRcwFQYDVQQKEw5WZXJpU2lnbiwgSW5jLjEfMB0GA1UECxMWVmVy
aVNpZ24gVHJ1c3QgTmV0d29yazE6MDgGA1UECxMxKGMpIDE5OTkgVmVyaVNpZ24s
IEluYy4gLSBGb3IgYXV0aG9yaXplZCB1c2Ugb25seTFFMEMGA1UEAxM8VmVyaVNp
Z24gQ2xhc3MgMiBQdWJsaWMgUHJpbWFyeSBDZXJ0aWZpY2F0aW9uIEF1dGhvcml0
eSAtIEczMB4XDTk5MTAwMTAwMDAwMFoXDTM2MDcxNjIzNTk1OVowgcoxCzAJBgNV
BAYTAlVTMRcwFQYDVQQKEw5WZXJpU2lnbiwgSW5jLjEfMB0GA1UECxMWVmVyaVNp
Z24gVHJ1c3QgTmV0d29yazE6MDgGA1UECxMxKGMpIDE5OTkgVmVyaVNpZ24sIElu
Yy4gLSBGb3IgYXV0aG9yaXplZCB1c2Ugb25seTFFMEMGA1UEAxM8VmVyaVNpZ24g
Q2xhc3MgMiBQdWJsaWMgUHJpbWFyeSBDZXJ0aWZpY2F0aW9uIEF1dGhvcml0eSAt
IEczMIIBIjANBgkqhkiG9w0BAQEFAAOCAQ8AMIIBCgKCAQEArwoNwtUs22e5LeWU
J92lvuCwTY+zYVY81nzD9M0+hsuiiOLh2KRpxbXiv8GmR1BeRjmL1Za6tW8UvxDO
JxOeBUebMXoT2B/Z0wI3i60sR/COgQanDTAM6/c8DyAd3HJG7qUCyFvDyVZpTMUY
wZF7C9UTAJu878NIPkZgIIUq1ZC2zYugzDLdt/1AVbJQHFauzI13TccgTacxdu9o
koqQHgiBVrKtaaNS0MscxCM9H5n+TOgWY47GCI72MfbS+uV23bUckqNJzc0BzWjN
qWm6o+sdDZykIKbBoMXRRkwXbdKsZj+WjOCE1Db/IlnF+RFgqF8EffIa9iVCYQ/E
Srg+iQIDAQABMA0GCSqGSIb3DQEBBQUAA4IBAQA0JhU8wI1NQ0kdvekhktdmnLfe
xbjQ5F1fdiLAJvmEOjr5jLX77GDx6M4EsMjdpwOPMPOY36TmpDHf0xwLRtxyID+u
7gU8pDM/CzmscHhzS5kr3zDCVLCoO1Wh/hYozUK9dG6A2ydEp85EXdQbkJgNHkKU
sQAsBNB0owIFImNjzYO1+8FtYmtpdf1dcEG59b98377BMnMiIYtYgXsVkXq642RI
sH/7NiXaldDxJBQX3RiAa0YjOVT1jmIJBB2UkKab5iXiQkWquJCtvgiPqQtCGJTP
cjnhsUPgKM+351psE2tJs//jGHyJizNdrDPXp/naOlXJWBD5qu9ats9LS98q
-----END CERTIFICATE-----
