##
##  vTrus ECC Root CA
##
##  This is a single X.509 certificate for a public Certificate
##  Authority (CA). It was automatically extracted from Mozilla's
##  root CA list (the file `certdata.txt' in security/nss).
##
##  It contains a certificate trusted for server authentication.
##
##  Extracted from nss
##
##  @generated
##
Certificate:
    Data:
        Version: 3 (0x2)
        Serial Number:
            6e:6a:bc:59:aa:53:be:98:39:67:a2:d2:6b:a4:3b:e6:6d:1c:d6:da
        Signature Algorithm: ecdsa-with-SHA384
        Issuer: C = CN, O = "iTrusChina Co.,Ltd.", CN = vTrus ECC Root CA
        Validity
            Not Before: Jul 31 07:26:44 2018 GMT
            Not After : Jul 31 07:26:44 2043 GMT
        Subject: C = CN, O = "iTrusChina Co.,Ltd.", CN = vTrus ECC Root CA
        Subject Public Key Info:
            Public Key Algorithm: id-ecPublicKey
                Public-Key: (384 bit)
                pub:
                    04:65:50:4a:ae:8c:79:96:4a:aa:1c:08:c3:a3:a2:
                    cd:fe:59:56:41:77:fd:26:94:42:bb:1d:cd:08:db:
                    73:b2:5b:75:f3:cf:9c:4e:82:f4:bf:f8:61:26:85:
                    6c:d6:85:5b:72:70:d2:fd:db:62:b4:df:53:8b:bd:
                    b1:44:58:62:42:09:c7:fa:7f:5b:10:e7:fe:40:fd:
                    c0:d8:c3:2b:32:e7:70:a6:b7:a6:20:55:1d:7b:80:
                    5d:4b:8f:67:4c:f1:10
                ASN1 OID: secp384r1
                NIST CURVE: P-384
        X509v3 extensions:
            X509v3 Subject Key Identifier: 
                98:39:CD:BE:D8:B2:8C:F7:B2:AB:E1:AD:24:AF:7B:7C:A1:DB:1F:CF
            X509v3 Basic Constraints: critical
                CA:TRUE
            X509v3 Key Usage: critical
                Certificate Sign, CRL Sign
    Signature Algorithm: ecdsa-with-SHA384
    Signature Value:
        30:65:02:30:57:9d:dd:56:f1:c7:e3:e9:b8:49:50:6b:9b:69:
        c3:6f:ec:c3:7d:25:e4:57:95:13:40:9b:52:d3:3b:f3:40:19:
        bc:26:c7:2d:06:9e:b5:7b:36:9f:f5:25:d4:63:6b:00:02:31:
        00:e9:d3:c6:9e:56:9a:2a:cc:a1:da:3f:c8:66:2b:d3:58:9c:
        20:85:fa:ab:91:8a:70:70:11:38:60:64:0b:62:09:91:58:00:
        f9:4d:fb:34:68:da:09:ad:21:06:18:94:ce
SHA1 Fingerprint=F6:9C:DB:B0:FC:F6:02:13:B6:52:32:A6:A3:91:3F:16:70:DA:C3:E1
-----BEGIN CERTIFICATE-----
MIICDzCCAZWgAwIBAgIUbmq8WapTvpg5Z6LSa6Q75m0c1towCgYIKoZIzj0EAwMw
RzELMAkGA1UEBhMCQ04xHDAaBgNVBAoTE2lUcnVzQ2hpbmEgQ28uLEx0ZC4xGjAY
BgNVBAMTEXZUcnVzIEVDQyBSb290IENBMB4XDTE4MDczMTA3MjY0NFoXDTQzMDcz
MTA3MjY0NFowRzELMAkGA1UEBhMCQ04xHDAaBgNVBAoTE2lUcnVzQ2hpbmEgQ28u
LEx0ZC4xGjAYBgNVBAMTEXZUcnVzIEVDQyBSb290IENBMHYwEAYHKoZIzj0CAQYF
K4EEACIDYgAEZVBKrox5lkqqHAjDo6LN/llWQXf9JpRCux3NCNtzslt188+cToL0
v/hhJoVs1oVbcnDS/dtitN9Ti72xRFhiQgnH+n9bEOf+QP3A2MMrMudwpremIFUd
e4BdS49nTPEQo0IwQDAdBgNVHQ4EFgQUmDnNvtiyjPeyq+GtJK97fKHbH88wDwYD
VR0TAQH/BAUwAwEB/zAOBgNVHQ8BAf8EBAMCAQYwCgYIKoZIzj0EAwMDaAAwZQIw
V53dVvHH4+m4SVBrm2nDb+zDfSXkV5UTQJtS0zvzQBm8JsctBp61ezaf9SXUY2sA
AjEA6dPGnlaaKsyh2j/IZivTWJwghfqrkYpwcBE4YGQLYgmRWAD5Tfs0aNoJrSEG
GJTO
-----END CERTIFICATE-----
