##
##  vTrus Root CA
##
##  This is a single X.509 certificate for a public Certificate
##  Authority (CA). It was automatically extracted from Mozilla's
##  root CA list (the file `certdata.txt' in security/nss).
##
##  It contains a certificate trusted for server authentication.
##
##  Extracted from nss
##
##  @generated
##
Certificate:
    Data:
        Version: 3 (0x2)
        Serial Number:
            43:e3:71:13:d8:b3:59:14:5d:b7:ce:8c:fd:35:fd:6f:bc:05:8d:45
        Signature Algorithm: sha256WithRSAEncryption
        Issuer: C = CN, O = "iTrusChina Co.,Ltd.", CN = vTrus Root CA
        Validity
            Not Before: Jul 31 07:24:05 2018 GMT
            Not After : Jul 31 07:24:05 2043 GMT
        Subject: C = CN, O = "iTrusChina Co.,Ltd.", CN = vTrus Root CA
        Subject Public Key Info:
            Public Key Algorithm: rsaEncryption
                Public-Key: (4096 bit)
                Modulus:
                    00:bd:55:7c:61:d3:b8:1d:04:62:05:a0:ae:6c:b7:
                    70:b4:41:ea:4b:03:5e:10:3f:90:5a:1c:8b:3b:b0:
                    66:8b:6c:48:a6:1c:22:ba:d5:40:92:ee:33:b2:23:
                    59:c9:8e:bc:58:da:8b:9e:d0:19:f2:2f:59:c6:8c:
                    63:5a:ba:9f:a3:0b:b0:b3:9a:5c:ba:11:b8:12:e9:
                    0c:bb:cf:6e:6c:80:87:29:14:03:2c:8d:24:9a:c8:
                    64:83:b5:6a:ac:13:2c:33:f1:9f:dc:2c:61:3c:1a:
                    3f:70:55:9b:ad:00:52:7f:cf:04:b9:fe:36:fa:9c:
                    c0:16:ae:62:fe:96:4c:43:7e:55:14:be:1a:b3:d2:
                    6d:c2:af:76:66:95:6b:2a:b0:94:77:85:5e:04:0f:
                    62:1d:63:75:f7:6b:e7:cb:5b:9a:70:ec:3e:67:05:
                    f0:fe:07:08:80:cf:28:db:05:c6:14:27:2f:86:7d:
                    f0:27:de:ff:e6:7e:33:48:e7:0b:1e:58:d1:27:2b:
                    53:0e:57:4a:65:d7:fb:a2:80:60:fc:4c:bc:35:53:
                    01:6a:97:72:82:af:f1:1d:70:e8:9c:f5:ef:5e:c2:
                    6c:c7:47:7e:5a:94:85:26:4d:3b:ba:eb:4c:e8:b0:
                    09:c2:65:c2:9d:9d:09:9b:4e:b5:97:05:ac:f5:06:
                    a0:f7:36:05:7e:f4:90:b2:6b:c4:b4:f9:64:ea:e9:
                    1a:0a:c8:0d:a8:ed:27:c9:d4:e7:b3:b9:ab:82:22:
                    90:27:3d:2a:e8:7c:90:ef:bc:4f:fd:e2:0a:24:a7:
                    de:65:24:a4:5d:ea:c0:76:30:d3:77:50:f8:0d:04:
                    9b:94:36:01:73:ca:06:58:a6:d3:3b:dc:fa:04:46:
                    13:55:8a:c9:44:47:b8:51:39:1a:2e:e8:34:e2:79:
                    cb:59:4a:0a:7f:bc:a6:ef:1f:03:67:6a:59:2b:25:
                    62:93:d9:53:19:66:3c:27:62:29:86:4d:a4:6b:ee:
                    ff:d4:4e:ba:d5:b4:e2:8e:48:5a:00:19:09:f1:05:
                    d9:ce:91:b1:f7:eb:e9:39:4f:f6:6f:04:43:9a:55:
                    f5:3e:05:14:bd:bf:b3:59:b4:d8:8e:33:84:a3:90:
                    52:aa:b3:02:95:60:f9:0c:4c:68:f9:ee:d5:17:0d:
                    f8:71:57:b5:25:e4:29:ee:65:5d:af:d1:ee:3c:17:
                    0b:5a:43:c5:a5:86:ea:24:9e:e2:05:07:dc:34:42:
                    12:91:d6:39:74:ae:4c:41:82:db:f2:a6:48:d1:b3:
                    9b:f3:33:aa:f3:a6:c0:c5:4e:f5:f4:9d:76:63:e6:
                    02:c6:22:4b:c1:95:3f:50:64:2c:54:e5:b6:f0:3c:
                    29:cf:57
                Exponent: 65537 (0x10001)
        X509v3 extensions:
            X509v3 Subject Key Identifier: 
                54:62:70:63:F1:75:84:43:58:8E:D1:16:20:B1:C6:AC:1A:BC:F6:89
            X509v3 Basic Constraints: critical
                CA:TRUE
            X509v3 Key Usage: critical
                Certificate Sign, CRL Sign
    Signature Algorithm: sha256WithRSAEncryption
    Signature Value:
        29:ba:92:49:a7:ad:f0:f1:70:c3:e4:97:f0:9f:a9:25:d5:6b:
        9e:34:fe:e6:1a:64:f6:3a:6b:52:b2:10:78:1a:9f:4c:da:8a:
        da:ec:1c:37:52:e0:42:4b:fb:6c:76:ca:24:0b:39:12:15:9d:
        9f:11:2d:fc:79:64:dc:e0:e0:f5:dd:e0:57:c9:a5:b2:76:70:
        50:a4:fe:b7:0a:70:d5:a0:34:f1:75:d7:4d:49:ba:11:d1:b3:
        d8:ec:82:ff:eb:0e:c4:bf:64:2d:7d:63:6e:17:78:ec:5d:7c:
        88:c8:eb:8e:57:76:d9:59:04:fa:bc:52:1f:45:ac:f0:7a:80:
        ec:ec:6f:76:ae:91:db:10:8e:04:dc:92:df:a0:f6:e6:ae:49:
        d3:c1:6c:12:1b:cc:29:aa:f9:08:a5:e2:37:14:ca:b1:b8:66:
        ef:1a:82:e4:f0:f8:f1:a7:16:69:b7:db:a9:61:3c:9f:f5:31:
        cb:e4:00:46:c2:2f:74:b1:b1:d7:81:ee:a8:26:95:bc:88:af:
        4c:35:07:2a:02:ca:78:14:6d:47:2b:40:56:e9:cb:2a:60:a1:
        67:03:a0:ce:8c:bc:b0:72:67:c4:31:ce:db:34:e5:25:03:60:
        25:7b:71:98:e4:c0:1b:2b:5f:74:42:d2:4b:c5:59:08:07:87:
        be:c5:c3:7f:e7:96:d9:e1:dc:28:97:d6:8f:05:e3:f5:9b:4e:
        ca:1d:50:47:05:53:b0:ca:39:e7:85:a0:89:c1:05:3b:01:37:
        d3:3f:49:e2:77:eb:23:c8:88:66:3b:3d:39:76:21:46:f1:ec:
        5f:23:b8:eb:a2:66:75:74:c1:40:f7:d8:68:9a:93:e2:2d:a9:
        2e:bd:1c:a3:1e:c8:74:c6:a4:2d:7a:20:ab:3b:b8:b0:46:fd:
        6f:dd:5f:52:55:75:62:f0:97:a0:7c:d7:38:fd:25:df:cd:a0:
        9b:10:cf:8b:b8:38:5e:5e:c5:b4:a6:02:36:a1:1e:5f:1c:cf:
        e2:96:9d:29:aa:fd:98:ae:52:e1:f3:41:52:fb:a9:2e:72:96:
        9f:27:e3:aa:73:7d:f8:1a:23:66:7b:3b:ab:65:b0:32:01:4b:
        15:3e:3d:a2:4f:0c:2b:35:a2:c6:d9:67:12:35:30:cd:76:2e:
        16:b3:99:9e:4d:4f:4e:2d:3b:34:43:e1:9a:0e:0d:a4:66:97:
        ba:d2:1c:4a:4c:2c:2a:8b:8b:81:4f:71:1a:a9:dd:5c:7b:7b:
        08:c5:00:0d:37:40:e3:7c:7b:54:5f:2f:85:5f:76:f6:f7:a7:
        b0:1c:57:56:c1:72:e8:ad:a2:af:8d:33:49:ba:1f:8a:dc:e6:
        74:7c:60:86:6f:87:97:7b
SHA1 Fingerprint=84:1A:69:FB:F5:CD:1A:25:34:13:3D:E3:F8:FC:B8:99:D0:C9:14:B7
-----BEGIN CERTIFICATE-----
MIIFVjCCAz6gAwIBAgIUQ+NxE9izWRRdt86M/TX9b7wFjUUwDQYJKoZIhvcNAQEL
BQAwQzELMAkGA1UEBhMCQ04xHDAaBgNVBAoTE2lUcnVzQ2hpbmEgQ28uLEx0ZC4x
FjAUBgNVBAMTDXZUcnVzIFJvb3QgQ0EwHhcNMTgwNzMxMDcyNDA1WhcNNDMwNzMx
MDcyNDA1WjBDMQswCQYDVQQGEwJDTjEcMBoGA1UEChMTaVRydXNDaGluYSBDby4s
THRkLjEWMBQGA1UEAxMNdlRydXMgUm9vdCBDQTCCAiIwDQYJKoZIhvcNAQEBBQAD
ggIPADCCAgoCggIBAL1VfGHTuB0EYgWgrmy3cLRB6ksDXhA/kFocizuwZotsSKYc
IrrVQJLuM7IjWcmOvFjai57QGfIvWcaMY1q6n6MLsLOaXLoRuBLpDLvPbmyAhykU
AyyNJJrIZIO1aqwTLDPxn9wsYTwaP3BVm60AUn/PBLn+NvqcwBauYv6WTEN+VRS+
GrPSbcKvdmaVayqwlHeFXgQPYh1jdfdr58tbmnDsPmcF8P4HCIDPKNsFxhQnL4Z9
8Cfe/+Z+M0jnCx5Y0ScrUw5XSmXX+6KAYPxMvDVTAWqXcoKv8R1w6Jz1717CbMdH
flqUhSZNO7rrTOiwCcJlwp2dCZtOtZcFrPUGoPc2BX70kLJrxLT5ZOrpGgrIDajt
J8nU57O5q4IikCc9Kuh8kO+8T/3iCiSn3mUkpF3qwHYw03dQ+A0Em5Q2AXPKBlim
0zvc+gRGE1WKyURHuFE5Gi7oNOJ5y1lKCn+8pu8fA2dqWSslYpPZUxlmPCdiKYZN
pGvu/9ROutW04o5IWgAZCfEF2c6Rsffr6TlP9m8EQ5pV9T4FFL2/s1m02I4zhKOQ
UqqzApVg+QxMaPnu1RcN+HFXtSXkKe5lXa/R7jwXC1pDxaWG6iSe4gUH3DRCEpHW
OXSuTEGC2/KmSNGzm/MzqvOmwMVO9fSddmPmAsYiS8GVP1BkLFTltvA8Kc9XAgMB
AAGjQjBAMB0GA1UdDgQWBBRUYnBj8XWEQ1iO0RYgscasGrz2iTAPBgNVHRMBAf8E
BTADAQH/MA4GA1UdDwEB/wQEAwIBBjANBgkqhkiG9w0BAQsFAAOCAgEAKbqSSaet
8PFww+SX8J+pJdVrnjT+5hpk9jprUrIQeBqfTNqK2uwcN1LgQkv7bHbKJAs5EhWd
nxEt/Hlk3ODg9d3gV8mlsnZwUKT+twpw1aA08XXXTUm6EdGz2OyC/+sOxL9kLX1j
bhd47F18iMjrjld22VkE+rxSH0Ws8HqA7Oxvdq6R2xCOBNyS36D25q5J08FsEhvM
Kar5CKXiNxTKsbhm7xqC5PD48acWabfbqWE8n/Uxy+QARsIvdLGx14HuqCaVvIiv
TDUHKgLKeBRtRytAVunLKmChZwOgzoy8sHJnxDHO2zTlJQNgJXtxmOTAGytfdELS
S8VZCAeHvsXDf+eW2eHcKJfWjwXj9ZtOyh1QRwVTsMo554WgicEFOwE30z9J4nfr
I8iIZjs9OXYhRvHsXyO466JmdXTBQPfYaJqT4i2pLr0cox7IdMakLXogqzu4sEb9
b91fUlV1YvCXoHzXOP0l382gmxDPi7g4Xl7FtKYCNqEeXxzP4padKar9mK5S4fNB
UvupLnKWnyfjqnN9+BojZns7q2WwMgFLFT49ok8MKzWixtlnEjUwzXYuFrOZnk1P
Ti07NEPhmg4NpGaXutIcSkwsKouLgU9xGqndXHt7CMUADTdA43x7VF8vhV929ven
sBxXVsFy6K2ir40zSbofitzmdHxghm+Hl3s=
-----END CERTIFICATE-----
