##
##  E-Tugra Global Root CA RSA v3
##
##  This is a single X.509 certificate for a public Certificate
##  Authority (CA). It was automatically extracted from Mozilla's
##  root CA list (the file `certdata.txt' in security/nss).
##
##  It contains a certificate trusted for server authentication.
##
##  Extracted from nss
##
##  @generated
##
Certificate:
    Data:
        Version: 3 (0x2)
        Serial Number:
            0d:4d:c5:cd:16:22:95:96:08:7e:b8:0b:7f:15:06:34:fb:79:10:34
        Signature Algorithm: sha256WithRSAEncryption
        Issuer: C = TR, L = Ankara, O = E-Tugra EBG A.S., OU = E-Tugra Trust Center, CN = E-Tugra Global Root CA RSA v3
        Validity
            Not Before: Mar 18 09:07:17 2020 GMT
            Not After : Mar 12 09:07:17 2045 GMT
        Subject: C = TR, L = Ankara, O = E-Tugra EBG A.S., OU = E-Tugra Trust Center, CN = E-Tugra Global Root CA RSA v3
        Subject Public Key Info:
            Public Key Algorithm: rsaEncryption
                Public-Key: (4096 bit)
                Modulus:
                    00:a2:66:f0:89:b7:72:7b:ee:09:c9:63:d2:d3:43:
                    dd:5e:c3:a6:84:38:4a:f1:8d:81:bb:14:bd:47:e8:
                    40:17:f3:3d:c3:78:45:72:a6:2e:90:de:9a:3a:d4:
                    20:71:ca:bc:9f:1d:4b:97:0a:c7:31:ba:3e:d7:fe:
                    25:a9:2a:8e:36:f4:d1:2f:c7:b7:a9:5d:33:dc:30:
                    70:f8:40:6c:4b:b2:a6:31:61:d1:34:3c:3d:31:7a:
                    c7:af:c4:a7:a7:84:e1:97:a4:e8:4b:f6:17:7c:ee:
                    3c:07:ed:e2:8a:57:dc:b6:fb:f8:43:25:50:ea:27:
                    81:a8:86:bc:8f:52:4a:96:3a:60:1a:96:bb:fd:73:
                    f4:85:fd:83:fd:7f:84:6d:34:6c:7f:6a:b7:4b:01:
                    03:bf:ad:69:b7:d7:32:d9:f5:57:6a:e9:86:82:3e:
                    a5:66:31:b3:16:3d:c2:f3:26:60:32:d3:52:1e:b0:
                    6c:a4:37:3e:f4:f5:af:eb:e1:df:80:06:cf:2a:41:
                    e7:66:09:e1:4b:97:e7:77:bd:21:6d:29:b6:67:c3:
                    2d:7e:ed:d6:79:65:d1:cf:3a:b6:d1:b1:5e:56:61:
                    50:7a:5a:ce:4e:50:31:80:03:98:47:e7:e4:18:7c:
                    44:5a:c6:a4:b3:3b:c6:c6:c3:3a:f0:6c:c3:8b:c8:
                    a4:91:05:f3:f5:d9:b6:aa:06:a1:b7:ab:e4:b1:ea:
                    21:14:5c:83:a4:fc:ff:b6:50:d3:8c:12:26:99:76:
                    70:e9:c0:0f:a6:74:fc:bb:d0:1b:78:ce:72:92:e2:
                    28:9c:bc:e6:e9:09:d8:3a:d3:89:e6:be:2e:77:df:
                    01:0a:6f:96:f6:e5:8d:3c:4d:52:76:1a:56:e1:73:
                    7e:17:ac:3d:ad:6c:a3:52:12:18:70:e6:80:4e:33:
                    f2:7e:26:32:ac:05:8d:38:a4:e6:76:3c:9f:10:69:
                    0e:6d:9d:d2:c1:79:20:6b:5b:cf:33:8d:d1:94:76:
                    35:e7:5d:55:c7:b7:ac:28:ab:46:cc:e7:3b:21:b5:
                    0a:0a:e4:4a:59:dc:81:35:4b:44:95:12:0a:67:a5:
                    a1:ff:5b:00:07:d2:c0:cc:f9:3f:fc:9f:33:f2:00:
                    f8:8c:6c:87:9d:06:2d:f1:ef:e3:e6:06:fa:c5:66:
                    13:5b:fc:50:07:9e:71:86:b2:da:6f:74:30:cf:93:
                    53:e8:dc:22:d6:de:20:1f:61:8d:a3:2e:a3:78:32:
                    90:6c:dc:ac:32:b5:05:e4:f5:3c:33:0d:d6:e0:87:
                    77:17:4c:9d:b0:d8:09:a8:0d:57:f7:44:85:f0:c8:
                    04:be:5c:5d:5a:e3:17:8e:54:63:69:7f:49:74:64:
                    05:8c:a3
                Exponent: 65537 (0x10001)
        X509v3 extensions:
            X509v3 Basic Constraints: critical
                CA:TRUE
            X509v3 Authority Key Identifier: 
                B2:B4:AE:E6:2D:F7:26:D5:AA:75:2D:76:4B:C0:1B:53:21:D0:48:EF
            X509v3 Subject Key Identifier: 
                B2:B4:AE:E6:2D:F7:26:D5:AA:75:2D:76:4B:C0:1B:53:21:D0:48:EF
            X509v3 Key Usage: critical
                Certificate Sign, CRL Sign
    Signature Algorithm: sha256WithRSAEncryption
    Signature Value:
        89:a8:72:7f:8c:eb:ce:2e:18:c4:10:80:2d:10:0c:ff:fb:14:
        cd:04:e0:14:3c:4e:9a:fb:9f:29:bf:22:9e:57:b9:82:73:12:
        63:26:b5:cc:90:e9:d2:2a:29:ee:9c:2d:cc:2c:99:be:45:27:
        e4:b1:71:ed:e4:38:95:31:41:f2:7d:7a:63:78:df:ca:36:16:
        2f:82:88:9f:bc:11:47:4f:76:4d:c8:2d:8e:eb:df:2d:7c:4e:
        3b:da:ae:f6:e3:da:5d:14:a6:ae:e8:85:44:9d:06:6e:8e:fb:
        ef:7a:4a:6a:2d:2b:28:18:fe:bf:90:2c:75:16:9f:0f:ea:96:
        7d:05:ee:9b:13:a5:44:6c:f8:03:d0:dd:23:e1:fd:03:12:12:
        08:f4:18:34:b3:e0:37:0b:77:11:01:48:bf:61:b4:b5:f8:19:
        d9:cb:4d:ea:a3:8c:ef:fd:f0:06:b5:6d:92:f4:4a:61:50:84:
        ed:ec:49:d3:e4:be:68:e6:2e:e3:31:0b:54:0b:1a:92:d6:82:
        d8:b6:a2:65:3c:66:04:f9:55:da:6c:fb:db:b5:14:66:4d:94:
        83:3b:cd:1e:a6:2b:b2:fe:77:40:86:ab:e7:df:0a:c9:fd:f6:
        dd:87:56:18:d8:b0:2c:55:60:96:fa:08:7e:52:90:f5:4b:a6:
        2e:87:7c:cb:20:db:06:3e:a0:5d:03:77:7d:a2:3c:13:1b:29:
        a2:13:55:a0:3d:14:22:af:6f:b8:d0:9a:1b:72:dd:05:01:8d:
        86:60:bf:a4:67:ee:b5:a5:0d:d1:7f:e6:1a:2b:62:66:c3:07:
        ba:e7:a0:48:1c:38:c3:e9:45:fb:a7:7f:fc:ed:02:68:1a:ca:
        77:12:77:a6:00:55:28:14:ec:d6:c7:12:a2:1b:65:42:e9:91:
        e8:cb:3e:87:89:54:5d:d9:af:9d:97:9c:69:e7:0a:ff:0f:5a:
        78:8b:63:2a:4c:7d:47:94:3f:de:4b:e9:53:d0:30:f1:c5:f6:
        9e:49:df:3b:a0:91:a3:a3:fe:cd:58:cc:ea:df:af:6f:28:3b:
        a0:69:9b:8f:ec:ac:ae:2b:54:9d:9b:04:b1:47:20:af:96:12:
        3e:63:94:1d:04:e7:2e:bb:86:c7:0c:9a:88:bf:76:47:ef:f7:
        b0:0b:97:66:d2:44:cf:60:52:07:e1:d5:2c:4a:3a:27:61:77:
        ca:d7:8f:e7:87:0e:30:ff:0c:bb:04:e2:61:c3:a2:c8:97:61:
        8e:b4:30:6a:3c:6d:c2:07:5f:4a:73:2f:3f:f9:16:8a:01:66:
        ef:ba:91:ca:52:57:7b:ae:d4:e6:0f:dd:0b:7a:7f:8b:9e:26:
        20:cf:3b:ef:81:71:83:59
SHA1 Fingerprint=E9:A8:5D:22:14:52:1C:5B:AA:0A:B4:BE:24:6A:23:8A:C9:BA:E2:A9
-----BEGIN CERTIFICATE-----
MIIF8zCCA9ugAwIBAgIUDU3FzRYilZYIfrgLfxUGNPt5EDQwDQYJKoZIhvcNAQEL
BQAwgYAxCzAJBgNVBAYTAlRSMQ8wDQYDVQQHEwZBbmthcmExGTAXBgNVBAoTEEUt
VHVncmEgRUJHIEEuUy4xHTAbBgNVBAsTFEUtVHVncmEgVHJ1c3QgQ2VudGVyMSYw
JAYDVQQDEx1FLVR1Z3JhIEdsb2JhbCBSb290IENBIFJTQSB2MzAeFw0yMDAzMTgw
OTA3MTdaFw00NTAzMTIwOTA3MTdaMIGAMQswCQYDVQQGEwJUUjEPMA0GA1UEBxMG
QW5rYXJhMRkwFwYDVQQKExBFLVR1Z3JhIEVCRyBBLlMuMR0wGwYDVQQLExRFLVR1
Z3JhIFRydXN0IENlbnRlcjEmMCQGA1UEAxMdRS1UdWdyYSBHbG9iYWwgUm9vdCBD
QSBSU0EgdjMwggIiMA0GCSqGSIb3DQEBAQUAA4ICDwAwggIKAoICAQCiZvCJt3J7
7gnJY9LTQ91ew6aEOErxjYG7FL1H6EAX8z3DeEVypi6Q3po61CBxyryfHUuXCscx
uj7X/iWpKo429NEvx7epXTPcMHD4QGxLsqYxYdE0PD0xesevxKenhOGXpOhL9hd8
7jwH7eKKV9y2+/hDJVDqJ4GohryPUkqWOmAalrv9c/SF/YP9f4RtNGx/ardLAQO/
rWm31zLZ9Vdq6YaCPqVmMbMWPcLzJmAy01IesGykNz709a/r4d+ABs8qQedmCeFL
l+d3vSFtKbZnwy1+7dZ5ZdHPOrbRsV5WYVB6Ws5OUDGAA5hH5+QYfERaxqSzO8bG
wzrwbMOLyKSRBfP12baqBqG3q+Sx6iEUXIOk/P+2UNOMEiaZdnDpwA+mdPy70Bt4
znKS4iicvObpCdg604nmvi533wEKb5b25Y08TVJ2Glbhc34XrD2tbKNSEhhw5oBO
M/J+JjKsBY04pOZ2PJ8QaQ5tndLBeSBrW88zjdGUdjXnXVXHt6woq0bM5zshtQoK
5EpZ3IE1S0SVEgpnpaH/WwAH0sDM+T/8nzPyAPiMbIedBi3x7+PmBvrFZhNb/FAH
nnGGstpvdDDPk1Po3CLW3iAfYY2jLqN4MpBs3KwytQXk9TwzDdbgh3cXTJ2w2Amo
DVf3RIXwyAS+XF1a4xeOVGNpf0l0ZAWMowIDAQABo2MwYTAPBgNVHRMBAf8EBTAD
AQH/MB8GA1UdIwQYMBaAFLK0ruYt9ybVqnUtdkvAG1Mh0EjvMB0GA1UdDgQWBBSy
tK7mLfcm1ap1LXZLwBtTIdBI7zAOBgNVHQ8BAf8EBAMCAQYwDQYJKoZIhvcNAQEL
BQADggIBAImocn+M684uGMQQgC0QDP/7FM0E4BQ8Tpr7nym/Ip5XuYJzEmMmtcyQ
6dIqKe6cLcwsmb5FJ+Sxce3kOJUxQfJ9emN438o2Fi+CiJ+8EUdPdk3ILY7r3y18
Tjvarvbj2l0Upq7ohUSdBm6O++96SmotKygY/r+QLHUWnw/qln0F7psTpURs+APQ
3SPh/QMSEgj0GDSz4DcLdxEBSL9htLX4GdnLTeqjjO/98Aa1bZL0SmFQhO3sSdPk
vmjmLuMxC1QLGpLWgti2omU8ZgT5Vdps+9u1FGZNlIM7zR6mK7L+d0CGq+ffCsn9
9t2HVhjYsCxVYJb6CH5SkPVLpi6HfMsg2wY+oF0Dd32iPBMbKaITVaA9FCKvb7jQ
mhty3QUBjYZgv6Rn7rWlDdF/5horYmbDB7rnoEgcOMPpRfunf/ztAmgayncSd6YA
VSgU7NbHEqIbZULpkejLPoeJVF3Zr52XnGnnCv8PWniLYypMfUeUP95L6VPQMPHF
9p5J3zugkaOj/s1YzOrfr28oO6Bpm4/srK4rVJ2bBLFHIK+WEj5jlB0E5y67hscM
moi/dkfv97ALl2bSRM9gUgfh1SxKOidhd8rXj+eHDjD/DLsE4mHDosiXYY60MGo8
bcIHX0pzLz/5FooBZu+6kcpSV3uu1OYP3Qt6f4ueJiDPO++BcYNZ
-----END CERTIFICATE-----
