##
##  GeoTrust Primary Certification Authority - G3
##
##  This is a single X.509 certificate for a public Certificate
##  Authority (CA). It was automatically extracted from Mozilla's
##  root CA list (the file `certdata.txt' in security/nss).
##
##  Extracted from nss
##  with $FreeBSD: head/secure/caroot/MAca-bundle.pl 352951 2019-10-02 01:27:50Z kevans $
##
##  @generated
##
Certificate:
    Data:
        Version: 3 (0x2)
        Serial Number:
            15:ac:6e:94:19:b2:79:4b:41:f6:27:a9:c3:18:0f:1f
        Signature Algorithm: sha256WithRSAEncryption
        Issuer: C = US, O = GeoTrust Inc., OU = (c) 2008 GeoTrust Inc. - For authorized use only, CN = GeoTrust Primary Certification Authority - G3
        Validity
            Not Before: Apr  2 00:00:00 2008 GMT
            Not After : Dec  1 23:59:59 2037 GMT
        Subject: C = US, O = GeoTrust Inc., OU = (c) 2008 GeoTrust Inc. - For authorized use only, CN = GeoTrust Primary Certification Authority - G3
        Subject Public Key Info:
            Public Key Algorithm: rsaEncryption
                RSA Public-Key: (2048 bit)
                Modulus:
                    00:dc:e2:5e:62:58:1d:33:57:39:32:33:fa:eb:cb:
                    87:8c:a7:d4:4a:dd:06:88:ea:64:8e:31:98:a5:38:
                    90:1e:98:cf:2e:63:2b:f0:46:bc:44:b2:89:a1:c0:
                    28:0c:49:70:21:95:9f:64:c0:a6:93:12:02:65:26:
                    86:c6:a5:89:f0:fa:d7:84:a0:70:af:4f:1a:97:3f:
                    06:44:d5:c9:eb:72:10:7d:e4:31:28:fb:1c:61:e6:
                    28:07:44:73:92:22:69:a7:03:88:6c:9d:63:c8:52:
                    da:98:27:e7:08:4c:70:3e:b4:c9:12:c1:c5:67:83:
                    5d:33:f3:03:11:ec:6a:d0:53:e2:d1:ba:36:60:94:
                    80:bb:61:63:6c:5b:17:7e:df:40:94:1e:ab:0d:c2:
                    21:28:70:88:ff:d6:26:6c:6c:60:04:25:4e:55:7e:
                    7d:ef:bf:94:48:de:b7:1d:dd:70:8d:05:5f:88:a5:
                    9b:f2:c2:ee:ea:d1:40:41:6d:62:38:1d:56:06:c5:
                    03:47:51:20:19:fc:7b:10:0b:0e:62:ae:76:55:bf:
                    5f:77:be:3e:49:01:53:3d:98:25:03:76:24:5a:1d:
                    b4:db:89:ea:79:e5:b6:b3:3b:3f:ba:4c:28:41:7f:
                    06:ac:6a:8e:c1:d0:f6:05:1d:7d:e6:42:86:e3:a5:
                    d5:47
                Exponent: 65537 (0x10001)
        X509v3 extensions:
            X509v3 Basic Constraints: critical
                CA:TRUE
            X509v3 Key Usage: critical
                Certificate Sign, CRL Sign
            X509v3 Subject Key Identifier: 
                C4:79:CA:8E:A1:4E:03:1D:1C:DC:6B:DB:31:5B:94:3E:3F:30:7F:2D
    Signature Algorithm: sha256WithRSAEncryption
         2d:c5:13:cf:56:80:7b:7a:78:bd:9f:ae:2c:99:e7:ef:da:df:
         94:5e:09:69:a7:e7:6e:68:8c:bd:72:be:47:a9:0e:97:12:b8:
         4a:f1:64:d3:39:df:25:34:d4:c1:cd:4e:81:f0:0f:04:c4:24:
         b3:34:96:c6:a6:aa:30:df:68:61:73:d7:f9:8e:85:89:ef:0e:
         5e:95:28:4a:2a:27:8f:10:8e:2e:7c:86:c4:02:9e:da:0c:77:
         65:0e:44:0d:92:fd:fd:b3:16:36:fa:11:0d:1d:8c:0e:07:89:
         6a:29:56:f7:72:f4:dd:15:9c:77:35:66:57:ab:13:53:d8:8e:
         c1:40:c5:d7:13:16:5a:72:c7:b7:69:01:c4:7a:b1:83:01:68:
         7d:8d:41:a1:94:18:c1:25:5c:fc:f0:fe:83:02:87:7c:0d:0d:
         cf:2e:08:5c:4a:40:0d:3e:ec:81:61:e6:24:db:ca:e0:0e:2d:
         07:b2:3e:56:dc:8d:f5:41:85:07:48:9b:0c:0b:cb:49:3f:7d:
         ec:b7:fd:cb:8d:67:89:1a:ab:ed:bb:1e:a3:00:08:08:17:2a:
         82:5c:31:5d:46:8a:2d:0f:86:9b:74:d9:45:fb:d4:40:b1:7a:
         aa:68:2d:86:b2:99:22:e1:c1:2b:c7:9c:f8:f3:5f:a8:82:12:
         eb:19:11:2d
SHA1 Fingerprint=03:9E:ED:B8:0B:E7:A0:3C:69:53:89:3B:20:D2:D9:32:3A:4C:2A:FD
-----BEGIN CERTIFICATE-----
MIID/jCCAuagAwIBAgIQFaxulBmyeUtB9iepwxgPHzANBgkqhkiG9w0BAQsFADCB
mDELMAkGA1UEBhMCVVMxFjAUBgNVBAoTDUdlb1RydXN0IEluYy4xOTA3BgNVBAsT
MChjKSAyMDA4IEdlb1RydXN0IEluYy4gLSBGb3IgYXV0aG9yaXplZCB1c2Ugb25s
eTE2MDQGA1UEAxMtR2VvVHJ1c3QgUHJpbWFyeSBDZXJ0aWZpY2F0aW9uIEF1dGhv
cml0eSAtIEczMB4XDTA4MDQwMjAwMDAwMFoXDTM3MTIwMTIzNTk1OVowgZgxCzAJ
BgNVBAYTAlVTMRYwFAYDVQQKEw1HZW9UcnVzdCBJbmMuMTkwNwYDVQQLEzAoYykg
MjAwOCBHZW9UcnVzdCBJbmMuIC0gRm9yIGF1dGhvcml6ZWQgdXNlIG9ubHkxNjA0
BgNVBAMTLUdlb1RydXN0IFByaW1hcnkgQ2VydGlmaWNhdGlvbiBBdXRob3JpdHkg
LSBHMzCCASIwDQYJKoZIhvcNAQEBBQADggEPADCCAQoCggEBANziXmJYHTNXOTIz
+uvLh4yn1ErdBojqZI4xmKU4kB6Yzy5jK/BGvESyiaHAKAxJcCGVn2TAppMSAmUm
hsalifD614SgcK9PGpc/BkTVyetyEH3kMSj7HGHmKAdEc5IiaacDiGydY8hS2pgn
5whMcD60yRLBxWeDXTPzAxHsatBT4tG6NmCUgLthY2xbF37fQJQeqw3CIShwiP/W
JmxsYAQlTlV+fe+/lEjetx3dcI0FX4ilm/LC7urRQEFtYjgdVgbFA0dRIBn8exAL
DmKudlW/X3e+PkkBUz2YJQN2JFodtNuJ6nnltrM7P7pMKEF/BqxqjsHQ9gUdfeZC
huOl1UcCAwEAAaNCMEAwDwYDVR0TAQH/BAUwAwEB/zAOBgNVHQ8BAf8EBAMCAQYw
HQYDVR0OBBYEFMR5yo6hTgMdHNxr2zFblD4/MH8tMA0GCSqGSIb3DQEBCwUAA4IB
AQAtxRPPVoB7eni9n64smefv2t+UXglpp+duaIy9cr5HqQ6XErhK8WTTOd8lNNTB
zU6B8A8ExCSzNJbGpqow32hhc9f5joWJ7w5elShKKiePEI4ufIbEAp7aDHdlDkQN
kv39sxY2+hENHYwOB4lqKVb3cvTdFZx3NWZXqxNT2I7BQMXXExZacse3aQHEerGD
AWh9jUGhlBjBJVz88P6DAod8DQ3PLghcSkANPuyBYeYk28rgDi0Hsj5W3I31QYUH
SJsMC8tJP33st/3LjWeJGqvtux6jAAgIFyqCXDFdRootD4abdNlF+9RAsXqqaC2G
spki4cErx5z481+oghLrGREt
-----END CERTIFICATE-----
