##
##  OISTE WISeKey Global Root GA CA
##
##  This is a single X.509 certificate for a public Certificate
##  Authority (CA). It was automatically extracted from Mozilla's
##  root CA list (the file `certdata.txt' in security/nss).
##
##  Extracted from nss
##  with $FreeBSD: head/secure/caroot/MAca-bundle.pl 352951 2019-10-02 01:27:50Z kevans $
##
##  @generated
##
Certificate:
    Data:
        Version: 3 (0x2)
        Serial Number:
            41:3d:72:c7:f4:6b:1f:81:43:7d:f1:d2:28:54:df:9a
        Signature Algorithm: sha1WithRSAEncryption
        Issuer: C = CH, O = WISeKey, OU = Copyright (c) 2005, OU = OISTE Foundation Endorsed, CN = OISTE WISeKey Global Root GA CA
        Validity
            Not Before: Dec 11 16:03:44 2005 GMT
            Not After : Dec 11 16:09:51 2037 GMT
        Subject: C = CH, O = WISeKey, OU = Copyright (c) 2005, OU = OISTE Foundation Endorsed, CN = OISTE WISeKey Global Root GA CA
        Subject Public Key Info:
            Public Key Algorithm: rsaEncryption
                RSA Public-Key: (2048 bit)
                Modulus:
                    00:cb:4f:b3:00:9b:3d:36:dd:f9:d1:49:6a:6b:10:
                    49:1f:ec:d8:2b:b2:c6:f8:32:81:29:43:95:4c:9a:
                    19:23:21:15:45:de:e3:c8:1c:51:55:5b:ae:93:e8:
                    37:ff:2b:6b:e9:d4:ea:be:2a:dd:a8:51:2b:d7:66:
                    c3:61:5c:60:02:c8:f5:ce:72:7b:3b:b8:f2:4e:65:
                    08:9a:cd:a4:6a:19:c1:01:bb:73:a6:d7:f6:c3:dd:
                    cd:bc:a4:8b:b5:99:61:b8:01:a2:a3:d4:4d:d4:05:
                    3d:91:ad:f8:b4:08:71:64:af:70:f1:1c:6b:7e:f6:
                    c3:77:9d:24:73:7b:e4:0c:8c:e1:d9:36:e1:99:8b:
                    05:99:0b:ed:45:31:09:ca:c2:00:db:f7:72:a0:96:
                    aa:95:87:d0:8e:c7:b6:61:73:0d:76:66:8c:dc:1b:
                    b4:63:a2:9f:7f:93:13:30:f1:a1:27:db:d9:ff:2c:
                    55:88:91:a0:e0:4f:07:b0:28:56:8c:18:1b:97:44:
                    8e:89:dd:e0:17:6e:e7:2a:ef:8f:39:0a:31:84:82:
                    d8:40:14:49:2e:7a:41:e4:a7:fe:e3:64:cc:c1:59:
                    71:4b:2c:21:a7:5b:7d:e0:1d:d1:2e:81:9b:c3:d8:
                    68:f7:bd:96:1b:ac:70:b1:16:14:0b:db:60:b9:26:
                    01:05
                Exponent: 65537 (0x10001)
        X509v3 extensions:
            X509v3 Key Usage: 
                Digital Signature, Certificate Sign, CRL Sign
            X509v3 Basic Constraints: critical
                CA:TRUE
            X509v3 Subject Key Identifier: 
                B3:03:7E:AE:36:BC:B0:79:D1:DC:94:26:B6:11:BE:21:B2:69:86:94
            1.3.6.1.4.1.311.21.1: 
                ...
    Signature Algorithm: sha1WithRSAEncryption
         4b:a1:ff:0b:87:6e:b3:f9:c1:43:b1:48:f3:28:c0:1d:2e:c9:
         09:41:fa:94:00:1c:a4:a4:ab:49:4f:8f:3d:1e:ef:4d:6f:bd:
         bc:a4:f6:f2:26:30:c9:10:ca:1d:88:fb:74:19:1f:85:45:bd:
         b0:6c:51:f9:36:7e:db:f5:4c:32:3a:41:4f:5b:47:cf:e8:0b:
         2d:b6:c4:19:9d:74:c5:47:c6:3b:6a:0f:ac:14:db:3c:f4:73:
         9c:a9:05:df:00:dc:74:78:fa:f8:35:60:59:02:13:18:7c:bc:
         fb:4d:b0:20:6d:43:bb:60:30:7a:67:33:5c:c5:99:d1:f8:2d:
         39:52:73:fb:8c:aa:97:25:5c:72:d9:08:1e:ab:4e:3c:e3:81:
         31:9f:03:a6:fb:c0:fe:29:88:55:da:84:d5:50:03:b6:e2:84:
         a3:a6:36:aa:11:3a:01:e1:18:4b:d6:44:68:b3:3d:f9:53:74:
         84:b3:46:91:46:96:00:b7:80:2c:b6:e1:e3:10:e2:db:a2:e7:
         28:8f:01:96:62:16:3e:00:e3:1c:a5:36:81:18:a2:4c:52:76:
         c0:11:a3:6e:e6:1d:ba:e3:5a:be:36:53:c5:3e:75:8f:86:69:
         29:58:53:b5:9c:bb:6f:9f:5c:c5:18:ec:dd:2f:e1:98:c9:fc:
         be:df:0a:0d
SHA1 Fingerprint=59:22:A1:E1:5A:EA:16:35:21:F8:98:39:6A:46:46:B0:44:1B:0F:A9
-----BEGIN CERTIFICATE-----
MIID8TCCAtmgAwIBAgIQQT1yx/RrH4FDffHSKFTfmjANBgkqhkiG9w0BAQUFADCB
ijELMAkGA1UEBhMCQ0gxEDAOBgNVBAoTB1dJU2VLZXkxGzAZBgNVBAsTEkNvcHly
aWdodCAoYykgMjAwNTEiMCAGA1UECxMZT0lTVEUgRm91bmRhdGlvbiBFbmRvcnNl
ZDEoMCYGA1UEAxMfT0lTVEUgV0lTZUtleSBHbG9iYWwgUm9vdCBHQSBDQTAeFw0w
NTEyMTExNjAzNDRaFw0zNzEyMTExNjA5NTFaMIGKMQswCQYDVQQGEwJDSDEQMA4G
A1UEChMHV0lTZUtleTEbMBkGA1UECxMSQ29weXJpZ2h0IChjKSAyMDA1MSIwIAYD
VQQLExlPSVNURSBGb3VuZGF0aW9uIEVuZG9yc2VkMSgwJgYDVQQDEx9PSVNURSBX
SVNlS2V5IEdsb2JhbCBSb290IEdBIENBMIIBIjANBgkqhkiG9w0BAQEFAAOCAQ8A
MIIBCgKCAQEAy0+zAJs9Nt350UlqaxBJH+zYK7LG+DKBKUOVTJoZIyEVRd7jyBxR
VVuuk+g3/ytr6dTqvirdqFEr12bDYVxgAsj1znJ7O7jyTmUIms2kahnBAbtzptf2
w93NvKSLtZlhuAGio9RN1AU9ka34tAhxZK9w8RxrfvbDd50kc3vkDIzh2TbhmYsF
mQvtRTEJysIA2/dyoJaqlYfQjse2YXMNdmaM3Bu0Y6Kff5MTMPGhJ9vZ/yxViJGg
4E8HsChWjBgbl0SOid3gF27nKu+POQoxhILYQBRJLnpB5Kf+42TMwVlxSywhp1t9
4B3RLoGbw9ho972WG6xwsRYUC9tguSYBBQIDAQABo1EwTzALBgNVHQ8EBAMCAYYw
DwYDVR0TAQH/BAUwAwEB/zAdBgNVHQ4EFgQUswN+rja8sHnR3JQmthG+IbJphpQw
EAYJKwYBBAGCNxUBBAMCAQAwDQYJKoZIhvcNAQEFBQADggEBAEuh/wuHbrP5wUOx
SPMowB0uyQlB+pQAHKSkq0lPjz0e701vvbyk9vImMMkQyh2I+3QZH4VFvbBsUfk2
ftv1TDI6QU9bR8/oCy22xBmddMVHxjtqD6wU2zz0c5ypBd8A3HR4+vg1YFkCExh8
vPtNsCBtQ7tgMHpnM1zFmdH4LTlSc/uMqpclXHLZCB6rTjzjgTGfA6b7wP4piFXa
hNVQA7bihKOmNqoROgHhGEvWRGizPflTdISzRpFGlgC3gCy24eMQ4tui5yiPAZZi
Fj4A4xylNoEYokxSdsARo27mHbrjWr42U8U+dY+GaSlYU7Wcu2+fXMUY7N0v4ZjJ
/L7fCg0=
-----END CERTIFICATE-----
