##
##  Verisign Class 1 Public Primary Certification Authority - G3
##
##  This is a single X.509 certificate for a public Certificate
##  Authority (CA). It was automatically extracted from Mozilla's
##  root CA list (the file `certdata.txt' in security/nss).
##
##  Extracted from nss
##  with $FreeBSD: head/secure/caroot/MAca-bundle.pl 352951 2019-10-02 01:27:50Z kevans $
##
##  @generated
##
Certificate:
    Data:
        Version: 1 (0x0)
        Serial Number:
            8b:5b:75:56:84:54:85:0b:00:cf:af:38:48:ce:b1:a4
        Signature Algorithm: sha1WithRSAEncryption
        Issuer: C = US, O = "VeriSign, Inc.", OU = VeriSign Trust Network, OU = "(c) 1999 VeriSign, Inc. - For authorized use only", CN = VeriSign Class 1 Public Primary Certification Authority - G3
        Validity
            Not Before: Oct  1 00:00:00 1999 GMT
            Not After : Jul 16 23:59:59 2036 GMT
        Subject: C = US, O = "VeriSign, Inc.", OU = VeriSign Trust Network, OU = "(c) 1999 VeriSign, Inc. - For authorized use only", CN = VeriSign Class 1 Public Primary Certification Authority - G3
        Subject Public Key Info:
            Public Key Algorithm: rsaEncryption
                RSA Public-Key: (2048 bit)
                Modulus:
                    00:dd:84:d4:b9:b4:f9:a7:d8:f3:04:78:9c:de:3d:
                    dc:6c:13:16:d9:7a:dd:24:51:66:c0:c7:26:59:0d:
                    ac:06:08:c2:94:d1:33:1f:f0:83:35:1f:6e:1b:c8:
                    de:aa:6e:15:4e:54:27:ef:c4:6d:1a:ec:0b:e3:0e:
                    f0:44:a5:57:c7:40:58:1e:a3:47:1f:71:ec:60:f6:
                    6d:94:c8:18:39:ed:fe:42:18:56:df:e4:4c:49:10:
                    78:4e:01:76:35:63:12:36:dd:66:bc:01:04:36:a3:
                    55:68:d5:a2:36:09:ac:ab:21:26:54:06:ad:3f:ca:
                    14:e0:ac:ca:ad:06:1d:95:e2:f8:9d:f1:e0:60:ff:
                    c2:7f:75:2b:4c:cc:da:fe:87:99:21:ea:ba:fe:3e:
                    54:d7:d2:59:78:db:3c:6e:cf:a0:13:00:1a:b8:27:
                    a1:e4:be:67:96:ca:a0:c5:b3:9c:dd:c9:75:9e:eb:
                    30:9a:5f:a3:cd:d9:ae:78:19:3f:23:e9:5c:db:29:
                    bd:ad:55:c8:1b:54:8c:63:f6:e8:a6:ea:c7:37:12:
                    5c:a3:29:1e:02:d9:db:1f:3b:b4:d7:0f:56:47:81:
                    15:04:4a:af:83:27:d1:c5:58:88:c1:dd:f6:aa:a7:
                    a3:18:da:68:aa:6d:11:51:e1:bf:65:6b:9f:96:76:
                    d1:3d
                Exponent: 65537 (0x10001)
    Signature Algorithm: sha1WithRSAEncryption
         ab:66:8d:d7:b3:ba:c7:9a:b6:e6:55:d0:05:f1:9f:31:8d:5a:
         aa:d9:aa:46:26:0f:71:ed:a5:ad:53:56:62:01:47:2a:44:e9:
         fe:3f:74:0b:13:9b:b9:f4:4d:1b:b2:d1:5f:b2:b6:d2:88:5c:
         b3:9f:cd:cb:d4:a7:d9:60:95:84:3a:f8:c1:37:1d:61:ca:e7:
         b0:c5:e5:91:da:54:a6:ac:31:81:ae:97:de:cd:08:ac:b8:c0:
         97:80:7f:6e:72:a4:e7:69:13:95:65:1f:c4:93:3c:fd:79:8f:
         04:d4:3e:4f:ea:f7:9e:ce:cd:67:7c:4f:65:02:ff:91:85:54:
         73:c7:ff:36:f7:86:2d:ec:d0:5e:4f:ff:11:9f:72:06:d6:b8:
         1a:f1:4c:0d:26:65:e2:44:80:1e:c7:9f:e3:dd:e8:0a:da:ec:
         a5:20:80:69:68:a1:4f:7e:e1:6b:cf:07:41:fa:83:8e:bc:38:
         dd:b0:2e:11:b1:6b:b2:42:cc:9a:bc:f9:48:22:79:4a:19:0f:
         b2:1c:3e:20:74:d9:6a:c3:be:f2:28:78:13:56:79:4f:6d:50:
         ea:1b:b0:b5:57:b1:37:66:58:23:f3:dc:0f:df:0a:87:c4:ef:
         86:05:d5:38:14:60:99:a3:4b:de:06:96:71:2c:f2:db:b6:1f:
         a4:ef:3f:ee
SHA1 Fingerprint=20:42:85:DC:F7:EB:76:41:95:57:8E:13:6B:D4:B7:D1:E9:8E:46:A5
-----BEGIN CERTIFICATE-----
MIIEGjCCAwICEQCLW3VWhFSFCwDPrzhIzrGkMA0GCSqGSIb3DQEBBQUAMIHKMQsw
CQYDVQQGEwJVUzEXMBUGA1UEChMOVmVyaVNpZ24sIEluYy4xHzAdBgNVBAsTFlZl
cmlTaWduIFRydXN0IE5ldHdvcmsxOjA4BgNVBAsTMShjKSAxOTk5IFZlcmlTaWdu
LCBJbmMuIC0gRm9yIGF1dGhvcml6ZWQgdXNlIG9ubHkxRTBDBgNVBAMTPFZlcmlT
aWduIENsYXNzIDEgUHVibGljIFByaW1hcnkgQ2VydGlmaWNhdGlvbiBBdXRob3Jp
dHkgLSBHMzAeFw05OTEwMDEwMDAwMDBaFw0zNjA3MTYyMzU5NTlaMIHKMQswCQYD
VQQGEwJVUzEXMBUGA1UEChMOVmVyaVNpZ24sIEluYy4xHzAdBgNVBAsTFlZlcmlT
aWduIFRydXN0IE5ldHdvcmsxOjA4BgNVBAsTMShjKSAxOTk5IFZlcmlTaWduLCBJ
bmMuIC0gRm9yIGF1dGhvcml6ZWQgdXNlIG9ubHkxRTBDBgNVBAMTPFZlcmlTaWdu
IENsYXNzIDEgUHVibGljIFByaW1hcnkgQ2VydGlmaWNhdGlvbiBBdXRob3JpdHkg
LSBHMzCCASIwDQYJKoZIhvcNAQEBBQADggEPADCCAQoCggEBAN2E1Lm0+afY8wR4
nN493GwTFtl63SRRZsDHJlkNrAYIwpTRMx/wgzUfbhvI3qpuFU5UJ+/EbRrsC+MO
8ESlV8dAWB6jRx9x7GD2bZTIGDnt/kIYVt/kTEkQeE4BdjVjEjbdZrwBBDajVWjV
ojYJrKshJlQGrT/KFOCsyq0GHZXi+J3x4GD/wn91K0zM2v6HmSHquv4+VNfSWXjb
PG7PoBMAGrgnoeS+Z5bKoMWznN3JdZ7rMJpfo83ZrngZPyPpXNspva1VyBtUjGP2
6KbqxzcSXKMpHgLZ2x87tNcPVkeBFQRKr4Mn0cVYiMHd9qqnoxjaaKptEVHhv2Vr
n5Z20T0CAwEAATANBgkqhkiG9w0BAQUFAAOCAQEAq2aN17O6x5q25lXQBfGfMY1a
qtmqRiYPce2lrVNWYgFHKkTp/j90CxObufRNG7LRX7K20ohcs5/Ny9Sn2WCVhDr4
wTcdYcrnsMXlkdpUpqwxga6X3s0IrLjAl4B/bnKk52kTlWUfxJM8/XmPBNQ+T+r3
ns7NZ3xPZQL/kYVUc8f/NveGLezQXk//EZ9yBta4GvFMDSZl4kSAHsef493oCtrs
pSCAaWihT37ha88HQfqDjrw43bAuEbFrskLMmrz5SCJ5ShkPshw+IHTZasO+8ih4
E1Z5T21Q6huwtVexN2ZYI/PcD98Kh8TvhgXVOBRgmaNL3gaWcSzy27YfpO8/7g==
-----END CERTIFICATE-----
