Archive member included       because of file (symbol)

/home/dfr/FreeBSD/alpha/src/lib/libstand/obj/libstand.a(ufs.o)
                              conf.o (ufs_fsops)
/home/dfr/FreeBSD/alpha/src/lib/libstand/obj/libstand.a(stat.o)
                              ls.o (stat)
/home/dfr/FreeBSD/alpha/src/lib/libstand/obj/libstand.a(__reml.o)
                              /home/dfr/FreeBSD/alpha/src/lib/libstand/obj/libstand.a(ufs.o) (__reml)
/home/dfr/FreeBSD/alpha/src/lib/libstand/obj/libstand.a(__remlu.o)
                              /home/dfr/FreeBSD/alpha/src/lib/libstand/obj/libstand.a(ufs.o) (__remlu)
/home/dfr/FreeBSD/alpha/src/lib/libstand/obj/libstand.a(__divl.o)
                              /home/dfr/FreeBSD/alpha/src/lib/libstand/obj/libstand.a(ufs.o) (__divl)
/home/dfr/FreeBSD/alpha/src/lib/libstand/obj/libstand.a(__divlu.o)
                              /home/dfr/FreeBSD/alpha/src/lib/libstand/obj/libstand.a(ufs.o) (__divlu)
/home/dfr/FreeBSD/alpha/src/lib/libstand/obj/libstand.a(strncpy.o)
                              boot.o (strncpy)
/home/dfr/FreeBSD/alpha/src/lib/libstand/obj/libstand.a(strcat.o)
                              misc.o (strcat)
/home/dfr/FreeBSD/alpha/src/lib/libstand/obj/libstand.a(pager.o)
                              commands.o (pager_open)
/home/dfr/FreeBSD/alpha/src/lib/libstand/obj/libstand.a(getopt.o)
                              ls.o (optind)
/home/dfr/FreeBSD/alpha/src/lib/libstand/obj/libstand.a(environment.o)
                              commands.o (environ)
/home/dfr/FreeBSD/alpha/src/lib/libstand/obj/libstand.a(strtol.o)
                              boot.o (strtol)
/home/dfr/FreeBSD/alpha/src/lib/libstand/obj/libstand.a(strchr.o)
                              boot.o (strchr)
/home/dfr/FreeBSD/alpha/src/lib/libstand/obj/libstand.a(strerror.o)
                              commands.o (strerror)
/home/dfr/FreeBSD/alpha/src/lib/libstand/obj/libstand.a(strdup.o)
                              /home/dfr/FreeBSD/alpha/src/lib/libstand/obj/libstand.a(environment.o) (strdup)
/home/dfr/FreeBSD/alpha/src/lib/libstand/obj/libstand.a(gets.o)
                              interp.o (ngets)
/home/dfr/FreeBSD/alpha/src/lib/libstand/obj/libstand.a(zipfs.o)
                              conf.o (zipfs_fsops)
/home/dfr/FreeBSD/alpha/src/lib/libstand/obj/libstand.a(read.o)
                              ls.o (read)
/home/dfr/FreeBSD/alpha/src/lib/libstand/obj/libstand.a(open.o)
                              /home/dfr/FreeBSD/alpha/src/lib/libstand/obj/libstand.a(read.o) (files)
/home/dfr/FreeBSD/alpha/src/lib/libstand/obj/libstand.a(close.o)
                              interp.o (close)
/home/dfr/FreeBSD/alpha/src/lib/libstand/obj/libstand.a(fstat.o)
                              ls.o (fstat)
/home/dfr/FreeBSD/alpha/src/lib/libstand/obj/libstand.a(nullfs.o)
                              /home/dfr/FreeBSD/alpha/src/lib/libstand/obj/libstand.a(ufs.o) (null_write)
/home/dfr/FreeBSD/alpha/src/lib/libstand/obj/libstand.a(inflate.o)
                              /home/dfr/FreeBSD/alpha/src/lib/libstand/obj/libstand.a(zipfs.o) (inflateEnd)
/home/dfr/FreeBSD/alpha/src/lib/libstand/obj/libstand.a(infblock.o)
                              /home/dfr/FreeBSD/alpha/src/lib/libstand/obj/libstand.a(inflate.o) (inflate_blocks_reset)
/home/dfr/FreeBSD/alpha/src/lib/libstand/obj/libstand.a(adler32.o)
                              /home/dfr/FreeBSD/alpha/src/lib/libstand/obj/libstand.a(inflate.o) (adler32)
/home/dfr/FreeBSD/alpha/src/lib/libstand/obj/libstand.a(strrchr.o)
                              /home/dfr/FreeBSD/alpha/src/lib/libstand/obj/libstand.a(zipfs.o) (strrchr)
/home/dfr/FreeBSD/alpha/src/lib/libstand/obj/libstand.a(strcmp.o)
                              console.o (strcmp)
/home/dfr/FreeBSD/alpha/src/lib/libstand/obj/libstand.a(twiddle.o)
                              /home/dfr/FreeBSD/alpha/src/lib/libstand/obj/libstand.a(ufs.o) (twiddle)
/home/dfr/FreeBSD/alpha/src/lib/libstand/obj/libstand.a(zutil.o)
                              /home/dfr/FreeBSD/alpha/src/lib/libstand/obj/libstand.a(inflate.o) (zcalloc)
/home/dfr/FreeBSD/alpha/src/lib/libstand/obj/libstand.a(inftrees.o)
                              /home/dfr/FreeBSD/alpha/src/lib/libstand/obj/libstand.a(infblock.o) (inflate_trees_bits)
/home/dfr/FreeBSD/alpha/src/lib/libstand/obj/libstand.a(infcodes.o)
                              /home/dfr/FreeBSD/alpha/src/lib/libstand/obj/libstand.a(infblock.o) (inflate_codes_new)
/home/dfr/FreeBSD/alpha/src/lib/libstand/obj/libstand.a(alloc.o)
                              main.o (setheap)
/home/dfr/FreeBSD/alpha/src/lib/libstand/obj/libstand.a(inffast.o)
                              /home/dfr/FreeBSD/alpha/src/lib/libstand/obj/libstand.a(infcodes.o) (inflate_fast)
/home/dfr/FreeBSD/alpha/src/lib/libstand/obj/libstand.a(infutil.o)
                              /home/dfr/FreeBSD/alpha/src/lib/libstand/obj/libstand.a(infblock.o) (inflate_mask)
/home/dfr/FreeBSD/alpha/src/lib/libstand/obj/libstand.a(bcopy.o)
                              interp.o (bcopy)
/home/dfr/FreeBSD/alpha/src/lib/libstand/obj/libstand.a(globals.o)
                              interp.o (errno)
/home/dfr/FreeBSD/alpha/src/lib/libstand/obj/libstand.a(bzero.o)
                              start.o (bzero)
/home/dfr/FreeBSD/alpha/src/lib/libstand/obj/libstand.a(printf.o)
                              main.o (printf)
/home/dfr/FreeBSD/alpha/src/lib/libstand/obj/libstand.a(__remqu.o)
                              /home/dfr/FreeBSD/alpha/src/lib/libstand/obj/libstand.a(strtol.o) (__remqu)
/home/dfr/FreeBSD/alpha/src/lib/libstand/obj/libstand.a(__divqu.o)
                              /home/dfr/FreeBSD/alpha/src/lib/libstand/obj/libstand.a(strtol.o) (__divqu)
/home/dfr/FreeBSD/alpha/src/lib/libstand/obj/libstand.a(strlen.o)
                              boot.o (strlen)
/home/dfr/FreeBSD/alpha/src/lib/libstand/obj/libstand.a(bcd.o)
                              /home/dfr/FreeBSD/alpha/src/lib/libstand/obj/libstand.a(printf.o) (hex2ascii_data)
/mnt/herring/b/dfr/FreeBSD/boot/newboot/alpha/boot2/../libalpha/obj/libalpha.a(srmdisk.o)
                              conf.o (srmdisk)
/mnt/herring/b/dfr/FreeBSD/boot/newboot/alpha/boot2/../libalpha/obj/libalpha.a(devicename.o)
                              main.o (alpha_getdev)
/mnt/herring/b/dfr/FreeBSD/boot/newboot/alpha/boot2/../libalpha/obj/libalpha.a(alpha_module.o)
                              main.o (alpha_boot)
/mnt/herring/b/dfr/FreeBSD/boot/newboot/alpha/boot2/../libalpha/obj/libalpha.a(time.o)
                              boot.o (time)
/mnt/herring/b/dfr/FreeBSD/boot/newboot/alpha/boot2/../libalpha/obj/libalpha.a(delay.o)
                              main.o (delay)
/mnt/herring/b/dfr/FreeBSD/boot/newboot/alpha/boot2/../libalpha/obj/libalpha.a(reboot.o)
                              main.o (reboot)
/mnt/herring/b/dfr/FreeBSD/boot/newboot/alpha/boot2/../libalpha/obj/libalpha.a(elf_freebsd.o)
                              conf.o (alpha_elf)
/mnt/herring/b/dfr/FreeBSD/boot/newboot/alpha/boot2/../libalpha/obj/libalpha.a(OSFpal.o)
                              main.o (OSFpal)
/mnt/herring/b/dfr/FreeBSD/boot/newboot/alpha/boot2/../libalpha/obj/libalpha.a(getsecs.o)
                              /mnt/herring/b/dfr/FreeBSD/boot/newboot/alpha/boot2/../libalpha/obj/libalpha.a(time.o) (getsecs)
/mnt/herring/b/dfr/FreeBSD/boot/newboot/alpha/boot2/../libalpha/obj/libalpha.a(pal.o)
                              /mnt/herring/b/dfr/FreeBSD/boot/newboot/alpha/boot2/../libalpha/obj/libalpha.a(delay.o) (alpha_rpcc)
/mnt/herring/b/dfr/FreeBSD/boot/newboot/alpha/boot2/../libalpha/obj/libalpha.a(prom_swpal.o)
                              /mnt/herring/b/dfr/FreeBSD/boot/newboot/alpha/boot2/../libalpha/obj/libalpha.a(OSFpal.o) (switch_palcode)
/mnt/herring/b/dfr/FreeBSD/boot/newboot/alpha/boot2/../libalpha/obj/libalpha.a(prom.o)
                              conf.o (promconsole)
/mnt/herring/b/dfr/FreeBSD/boot/newboot/alpha/boot2/../libalpha/obj/libalpha.a(prom_disp.o)
                              /mnt/herring/b/dfr/FreeBSD/boot/newboot/alpha/boot2/../libalpha/obj/libalpha.a(prom.o) (prom_dispatch_v)
/home/dfr/FreeBSD/alpha/src/lib/libstand/obj/libstand.a(lseek.o)
                              /mnt/herring/b/dfr/FreeBSD/boot/newboot/alpha/boot2/../libalpha/obj/libalpha.a(elf_freebsd.o) (lseek)
/home/dfr/FreeBSD/alpha/src/lib/libstand/obj/libstand.a(dev.o)
                              /mnt/herring/b/dfr/FreeBSD/boot/newboot/alpha/boot2/../libalpha/obj/libalpha.a(srmdisk.o) (noioctl)
/home/dfr/FreeBSD/alpha/src/lib/libstand/obj/libstand.a(closeall.o)
                              /mnt/herring/b/dfr/FreeBSD/boot/newboot/alpha/boot2/../libalpha/obj/libalpha.a(elf_freebsd.o) (closeall)
/home/dfr/FreeBSD/alpha/src/lib/libstand/obj/libstand.a(strncmp.o)
                              /mnt/herring/b/dfr/FreeBSD/boot/newboot/alpha/boot2/../libalpha/obj/libalpha.a(devicename.o) (strncmp)
/home/dfr/FreeBSD/alpha/src/lib/libstand/obj/libstand.a(strcpy.o)
                              /mnt/herring/b/dfr/FreeBSD/boot/newboot/alpha/boot2/../libalpha/obj/libalpha.a(devicename.o) (strcpy)

Allocating common symbols
Common symbol       size              file

domainname          0x80              /home/dfr/FreeBSD/alpha/src/lib/libstand/obj/libstand.a(globals.o)
nameip              0x4               /home/dfr/FreeBSD/alpha/src/lib/libstand/obj/libstand.a(globals.o)
hostnamelen         0x4               /home/dfr/FreeBSD/alpha/src/lib/libstand/obj/libstand.a(globals.o)
command_errmsg      0x8               commands.o
errno               0x4               /home/dfr/FreeBSD/alpha/src/lib/libstand/obj/libstand.a(globals.o)
ffp_save            0x8               /mnt/herring/b/dfr/FreeBSD/boot/newboot/alpha/boot2/../libalpha/obj/libalpha.a(elf_freebsd.o)
swapip              0x4               /home/dfr/FreeBSD/alpha/src/lib/libstand/obj/libstand.a(globals.o)
rootip              0x4               /home/dfr/FreeBSD/alpha/src/lib/libstand/obj/libstand.a(globals.o)
optarg              0x8               /home/dfr/FreeBSD/alpha/src/lib/libstand/obj/libstand.a(getopt.o)
myip                0x4               /home/dfr/FreeBSD/alpha/src/lib/libstand/obj/libstand.a(globals.o)
hostname            0x80              /home/dfr/FreeBSD/alpha/src/lib/libstand/obj/libstand.a(globals.o)
archsw              0x18              main.o
ssym                0x8               /mnt/herring/b/dfr/FreeBSD/boot/newboot/alpha/boot2/../libalpha/obj/libalpha.a(elf_freebsd.o)
console             0x4               /mnt/herring/b/dfr/FreeBSD/boot/newboot/alpha/boot2/../libalpha/obj/libalpha.a(prom.o)
command_errbuf      0x100             commands.o
currdev             0x18              main.o
bootfile            0x80              /home/dfr/FreeBSD/alpha/src/lib/libstand/obj/libstand.a(globals.o)
ptbr_save           0x8               /mnt/herring/b/dfr/FreeBSD/boot/newboot/alpha/boot2/../libalpha/obj/libalpha.a(elf_freebsd.o)
gateip              0x4               /home/dfr/FreeBSD/alpha/src/lib/libstand/obj/libstand.a(globals.o)
files               0x180             /home/dfr/FreeBSD/alpha/src/lib/libstand/obj/libstand.a(open.o)
ifname              0x10              /home/dfr/FreeBSD/alpha/src/lib/libstand/obj/libstand.a(globals.o)
domainnamelen       0x4               /home/dfr/FreeBSD/alpha/src/lib/libstand/obj/libstand.a(globals.o)
optreset            0x4               /home/dfr/FreeBSD/alpha/src/lib/libstand/obj/libstand.a(getopt.o)
optopt              0x4               /home/dfr/FreeBSD/alpha/src/lib/libstand/obj/libstand.a(getopt.o)
prom_dispatch_v     0x10              /mnt/herring/b/dfr/FreeBSD/boot/newboot/alpha/boot2/../libalpha/obj/libalpha.a(prom_disp.o)
esym                0x8               /mnt/herring/b/dfr/FreeBSD/boot/newboot/alpha/boot2/../libalpha/obj/libalpha.a(elf_freebsd.o)

Memory Configuration

Name             Origin             Length            
*default*        0x0000000000000000 0xffffffffffffffff

Linker script and memory map

Address of section .text set to 0x2000c000
LOAD start.o
LOAD setdef0.o
LOAD main.o
LOAD conf.o
LOAD boot.o
LOAD commands.o
LOAD console.o
LOAD devopen.o
LOAD interp.o
LOAD ls.o
LOAD misc.o
LOAD module.o
LOAD panic.o
LOAD setdef1.o
LOAD vers.o
LOAD /home/dfr/FreeBSD/alpha/src/lib/libstand/obj/libstand.a
LOAD /mnt/herring/b/dfr/FreeBSD/boot/newboot/alpha/boot2/../libalpha/obj/libalpha.a
LOAD /home/dfr/FreeBSD/alpha/src/lib/libstand/obj/libstand.a
                0x00000001200000b0                .=(0x120000000+SIZEOF_HEADERS)

.interp
 *(.interp)

.hash
 *(.hash)

.dynsym
 *(.dynsym)

.dynstr
 *(.dynstr)

.gnu.version
 *(.gnu.version)

.gnu.version_d
 *(.gnu.version_d)

.gnu.version_r
 *(.gnu.version_r)

.rel.text
 *(.rel.text)
 *(.rel.gnu.linkonce.t*)

.rela.text
 *(.rela.text)
 *(.rela.gnu.linkonce.t*)

.rel.data
 *(.rel.data)
 *(.rel.gnu.linkonce.d*)

.rela.data      0x00000001200000b0        0x0
 *(.rela.data)
 *(.rela.gnu.linkonce.d*)

.rela.set.Xcommand_set
                0x00000001200000b0        0x0

.rel.rodata
 *(.rel.rodata)
 *(.rel.gnu.linkonce.r*)

.rela.rodata
 *(.rela.rodata)
 *(.rela.gnu.linkonce.r*)

.rel.got
 *(.rel.got)

.rela.got
 *(.rela.got)

.rel.ctors
 *(.rel.ctors)

.rela.ctors
 *(.rela.ctors)

.rel.dtors
 *(.rel.dtors)

.rela.dtors
 *(.rela.dtors)

.rel.init
 *(.rel.init)

.rela.init
 *(.rela.init)

.rel.fini
 *(.rel.fini)

.rela.fini
 *(.rela.fini)

.rel.bss
 *(.rel.bss)

.rela.bss
 *(.rela.bss)

.rel.plt
 *(.rel.plt)

.rela.plt
 *(.rela.plt)

.init
 *(.init)

.text           0x000000002000c000     0xe4c0
 *(.text)
 .text          0x000000002000c000       0x50 start.o
                0x000000002000c044                __main
                0x000000002000c040                _rtt
                0x000000002000c048                cpu_number
                0x000000002000c040                halt
                0x000000002000c000                start
 *fill*         0x000000002000c050       0x10 1207895071
 .text          0x000000002000c060      0x3e0 main.o
                0x000000002000c060                memsize
                0x000000002000c0c8                main
 .text          0x000000002000c440      0x580 boot.o
                0x000000002000c6e8                autoboot
 .text          0x000000002000c9c0      0x3e0 commands.o
 .text          0x000000002000cda0      0x480 console.o
                0x000000002000cff8                putchar
                0x000000002000cda0                cons_probe
                0x000000002000cf68                ischar
                0x000000002000cea8                getchar
 .text          0x000000002000d220       0xf0 devopen.o
                0x000000002000d2d0                devclose
                0x000000002000d220                devopen
 *fill*         0x000000002000d310       0x10 1207895071
 .text          0x000000002000d320      0x5c0 interp.o
                0x000000002000d5e8                interact
                0x000000002000d700                source
 .text          0x000000002000d8e0      0x480 ls.o
 .text          0x000000002000dd60      0x140 misc.o
                0x000000002000dd60                unargv
 .text          0x000000002000dea0      0x3a0 module.o
                0x000000002000e178                mod_findmodule
                0x000000002000dfd0                mod_load
 .text          0x000000002000e240       0xf0 panic.o
                0x000000002000e240                panic
 *fill*         0x000000002000e330       0x10 1207895071
 .text          0x000000002000e340      0xf80 /home/dfr/FreeBSD/alpha/src/lib/libstand/obj/libstand.a(ufs.o)
 .text          0x000000002000f2c0       0x90 /home/dfr/FreeBSD/alpha/src/lib/libstand/obj/libstand.a(stat.o)
                0x000000002000f2c0                stat
 .text          0x000000002000f350      0x130 /home/dfr/FreeBSD/alpha/src/lib/libstand/obj/libstand.a(__reml.o)
                0x000000002000f350                __reml
 .text          0x000000002000f480       0xec /home/dfr/FreeBSD/alpha/src/lib/libstand/obj/libstand.a(__remlu.o)
                0x000000002000f480                __remlu
 .text          0x000000002000f56c      0x128 /home/dfr/FreeBSD/alpha/src/lib/libstand/obj/libstand.a(__divl.o)
                0x000000002000f56c                __divl
 .text          0x000000002000f694       0xe4 /home/dfr/FreeBSD/alpha/src/lib/libstand/obj/libstand.a(__divlu.o)
                0x000000002000f694                __divlu
 *fill*         0x000000002000f778        0x8 1207895071
 .text          0x000000002000f780       0xa0 /home/dfr/FreeBSD/alpha/src/lib/libstand/obj/libstand.a(strncpy.o)
                0x000000002000f780                strncpy
 .text          0x000000002000f820       0x80 /home/dfr/FreeBSD/alpha/src/lib/libstand/obj/libstand.a(strcat.o)
                0x000000002000f820                strcat
 .text          0x000000002000f8a0      0x380 /home/dfr/FreeBSD/alpha/src/lib/libstand/obj/libstand.a(pager.o)
                0x000000002000f948                pager_output
                0x000000002000f930                pager_close
                0x000000002000faf8                pager_file
                0x000000002000f8a0                pager_open
 .text          0x000000002000fc20      0x310 /home/dfr/FreeBSD/alpha/src/lib/libstand/obj/libstand.a(getopt.o)
                0x000000002000fc20                getopt
 *fill*         0x000000002000ff30       0x10 1207895071
 .text          0x000000002000ff40      0x4a0 /home/dfr/FreeBSD/alpha/src/lib/libstand/obj/libstand.a(environment.o)
                0x00000000200102a8                unsetenv
                0x00000000200103d0                env_nounset
                0x00000000200101a0                getenv
                0x0000000020010248                putenv
                0x00000000200103c8                env_noset
                0x00000000200101e0                setenv
                0x000000002000ff40                env_getenv
                0x000000002000ffc0                env_setenv
 .text          0x00000000200103e0      0x260 /home/dfr/FreeBSD/alpha/src/lib/libstand/obj/libstand.a(strtol.o)
                0x00000000200103e0                strtol
 .text          0x0000000020010640       0x60 /home/dfr/FreeBSD/alpha/src/lib/libstand/obj/libstand.a(strchr.o)
                0x0000000020010640                strchr
 .text          0x00000000200106a0       0xa0 /home/dfr/FreeBSD/alpha/src/lib/libstand/obj/libstand.a(strerror.o)
                0x00000000200106a0                strerror
 .text          0x0000000020010740       0xa0 /home/dfr/FreeBSD/alpha/src/lib/libstand/obj/libstand.a(strdup.o)
                0x0000000020010740                strdup
 .text          0x00000000200107e0      0x340 /home/dfr/FreeBSD/alpha/src/lib/libstand/obj/libstand.a(gets.o)
                0x0000000020010a10                fgetstr
                0x00000000200107e0                ngets
 .text          0x0000000020010b20      0x8e0 /home/dfr/FreeBSD/alpha/src/lib/libstand/obj/libstand.a(zipfs.o)
                0x0000000020010b20                calloc
 .text          0x0000000020011400      0x150 /home/dfr/FreeBSD/alpha/src/lib/libstand/obj/libstand.a(read.o)
                0x0000000020011400                read
 *fill*         0x0000000020011550       0x10 1207895071
 .text          0x0000000020011560      0x220 /home/dfr/FreeBSD/alpha/src/lib/libstand/obj/libstand.a(open.o)
                0x00000000200115a8                open
 .text          0x0000000020011780      0x130 /home/dfr/FreeBSD/alpha/src/lib/libstand/obj/libstand.a(close.o)
                0x0000000020011780                close
 .text          0x00000000200118b0       0xa0 /home/dfr/FreeBSD/alpha/src/lib/libstand/obj/libstand.a(fstat.o)
                0x00000000200118b0                fstat
 .text          0x0000000020011950       0xa8 /home/dfr/FreeBSD/alpha/src/lib/libstand/obj/libstand.a(nullfs.o)
                0x0000000020011998                null_write
                0x00000000200119d8                null_stat
                0x0000000020011970                null_close
                0x0000000020011978                null_read
                0x0000000020011950                null_open
                0x00000000200119b8                null_seek
 *fill*         0x00000000200119f8        0x8 1207895071
 .text          0x0000000020011a00      0xc00 /home/dfr/FreeBSD/alpha/src/lib/libstand/obj/libstand.a(inflate.o)
                0x0000000020011cb0                inflate
                0x0000000020012590                inflateSyncPoint
                0x0000000020011c80                inflateInit_
                0x0000000020011a00                inflateReset
                0x00000000200123f8                inflateSync
                0x00000000200122f0                inflateSetDictionary
                0x0000000020011a80                inflateEnd
                0x0000000020011b10                inflateInit2_
 .text          0x0000000020012600     0x1400 /home/dfr/FreeBSD/alpha/src/lib/libstand/obj/libstand.a(infblock.o)
                0x0000000020013908                inflate_blocks_free
                0x00000000200127f0                inflate_blocks
                0x0000000020012600                inflate_blocks_reset
                0x00000000200139f0                inflate_blocks_sync_point
                0x0000000020013990                inflate_set_dictionary
                0x00000000200126d0                inflate_blocks_new
 .text          0x0000000020013a00      0x240 /home/dfr/FreeBSD/alpha/src/lib/libstand/obj/libstand.a(adler32.o)
                0x0000000020013a00                adler32
 .text          0x0000000020013c40       0x60 /home/dfr/FreeBSD/alpha/src/lib/libstand/obj/libstand.a(strrchr.o)
                0x0000000020013c40                strrchr
 .text          0x0000000020013ca0       0xa0 /home/dfr/FreeBSD/alpha/src/lib/libstand/obj/libstand.a(strcmp.o)
                0x0000000020013ca0                strcmp
 .text          0x0000000020013d40       0x70 /home/dfr/FreeBSD/alpha/src/lib/libstand/obj/libstand.a(twiddle.o)
                0x0000000020013d40                twiddle
 .text          0x0000000020013db0       0x98 /home/dfr/FreeBSD/alpha/src/lib/libstand/obj/libstand.a(zutil.o)
                0x0000000020013db0                zlibVersion
                0x0000000020013e18                zcfree
                0x0000000020013dc0                zError
                0x0000000020013de0                zcalloc
 *fill*         0x0000000020013e48       0x18 1207895071
 .text          0x0000000020013e60      0xd40 /home/dfr/FreeBSD/alpha/src/lib/libstand/obj/libstand.a(inftrees.o)
                0x00000000200148b8                inflate_trees_fixed
                0x0000000020014598                inflate_trees_bits
                0x00000000200146c0                inflate_trees_dynamic
 .text          0x0000000020014ba0      0xc40 /home/dfr/FreeBSD/alpha/src/lib/libstand/obj/libstand.a(infcodes.o)
                0x0000000020014ba0                inflate_codes_new
                0x0000000020014c48                inflate_codes
                0x00000000200157a0                inflate_codes_free
 .text          0x00000000200157e0      0x1e0 /home/dfr/FreeBSD/alpha/src/lib/libstand/obj/libstand.a(alloc.o)
                0x00000000200157e0                setheap
                0x0000000020015808                malloc
                0x0000000020015998                sbrk
                0x0000000020015900                free
 .text          0x00000000200159c0      0x540 /home/dfr/FreeBSD/alpha/src/lib/libstand/obj/libstand.a(inffast.o)
                0x00000000200159c0                inflate_fast
 .text          0x0000000020015f00      0x1e0 /home/dfr/FreeBSD/alpha/src/lib/libstand/obj/libstand.a(infutil.o)
                0x0000000020015f00                inflate_flush
 .text          0x00000000200160e0      0x25c /home/dfr/FreeBSD/alpha/src/lib/libstand/obj/libstand.a(bcopy.o)
                0x00000000200160e0                bcopy
 .text          0x000000002001633c       0xb0 /home/dfr/FreeBSD/alpha/src/lib/libstand/obj/libstand.a(bzero.o)
                0x000000002001633c                bzero
 *fill*         0x00000000200163ec       0x14 1207895071
 .text          0x0000000020016400     0x11c0 /home/dfr/FreeBSD/alpha/src/lib/libstand/obj/libstand.a(printf.o)
                0x0000000020016400                printf
                0x0000000020016480                vprintf
                0x00000000200164c0                sprintf
 .text          0x00000000200175c0       0xe4 /home/dfr/FreeBSD/alpha/src/lib/libstand/obj/libstand.a(__remqu.o)
                0x00000000200175c0                __remqu
 .text          0x00000000200176a4       0xdc /home/dfr/FreeBSD/alpha/src/lib/libstand/obj/libstand.a(__divqu.o)
                0x00000000200176a4                __divqu
 .text          0x0000000020017780       0x40 /home/dfr/FreeBSD/alpha/src/lib/libstand/obj/libstand.a(strlen.o)
                0x0000000020017780                strlen
 .text          0x00000000200177c0      0x650 /mnt/herring/b/dfr/FreeBSD/boot/newboot/alpha/boot2/../libalpha/obj/libalpha.a(srmdisk.o)
 .text          0x0000000020017e10      0x8e0 /mnt/herring/b/dfr/FreeBSD/boot/newboot/alpha/boot2/../libalpha/obj/libalpha.a(devicename.o)
                0x0000000020018478                alpha_fmtdev
                0x0000000020017e10                alpha_getdev
                0x0000000020018628                alpha_setcurrdev
 .text          0x00000000200186f0      0x138 /mnt/herring/b/dfr/FreeBSD/boot/newboot/alpha/boot2/../libalpha/obj/libalpha.a(alpha_module.o)
                0x00000000200186f0                alpha_boot
                0x00000000200187f8                alpha_autoload
 .text          0x0000000020018828       0x68 /mnt/herring/b/dfr/FreeBSD/boot/newboot/alpha/boot2/../libalpha/obj/libalpha.a(time.o)
                0x0000000020018828                time
 .text          0x0000000020018890       0xb0 /mnt/herring/b/dfr/FreeBSD/boot/newboot/alpha/boot2/../libalpha/obj/libalpha.a(delay.o)
                0x0000000020018890                delay
 .text          0x0000000020018940      0x120 /mnt/herring/b/dfr/FreeBSD/boot/newboot/alpha/boot2/../libalpha/obj/libalpha.a(reboot.o)
                0x0000000020018940                reboot
                0x00000000200189c8                exit
 .text          0x0000000020018a60      0xdd0 /mnt/herring/b/dfr/FreeBSD/boot/newboot/alpha/boot2/../libalpha/obj/libalpha.a(elf_freebsd.o)
 .text          0x0000000020019830      0x120 /mnt/herring/b/dfr/FreeBSD/boot/newboot/alpha/boot2/../libalpha/obj/libalpha.a(OSFpal.o)
                0x0000000020019830                OSFpal
 .text          0x0000000020019950      0x1c8 /mnt/herring/b/dfr/FreeBSD/boot/newboot/alpha/boot2/../libalpha/obj/libalpha.a(getsecs.o)
                0x0000000020019950                getsecs
 .text          0x0000000020019b18       0xcc /mnt/herring/b/dfr/FreeBSD/boot/newboot/alpha/boot2/../libalpha/obj/libalpha.a(pal.o)
                0x0000000020019b20                alpha_mb
                0x0000000020019b94                alpha_pal_tbi
                0x0000000020019bcc                alpha_pal_wrmces
                0x0000000020019bd4                alpha_pal_wrval
                0x0000000020019bc4                alpha_pal_wrvptptr
                0x0000000020019b40                alpha_pal_imb
                0x0000000020019bb4                alpha_pal_wripir
                0x0000000020019bbc                alpha_pal_wrusp
                0x0000000020019b7c                alpha_pal_rdval
                0x0000000020019bdc                alpha_pal_swpctx
                0x0000000020019b48                alpha_pal_cflush
                0x0000000020019b8c                _alpha_pal_swpipl
                0x0000000020019b18                alpha_rpcc
                0x0000000020019b30                alpha_amask
                0x0000000020019b58                alpha_pal_halt
                0x0000000020019ba4                alpha_pal_wrent
                0x0000000020019b74                alpha_pal_rdusp
                0x0000000020019b6c                alpha_pal_rdps
                0x0000000020019b38                alpha_implver
                0x0000000020019b64                alpha_pal_rdmces
                0x0000000020019b84                alpha_pal_swpipl
                0x0000000020019b9c                alpha_pal_whami
                0x0000000020019b28                alpha_wmb
                0x0000000020019b50                alpha_pal_draina
                0x0000000020019bac                alpha_pal_wrfen
 *fill*         0x0000000020019be4        0xc 1207895071
 .text          0x0000000020019bf0       0xc0 /mnt/herring/b/dfr/FreeBSD/boot/newboot/alpha/boot2/../libalpha/obj/libalpha.a(prom_swpal.o)
                0x0000000020019bf0                switch_palcode
 .text          0x0000000020019cb0      0x4e8 /mnt/herring/b/dfr/FreeBSD/boot/newboot/alpha/boot2/../libalpha/obj/libalpha.a(prom.o)
                0x0000000020019cb0                init_prom_calls
                0x000000002001a020                prom_getenv
                0x0000000020019dd8                prom_putchar
                0x0000000020019e80                prom_getchar
                0x000000002001a100                prom_open
 *fill*         0x000000002001a198        0x8 1207895071
 .text          0x000000002001a1a0       0x70 /mnt/herring/b/dfr/FreeBSD/boot/newboot/alpha/boot2/../libalpha/obj/libalpha.a(prom_disp.o)
                0x000000002001a1a0                prom_dispatch
 .text          0x000000002001a210       0xe0 /home/dfr/FreeBSD/alpha/src/lib/libstand/obj/libstand.a(lseek.o)
                0x000000002001a210                lseek
 .text          0x000000002001a2f0       0x18 /home/dfr/FreeBSD/alpha/src/lib/libstand/obj/libstand.a(dev.o)
                0x000000002001a2f0                nodev
                0x000000002001a300                noioctl
                0x000000002001a2f8                nullsys
 *fill*         0x000000002001a308       0x18 1207895071
 .text          0x000000002001a320       0x80 /home/dfr/FreeBSD/alpha/src/lib/libstand/obj/libstand.a(closeall.o)
                0x000000002001a320                closeall
 .text          0x000000002001a3a0       0xa0 /home/dfr/FreeBSD/alpha/src/lib/libstand/obj/libstand.a(strncmp.o)
                0x000000002001a3a0                strncmp
 .text          0x000000002001a440       0x80 /home/dfr/FreeBSD/alpha/src/lib/libstand/obj/libstand.a(strcpy.o)
                0x000000002001a440                strcpy
 *(.gnu.warning)
 *(.gnu.linkonce.t*)
                0x000000002001a4c0                _etext=.
                0x000000002001a4c0                PROVIDE (etext, .)

.fini
 *(.fini)

.rodata         0x000000002001a4c0     0x17c0
 *(.rodata)
 .rodata        0x000000002001a4c0      0x128 main.o
 .rodata        0x000000002001a5e8      0x188 boot.o
 .rodata        0x000000002001a770      0x168 commands.o
 .rodata        0x000000002001a8d8       0x30 console.o
 .rodata        0x000000002001a908       0xa0 interp.o
 .rodata        0x000000002001a9a8       0xa8 ls.o
 .rodata        0x000000002001aa50       0x18 misc.o
 .rodata        0x000000002001aa68       0xb8 module.o
 .rodata        0x000000002001ab20       0x28 panic.o
 .rodata        0x000000002001ab48        0x8 /home/dfr/FreeBSD/alpha/src/lib/libstand/obj/libstand.a(ufs.o)
 .rodata        0x000000002001ab50       0xa8 /home/dfr/FreeBSD/alpha/src/lib/libstand/obj/libstand.a(pager.o)
 .rodata        0x000000002001abf8       0x48 /home/dfr/FreeBSD/alpha/src/lib/libstand/obj/libstand.a(getopt.o)
 .rodata        0x000000002001ac40        0x8 /home/dfr/FreeBSD/alpha/src/lib/libstand/obj/libstand.a(environment.o)
 .rodata        0x000000002001ac48        0x8 /home/dfr/FreeBSD/alpha/src/lib/libstand/obj/libstand.a(strtol.o)
 .rodata        0x000000002001ac50      0x2a0 /home/dfr/FreeBSD/alpha/src/lib/libstand/obj/libstand.a(strerror.o)
 .rodata        0x000000002001aef0       0xc0 /home/dfr/FreeBSD/alpha/src/lib/libstand/obj/libstand.a(zipfs.o)
 .rodata        0x000000002001afb0       0xb8 /home/dfr/FreeBSD/alpha/src/lib/libstand/obj/libstand.a(inflate.o)
 .rodata        0x000000002001b068       0xf8 /home/dfr/FreeBSD/alpha/src/lib/libstand/obj/libstand.a(infblock.o)
 .rodata        0x000000002001b160        0x8 /home/dfr/FreeBSD/alpha/src/lib/libstand/obj/libstand.a(adler32.o)
 .rodata        0x000000002001b168        0x8 /home/dfr/FreeBSD/alpha/src/lib/libstand/obj/libstand.a(twiddle.o)
 .rodata        0x000000002001b170       0xa0 /home/dfr/FreeBSD/alpha/src/lib/libstand/obj/libstand.a(zutil.o)
 .rodata        0x000000002001b210      0x318 /home/dfr/FreeBSD/alpha/src/lib/libstand/obj/libstand.a(inftrees.o)
                0x000000002001b210                inflate_copyright
 .rodata        0x000000002001b528       0x60 /home/dfr/FreeBSD/alpha/src/lib/libstand/obj/libstand.a(infcodes.o)
 .rodata        0x000000002001b588       0x60 /home/dfr/FreeBSD/alpha/src/lib/libstand/obj/libstand.a(alloc.o)
 .rodata        0x000000002001b5e8       0x38 /home/dfr/FreeBSD/alpha/src/lib/libstand/obj/libstand.a(inffast.o)
 .rodata        0x000000002001b620      0x170 /home/dfr/FreeBSD/alpha/src/lib/libstand/obj/libstand.a(printf.o)
 .rodata        0x000000002001b790      0x130 /home/dfr/FreeBSD/alpha/src/lib/libstand/obj/libstand.a(bcd.o)
                0x000000002001b898                hex2ascii_data
                0x000000002001b790                bcd2bin_data
                0x000000002001b830                bin2bcd_data
 .rodata        0x000000002001b8c0      0x120 /mnt/herring/b/dfr/FreeBSD/boot/newboot/alpha/boot2/../libalpha/obj/libalpha.a(srmdisk.o)
 .rodata        0x000000002001b9e0       0x40 /mnt/herring/b/dfr/FreeBSD/boot/newboot/alpha/boot2/../libalpha/obj/libalpha.a(devicename.o)
 .rodata        0x000000002001ba20        0x8 /mnt/herring/b/dfr/FreeBSD/boot/newboot/alpha/boot2/../libalpha/obj/libalpha.a(delay.o)
 .rodata        0x000000002001ba28      0x198 /mnt/herring/b/dfr/FreeBSD/boot/newboot/alpha/boot2/../libalpha/obj/libalpha.a(elf_freebsd.o)
 .rodata        0x000000002001bbc0       0x98 /mnt/herring/b/dfr/FreeBSD/boot/newboot/alpha/boot2/../libalpha/obj/libalpha.a(OSFpal.o)
 .rodata        0x000000002001bc58        0x8 /mnt/herring/b/dfr/FreeBSD/boot/newboot/alpha/boot2/../libalpha/obj/libalpha.a(getsecs.o)
 .rodata        0x000000002001bc60       0x20 /mnt/herring/b/dfr/FreeBSD/boot/newboot/alpha/boot2/../libalpha/obj/libalpha.a(prom.o)
 *(.gnu.linkonce.r*)

.rodata1
 *(.rodata1)

.reginfo
 *(.reginfo)
                0x000000002001bc80                .=.

.data           0x000000002001bc80      0x698
 *(.data)
 .data          0x000000002001bc80       0x48 main.o
 .data          0x000000002001bcc8       0x48 conf.o
                0x000000002001bcf0                module_formats
                0x000000002001bcd8                file_system
                0x000000002001bd00                consoles
                0x000000002001bcc8                devsw
 .data          0x000000002001bd10       0x40 boot.o
 .data          0x000000002001bd50       0x90 commands.o
 .data          0x000000002001bde0       0x18 interp.o
 .data          0x000000002001bdf8       0x28 ls.o
 .data          0x000000002001be20       0x40 module.o
                0x000000002001be28                loaded_modules
 .data          0x000000002001be60       0x68 vers.o
                0x000000002001be80                bootprog_rev
                0x000000002001be88                bootprog_date
                0x000000002001bea8                bootprog_maker
                0x000000002001be60                bootprog_name
 .data          0x000000002001bec8       0x38 /home/dfr/FreeBSD/alpha/src/lib/libstand/obj/libstand.a(ufs.o)
                0x000000002001bec8                ufs_fsops
 .data          0x000000002001bf00       0x18 /home/dfr/FreeBSD/alpha/src/lib/libstand/obj/libstand.a(pager.o)
 .data          0x000000002001bf18       0x10 /home/dfr/FreeBSD/alpha/src/lib/libstand/obj/libstand.a(getopt.o)
                0x000000002001bf18                opterr
                0x000000002001bf1c                optind
 .data          0x000000002001bf28        0x8 /home/dfr/FreeBSD/alpha/src/lib/libstand/obj/libstand.a(environment.o)
                0x000000002001bf28                environ
 .data          0x000000002001bf30      0x1d0 /home/dfr/FreeBSD/alpha/src/lib/libstand/obj/libstand.a(strerror.o)
 .data          0x000000002001c100       0x40 /home/dfr/FreeBSD/alpha/src/lib/libstand/obj/libstand.a(zipfs.o)
                0x000000002001c100                zipfs_fsops
 .data          0x000000002001c140       0x50 /home/dfr/FreeBSD/alpha/src/lib/libstand/obj/libstand.a(zutil.o)
                0x000000002001c140                z_errmsg
 .data          0x000000002001c190        0x4 /home/dfr/FreeBSD/alpha/src/lib/libstand/obj/libstand.a(inftrees.o)
 *fill*         0x000000002001c194        0x4
 .data          0x000000002001c198        0x8 /home/dfr/FreeBSD/alpha/src/lib/libstand/obj/libstand.a(alloc.o)
                0x000000002001c198                freelist
 .data          0x000000002001c1a0       0x44 /home/dfr/FreeBSD/alpha/src/lib/libstand/obj/libstand.a(infutil.o)
                0x000000002001c1a0                inflate_mask
 *fill*         0x000000002001c1e4        0x4
 .data          0x000000002001c1e8       0x90 /home/dfr/FreeBSD/alpha/src/lib/libstand/obj/libstand.a(globals.o)
                0x000000002001c1f0                rootpath
                0x000000002001c270                netmask
                0x000000002001c1e8                bcea
 .data          0x000000002001c278       0x40 /mnt/herring/b/dfr/FreeBSD/boot/newboot/alpha/boot2/../libalpha/obj/libalpha.a(srmdisk.o)
                0x000000002001c278                srmdisk
 .data          0x000000002001c2b8       0x18 /mnt/herring/b/dfr/FreeBSD/boot/newboot/alpha/boot2/../libalpha/obj/libalpha.a(elf_freebsd.o)
                0x000000002001c2b8                alpha_elf
 .data          0x000000002001c2d0       0x48 /mnt/herring/b/dfr/FreeBSD/boot/newboot/alpha/boot2/../libalpha/obj/libalpha.a(prom.o)
                0x000000002001c2d0                promconsole
 *(.gnu.linkonce.d*)

.set.Xcommand_set
                0x000000002001c318       0x88
 .set.Xcommand_set
                0x000000002001c318        0x8 setdef0.o
                0x000000002001c318                Xcommand_set
 .set.Xcommand_set
                0x000000002001c320       0x18 main.o
 .set.Xcommand_set
                0x000000002001c338       0x10 boot.o
 .set.Xcommand_set
                0x000000002001c348       0x30 commands.o
 .set.Xcommand_set
                0x000000002001c378        0x8 interp.o
 .set.Xcommand_set
                0x000000002001c380        0x8 ls.o
 .set.Xcommand_set
                0x000000002001c388       0x10 module.o
 .set.Xcommand_set
                0x000000002001c398        0x8 setdef1.o

.data1
 *(.data1)

.ctors
 *(.ctors)

.dtors
 *(.dtors)

.plt
 *(.plt)

.got            0x000000002001c3a0      0xaa8
 *(.got.plt)
 *(.got)
 .got           0x000000002001c3a0      0xaa8 start.o

.dynamic
 *(.dynamic)

.sdata
 *(.sdata)
                0x000000002001ce48                _edata=.
                0x000000002001ce48                PROVIDE (edata, .)
                0x000000002001ce48                __bss_start=.

.sbss
 *(.sbss)
 *(.scommon)

.bss            0x000000002001ce50     0x2b50
 *(.dynbss)
 *(.bss)
 .bss           0x000000002001ce50       0xb0 interp.o
 .bss           0x000000002001cf00        0x4 /home/dfr/FreeBSD/alpha/src/lib/libstand/obj/libstand.a(pager.o)
 .bss           0x000000002001cf04       0x20 /home/dfr/FreeBSD/alpha/src/lib/libstand/obj/libstand.a(strerror.o)
 *fill*         0x000000002001cf24        0x4
 .bss           0x000000002001cf28        0x8 /home/dfr/FreeBSD/alpha/src/lib/libstand/obj/libstand.a(zipfs.o)
 .bss           0x000000002001cf30        0x4 /home/dfr/FreeBSD/alpha/src/lib/libstand/obj/libstand.a(twiddle.o)
 *fill*         0x000000002001cf34        0x4
 .bss           0x000000002001cf38     0x1a98 /home/dfr/FreeBSD/alpha/src/lib/libstand/obj/libstand.a(inftrees.o)
 .bss           0x000000002001e9d0       0x18 /home/dfr/FreeBSD/alpha/src/lib/libstand/obj/libstand.a(alloc.o)
 .bss           0x000000002001e9e8       0x17 /home/dfr/FreeBSD/alpha/src/lib/libstand/obj/libstand.a(printf.o)
 *fill*         0x000000002001e9ff        0x1
 .bss           0x000000002001ea00      0x934 /mnt/herring/b/dfr/FreeBSD/boot/newboot/alpha/boot2/../libalpha/obj/libalpha.a(srmdisk.o)
 .bss           0x000000002001f334       0x80 /mnt/herring/b/dfr/FreeBSD/boot/newboot/alpha/boot2/../libalpha/obj/libalpha.a(devicename.o)
 *fill*         0x000000002001f3b4        0x4
 .bss           0x000000002001f3b8      0x100 /mnt/herring/b/dfr/FreeBSD/boot/newboot/alpha/boot2/../libalpha/obj/libalpha.a(elf_freebsd.o)
 .bss           0x000000002001f4b8       0x18 /mnt/herring/b/dfr/FreeBSD/boot/newboot/alpha/boot2/../libalpha/obj/libalpha.a(getsecs.o)
 *(COMMON)
 COMMON         0x000000002001f4d0       0x30 main.o
                0x000000002001f4d0                archsw
                0x000000002001f4e8                currdev
 COMMON         0x000000002001f500      0x110 commands.o
                0x000000002001f500                command_errmsg
                0x000000002001f510                command_errbuf
 COMMON         0x000000002001f610       0x10 /home/dfr/FreeBSD/alpha/src/lib/libstand/obj/libstand.a(getopt.o)
                0x000000002001f610                optarg
                0x000000002001f618                optreset
                0x000000002001f61c                optopt
 COMMON         0x000000002001f620      0x180 /home/dfr/FreeBSD/alpha/src/lib/libstand/obj/libstand.a(open.o)
                0x000000002001f620                files
 COMMON         0x000000002001f7a0      0x1c4 /home/dfr/FreeBSD/alpha/src/lib/libstand/obj/libstand.a(globals.o)
                0x000000002001f7a0                domainname
                0x000000002001f820                nameip
                0x000000002001f824                hostnamelen
                0x000000002001f828                errno
                0x000000002001f82c                swapip
                0x000000002001f830                rootip
                0x000000002001f834                myip
                0x000000002001f840                hostname
                0x000000002001f8c0                bootfile
                0x000000002001f940                gateip
                0x000000002001f950                ifname
                0x000000002001f960                domainnamelen
 *fill*         0x000000002001f964        0x4
 COMMON         0x000000002001f968       0x20 /mnt/herring/b/dfr/FreeBSD/boot/newboot/alpha/boot2/../libalpha/obj/libalpha.a(elf_freebsd.o)
                0x000000002001f968                ffp_save
                0x000000002001f970                ssym
                0x000000002001f978                ptbr_save
                0x000000002001f980                esym
 COMMON         0x000000002001f988        0x4 /mnt/herring/b/dfr/FreeBSD/boot/newboot/alpha/boot2/../libalpha/obj/libalpha.a(prom.o)
                0x000000002001f988                console
 *fill*         0x000000002001f98c        0x4
 COMMON         0x000000002001f990       0x10 /mnt/herring/b/dfr/FreeBSD/boot/newboot/alpha/boot2/../libalpha/obj/libalpha.a(prom_disp.o)
                0x000000002001f990                prom_dispatch_v
                0x000000002001f9a0                _end=.
                0x000000002001f9a0                PROVIDE (end, .)

.stab
 *(.stab)

.stabstr
 *(.stabstr)

.stab.excl
 *(.stab.excl)

.stab.exclstr
 *(.stab.exclstr)

.stab.index
 *(.stab.index)

.stab.indexstr
 *(.stab.indexstr)

.comment        0x0000000000000000      0x4ec
 *(.comment)
 .comment       0x0000000000000000       0x14 setdef0.o
 .comment       0x0000000000000014       0x14 main.o
 .comment       0x0000000000000028       0x14 conf.o
 .comment       0x000000000000003c       0x14 boot.o
 .comment       0x0000000000000050       0x14 commands.o
 .comment       0x0000000000000064       0x14 console.o
 .comment       0x0000000000000078       0x14 devopen.o
 .comment       0x000000000000008c       0x14 interp.o
 .comment       0x00000000000000a0       0x14 ls.o
 .comment       0x00000000000000b4       0x14 misc.o
 .comment       0x00000000000000c8       0x14 module.o
 .comment       0x00000000000000dc       0x14 panic.o
 .comment       0x00000000000000f0       0x14 setdef1.o
 .comment       0x0000000000000104       0x14 vers.o
 .comment       0x0000000000000118       0x14 /home/dfr/FreeBSD/alpha/src/lib/libstand/obj/libstand.a(ufs.o)
 .comment       0x000000000000012c       0x14 /home/dfr/FreeBSD/alpha/src/lib/libstand/obj/libstand.a(stat.o)
 .comment       0x0000000000000140       0x14 /home/dfr/FreeBSD/alpha/src/lib/libstand/obj/libstand.a(strncpy.o)
 .comment       0x0000000000000154       0x14 /home/dfr/FreeBSD/alpha/src/lib/libstand/obj/libstand.a(strcat.o)
 .comment       0x0000000000000168       0x14 /home/dfr/FreeBSD/alpha/src/lib/libstand/obj/libstand.a(pager.o)
 .comment       0x000000000000017c       0x14 /home/dfr/FreeBSD/alpha/src/lib/libstand/obj/libstand.a(getopt.o)
 .comment       0x0000000000000190       0x14 /home/dfr/FreeBSD/alpha/src/lib/libstand/obj/libstand.a(environment.o)
 .comment       0x00000000000001a4       0x14 /home/dfr/FreeBSD/alpha/src/lib/libstand/obj/libstand.a(strtol.o)
 .comment       0x00000000000001b8       0x14 /home/dfr/FreeBSD/alpha/src/lib/libstand/obj/libstand.a(strchr.o)
 .comment       0x00000000000001cc       0x14 /home/dfr/FreeBSD/alpha/src/lib/libstand/obj/libstand.a(strerror.o)
 .comment       0x00000000000001e0       0x14 /home/dfr/FreeBSD/alpha/src/lib/libstand/obj/libstand.a(strdup.o)
 .comment       0x00000000000001f4       0x14 /home/dfr/FreeBSD/alpha/src/lib/libstand/obj/libstand.a(gets.o)
 .comment       0x0000000000000208       0x14 /home/dfr/FreeBSD/alpha/src/lib/libstand/obj/libstand.a(zipfs.o)
 .comment       0x000000000000021c       0x14 /home/dfr/FreeBSD/alpha/src/lib/libstand/obj/libstand.a(read.o)
 .comment       0x0000000000000230       0x14 /home/dfr/FreeBSD/alpha/src/lib/libstand/obj/libstand.a(open.o)
 .comment       0x0000000000000244       0x14 /home/dfr/FreeBSD/alpha/src/lib/libstand/obj/libstand.a(close.o)
 .comment       0x0000000000000258       0x14 /home/dfr/FreeBSD/alpha/src/lib/libstand/obj/libstand.a(fstat.o)
 .comment       0x000000000000026c       0x14 /home/dfr/FreeBSD/alpha/src/lib/libstand/obj/libstand.a(nullfs.o)
 .comment       0x0000000000000280       0x14 /home/dfr/FreeBSD/alpha/src/lib/libstand/obj/libstand.a(inflate.o)
 .comment       0x0000000000000294       0x14 /home/dfr/FreeBSD/alpha/src/lib/libstand/obj/libstand.a(infblock.o)
 .comment       0x00000000000002a8       0x14 /home/dfr/FreeBSD/alpha/src/lib/libstand/obj/libstand.a(adler32.o)
 .comment       0x00000000000002bc       0x14 /home/dfr/FreeBSD/alpha/src/lib/libstand/obj/libstand.a(strrchr.o)
 .comment       0x00000000000002d0       0x14 /home/dfr/FreeBSD/alpha/src/lib/libstand/obj/libstand.a(strcmp.o)
 .comment       0x00000000000002e4       0x14 /home/dfr/FreeBSD/alpha/src/lib/libstand/obj/libstand.a(twiddle.o)
 .comment       0x00000000000002f8       0x14 /home/dfr/FreeBSD/alpha/src/lib/libstand/obj/libstand.a(zutil.o)
 .comment       0x000000000000030c       0x14 /home/dfr/FreeBSD/alpha/src/lib/libstand/obj/libstand.a(inftrees.o)
 .comment       0x0000000000000320       0x14 /home/dfr/FreeBSD/alpha/src/lib/libstand/obj/libstand.a(infcodes.o)
 .comment       0x0000000000000334       0x14 /home/dfr/FreeBSD/alpha/src/lib/libstand/obj/libstand.a(alloc.o)
 .comment       0x0000000000000348       0x14 /home/dfr/FreeBSD/alpha/src/lib/libstand/obj/libstand.a(inffast.o)
 .comment       0x000000000000035c       0x14 /home/dfr/FreeBSD/alpha/src/lib/libstand/obj/libstand.a(infutil.o)
 .comment       0x0000000000000370       0x14 /home/dfr/FreeBSD/alpha/src/lib/libstand/obj/libstand.a(globals.o)
 .comment       0x0000000000000384       0x14 /home/dfr/FreeBSD/alpha/src/lib/libstand/obj/libstand.a(printf.o)
 .comment       0x0000000000000398       0x14 /home/dfr/FreeBSD/alpha/src/lib/libstand/obj/libstand.a(strlen.o)
 .comment       0x00000000000003ac       0x14 /home/dfr/FreeBSD/alpha/src/lib/libstand/obj/libstand.a(bcd.o)
 .comment       0x00000000000003c0       0x14 /mnt/herring/b/dfr/FreeBSD/boot/newboot/alpha/boot2/../libalpha/obj/libalpha.a(srmdisk.o)
 .comment       0x00000000000003d4       0x14 /mnt/herring/b/dfr/FreeBSD/boot/newboot/alpha/boot2/../libalpha/obj/libalpha.a(devicename.o)
 .comment       0x00000000000003e8       0x14 /mnt/herring/b/dfr/FreeBSD/boot/newboot/alpha/boot2/../libalpha/obj/libalpha.a(alpha_module.o)
 .comment       0x00000000000003fc       0x14 /mnt/herring/b/dfr/FreeBSD/boot/newboot/alpha/boot2/../libalpha/obj/libalpha.a(time.o)
 .comment       0x0000000000000410       0x14 /mnt/herring/b/dfr/FreeBSD/boot/newboot/alpha/boot2/../libalpha/obj/libalpha.a(delay.o)
 .comment       0x0000000000000424       0x14 /mnt/herring/b/dfr/FreeBSD/boot/newboot/alpha/boot2/../libalpha/obj/libalpha.a(reboot.o)
 .comment       0x0000000000000438       0x14 /mnt/herring/b/dfr/FreeBSD/boot/newboot/alpha/boot2/../libalpha/obj/libalpha.a(elf_freebsd.o)
 .comment       0x000000000000044c       0x14 /mnt/herring/b/dfr/FreeBSD/boot/newboot/alpha/boot2/../libalpha/obj/libalpha.a(OSFpal.o)
 .comment       0x0000000000000460       0x14 /mnt/herring/b/dfr/FreeBSD/boot/newboot/alpha/boot2/../libalpha/obj/libalpha.a(getsecs.o)
 .comment       0x0000000000000474       0x14 /mnt/herring/b/dfr/FreeBSD/boot/newboot/alpha/boot2/../libalpha/obj/libalpha.a(prom.o)
 .comment       0x0000000000000488       0x14 /home/dfr/FreeBSD/alpha/src/lib/libstand/obj/libstand.a(lseek.o)
 .comment       0x000000000000049c       0x14 /home/dfr/FreeBSD/alpha/src/lib/libstand/obj/libstand.a(dev.o)
 .comment       0x00000000000004b0       0x14 /home/dfr/FreeBSD/alpha/src/lib/libstand/obj/libstand.a(closeall.o)
 .comment       0x00000000000004c4       0x14 /home/dfr/FreeBSD/alpha/src/lib/libstand/obj/libstand.a(strncmp.o)
 .comment       0x00000000000004d8       0x14 /home/dfr/FreeBSD/alpha/src/lib/libstand/obj/libstand.a(strcpy.o)

.debug
 *(.debug)

.line
 *(.line)

.debug_srcinfo
 *(.debug_srcinfo)

.debug_sfnames
 *(.debug_sfnames)

.debug_aranges
 *(.debug_aranges)

.debug_pubnames
 *(.debug_pubnames)

.debug_info
 *(.debug_info)

.debug_abbrev
 *(.debug_abbrev)

.debug_line
 *(.debug_line)

.debug_frame
 *(.debug_frame)

.debug_str
 *(.debug_str)

.debug_loc
 *(.debug_loc)

.debug_macinfo
 *(.debug_macinfo)

.debug_weaknames
 *(.debug_weaknames)

.debug_funcnames
 *(.debug_funcnames)

.debug_typenames
 *(.debug_typenames)

.debug_varnames
 *(.debug_varnames)
OUTPUT(boot2.sym elf64-alpha)

.mdebug         0x00000000000004f0     0xdb50
 .mdebug        0x00000000000004f0      0x850 start.o
 .mdebug        0x0000000000000d40      0x1e0 setdef0.o
 .mdebug        0x0000000000000f20      0xab8 main.o
 .mdebug        0x00000000000019d8      0x2e8 conf.o
 .mdebug        0x0000000000001cc0      0x8c0 boot.o
 .mdebug        0x0000000000002580      0xb00 commands.o
 .mdebug        0x0000000000003080      0x788 console.o
 .mdebug        0x0000000000003808      0x3d0 devopen.o
 .mdebug        0x0000000000003bd8      0x968 interp.o
 .mdebug        0x0000000000004540      0x540 ls.o
 .mdebug        0x0000000000004a80      0x330 misc.o
 .mdebug        0x0000000000004db0      0x790 module.o
 .mdebug        0x0000000000005540      0x310 panic.o
 .mdebug        0x0000000000005850      0x1b8 setdef1.o
 .mdebug        0x0000000000005a08      0x248 vers.o
 .mdebug        0x0000000000005c50      0xc30 /home/dfr/FreeBSD/alpha/src/lib/libstand/obj/libstand.a(ufs.o)
 .mdebug        0x0000000000006880      0x308 /home/dfr/FreeBSD/alpha/src/lib/libstand/obj/libstand.a(stat.o)
 .mdebug        0x0000000000006b88      0x778 /home/dfr/FreeBSD/alpha/src/lib/libstand/obj/libstand.a(__reml.o)
 .mdebug        0x0000000000007300      0x708 /home/dfr/FreeBSD/alpha/src/lib/libstand/obj/libstand.a(__remlu.o)
 .mdebug        0x0000000000007a08      0x778 /home/dfr/FreeBSD/alpha/src/lib/libstand/obj/libstand.a(__divl.o)
 .mdebug        0x0000000000008180      0x708 /home/dfr/FreeBSD/alpha/src/lib/libstand/obj/libstand.a(__divlu.o)
 .mdebug        0x0000000000008888      0x288 /home/dfr/FreeBSD/alpha/src/lib/libstand/obj/libstand.a(strncpy.o)
 .mdebug        0x0000000000008b10      0x288 /home/dfr/FreeBSD/alpha/src/lib/libstand/obj/libstand.a(strcat.o)
 .mdebug        0x0000000000008d98      0x7a0 /home/dfr/FreeBSD/alpha/src/lib/libstand/obj/libstand.a(pager.o)
 .mdebug        0x0000000000009538      0x3d0 /home/dfr/FreeBSD/alpha/src/lib/libstand/obj/libstand.a(getopt.o)
 .mdebug        0x0000000000009908      0xa30 /home/dfr/FreeBSD/alpha/src/lib/libstand/obj/libstand.a(environment.o)
 .mdebug        0x000000000000a338      0x318 /home/dfr/FreeBSD/alpha/src/lib/libstand/obj/libstand.a(strtol.o)
 .mdebug        0x000000000000a650      0x288 /home/dfr/FreeBSD/alpha/src/lib/libstand/obj/libstand.a(strchr.o)
 .mdebug        0x000000000000a8d8      0x350 /home/dfr/FreeBSD/alpha/src/lib/libstand/obj/libstand.a(strerror.o)
 .mdebug        0x000000000000ac28      0x318 /home/dfr/FreeBSD/alpha/src/lib/libstand/obj/libstand.a(strdup.o)
 .mdebug        0x000000000000af40      0x3e0 /home/dfr/FreeBSD/alpha/src/lib/libstand/obj/libstand.a(gets.o)
 .mdebug        0x000000000000b320      0xc28 /home/dfr/FreeBSD/alpha/src/lib/libstand/obj/libstand.a(zipfs.o)
 .mdebug        0x000000000000bf48      0x308 /home/dfr/FreeBSD/alpha/src/lib/libstand/obj/libstand.a(read.o)
 .mdebug        0x000000000000c250      0x430 /home/dfr/FreeBSD/alpha/src/lib/libstand/obj/libstand.a(open.o)
 .mdebug        0x000000000000c680      0x310 /home/dfr/FreeBSD/alpha/src/lib/libstand/obj/libstand.a(close.o)
 .mdebug        0x000000000000c990      0x2f0 /home/dfr/FreeBSD/alpha/src/lib/libstand/obj/libstand.a(fstat.o)
 .mdebug        0x000000000000cc80      0x720 /home/dfr/FreeBSD/alpha/src/lib/libstand/obj/libstand.a(nullfs.o)
 .mdebug        0x000000000000d3a0      0xac8 /home/dfr/FreeBSD/alpha/src/lib/libstand/obj/libstand.a(inflate.o)
 .mdebug        0x000000000000de68      0x9a0 /home/dfr/FreeBSD/alpha/src/lib/libstand/obj/libstand.a(infblock.o)
 .mdebug        0x000000000000e808      0x2c0 /home/dfr/FreeBSD/alpha/src/lib/libstand/obj/libstand.a(adler32.o)
 .mdebug        0x000000000000eac8      0x288 /home/dfr/FreeBSD/alpha/src/lib/libstand/obj/libstand.a(strrchr.o)
 .mdebug        0x000000000000ed50      0x288 /home/dfr/FreeBSD/alpha/src/lib/libstand/obj/libstand.a(strcmp.o)
 .mdebug        0x000000000000efd8      0x318 /home/dfr/FreeBSD/alpha/src/lib/libstand/obj/libstand.a(twiddle.o)
 .mdebug        0x000000000000f2f0      0x590 /home/dfr/FreeBSD/alpha/src/lib/libstand/obj/libstand.a(zutil.o)
 .mdebug        0x000000000000f880      0x830 /home/dfr/FreeBSD/alpha/src/lib/libstand/obj/libstand.a(inftrees.o)
 .mdebug        0x00000000000100b0      0x538 /home/dfr/FreeBSD/alpha/src/lib/libstand/obj/libstand.a(infcodes.o)
 .mdebug        0x00000000000105e8      0x618 /home/dfr/FreeBSD/alpha/src/lib/libstand/obj/libstand.a(alloc.o)
 .mdebug        0x0000000000010c00      0x2f8 /home/dfr/FreeBSD/alpha/src/lib/libstand/obj/libstand.a(inffast.o)
 .mdebug        0x0000000000010ef8      0x320 /home/dfr/FreeBSD/alpha/src/lib/libstand/obj/libstand.a(infutil.o)
 .mdebug        0x0000000000011218      0xbc0 /home/dfr/FreeBSD/alpha/src/lib/libstand/obj/libstand.a(bcopy.o)
 .mdebug        0x0000000000011dd8      0x3a0 /home/dfr/FreeBSD/alpha/src/lib/libstand/obj/libstand.a(globals.o)
 .mdebug        0x0000000000012178      0x828 /home/dfr/FreeBSD/alpha/src/lib/libstand/obj/libstand.a(bzero.o)
 .mdebug        0x00000000000129a0      0x6e0 /home/dfr/FreeBSD/alpha/src/lib/libstand/obj/libstand.a(printf.o)
 .mdebug        0x0000000000013080      0x708 /home/dfr/FreeBSD/alpha/src/lib/libstand/obj/libstand.a(__remqu.o)
 .mdebug        0x0000000000013788      0x700 /home/dfr/FreeBSD/alpha/src/lib/libstand/obj/libstand.a(__divqu.o)
 .mdebug        0x0000000000013e88      0x288 /home/dfr/FreeBSD/alpha/src/lib/libstand/obj/libstand.a(strlen.o)
 .mdebug        0x0000000000014110      0x228 /home/dfr/FreeBSD/alpha/src/lib/libstand/obj/libstand.a(bcd.o)
 .mdebug        0x0000000000014338      0x6d8 /mnt/herring/b/dfr/FreeBSD/boot/newboot/alpha/boot2/../libalpha/obj/libalpha.a(srmdisk.o)
 .mdebug        0x0000000000014a10      0x740 /mnt/herring/b/dfr/FreeBSD/boot/newboot/alpha/boot2/../libalpha/obj/libalpha.a(devicename.o)
 .mdebug        0x0000000000015150      0x408 /mnt/herring/b/dfr/FreeBSD/boot/newboot/alpha/boot2/../libalpha/obj/libalpha.a(alpha_module.o)
 .mdebug        0x0000000000015558      0x2d0 /mnt/herring/b/dfr/FreeBSD/boot/newboot/alpha/boot2/../libalpha/obj/libalpha.a(time.o)
 .mdebug        0x0000000000015828      0x2d8 /mnt/herring/b/dfr/FreeBSD/boot/newboot/alpha/boot2/../libalpha/obj/libalpha.a(delay.o)
 .mdebug        0x0000000000015b00      0x3a0 /mnt/herring/b/dfr/FreeBSD/boot/newboot/alpha/boot2/../libalpha/obj/libalpha.a(reboot.o)
 .mdebug        0x0000000000015ea0      0x770 /mnt/herring/b/dfr/FreeBSD/boot/newboot/alpha/boot2/../libalpha/obj/libalpha.a(elf_freebsd.o)
 .mdebug        0x0000000000016610      0x320 /mnt/herring/b/dfr/FreeBSD/boot/newboot/alpha/boot2/../libalpha/obj/libalpha.a(OSFpal.o)
 .mdebug        0x0000000000016930      0x3b8 /mnt/herring/b/dfr/FreeBSD/boot/newboot/alpha/boot2/../libalpha/obj/libalpha.a(getsecs.o)
 .mdebug        0x0000000000016ce8     0x18b8 /mnt/herring/b/dfr/FreeBSD/boot/newboot/alpha/boot2/../libalpha/obj/libalpha.a(pal.o)
 .mdebug        0x00000000000185a0      0xae0 /mnt/herring/b/dfr/FreeBSD/boot/newboot/alpha/boot2/../libalpha/obj/libalpha.a(prom_swpal.o)
 .mdebug        0x0000000000019080      0x9b8 /mnt/herring/b/dfr/FreeBSD/boot/newboot/alpha/boot2/../libalpha/obj/libalpha.a(prom.o)
 .mdebug        0x0000000000019a38      0xaa0 /mnt/herring/b/dfr/FreeBSD/boot/newboot/alpha/boot2/../libalpha/obj/libalpha.a(prom_disp.o)
 .mdebug        0x000000000001a4d8      0x2f0 /home/dfr/FreeBSD/alpha/src/lib/libstand/obj/libstand.a(lseek.o)
 .mdebug        0x000000000001a7c8      0x418 /home/dfr/FreeBSD/alpha/src/lib/libstand/obj/libstand.a(dev.o)
 .mdebug        0x000000000001abe0      0x2f8 /home/dfr/FreeBSD/alpha/src/lib/libstand/obj/libstand.a(closeall.o)
 .mdebug        0x000000000001aed8      0x288 /home/dfr/FreeBSD/alpha/src/lib/libstand/obj/libstand.a(strncmp.o)
 .mdebug        0x000000000001b160      0x288 /home/dfr/FreeBSD/alpha/src/lib/libstand/obj/libstand.a(strcpy.o)

.note           0x000000000001b3e8      0x4ec
 .note          0x000000000001b3e8       0x14 setdef0.o
 .note          0x000000000001b3fc       0x14 main.o
 .note          0x000000000001b410       0x14 conf.o
 .note          0x000000000001b424       0x14 boot.o
 .note          0x000000000001b438       0x14 commands.o
 .note          0x000000000001b44c       0x14 console.o
 .note          0x000000000001b460       0x14 devopen.o
 .note          0x000000000001b474       0x14 interp.o
 .note          0x000000000001b488       0x14 ls.o
 .note          0x000000000001b49c       0x14 misc.o
 .note          0x000000000001b4b0       0x14 module.o
 .note          0x000000000001b4c4       0x14 panic.o
 .note          0x000000000001b4d8       0x14 setdef1.o
 .note          0x000000000001b4ec       0x14 vers.o
 .note          0x000000000001b500       0x14 /home/dfr/FreeBSD/alpha/src/lib/libstand/obj/libstand.a(ufs.o)
 .note          0x000000000001b514       0x14 /home/dfr/FreeBSD/alpha/src/lib/libstand/obj/libstand.a(stat.o)
 .note          0x000000000001b528       0x14 /home/dfr/FreeBSD/alpha/src/lib/libstand/obj/libstand.a(strncpy.o)
 .note          0x000000000001b53c       0x14 /home/dfr/FreeBSD/alpha/src/lib/libstand/obj/libstand.a(strcat.o)
 .note          0x000000000001b550       0x14 /home/dfr/FreeBSD/alpha/src/lib/libstand/obj/libstand.a(pager.o)
 .note          0x000000000001b564       0x14 /home/dfr/FreeBSD/alpha/src/lib/libstand/obj/libstand.a(getopt.o)
 .note          0x000000000001b578       0x14 /home/dfr/FreeBSD/alpha/src/lib/libstand/obj/libstand.a(environment.o)
 .note          0x000000000001b58c       0x14 /home/dfr/FreeBSD/alpha/src/lib/libstand/obj/libstand.a(strtol.o)
 .note          0x000000000001b5a0       0x14 /home/dfr/FreeBSD/alpha/src/lib/libstand/obj/libstand.a(strchr.o)
 .note          0x000000000001b5b4       0x14 /home/dfr/FreeBSD/alpha/src/lib/libstand/obj/libstand.a(strerror.o)
 .note          0x000000000001b5c8       0x14 /home/dfr/FreeBSD/alpha/src/lib/libstand/obj/libstand.a(strdup.o)
 .note          0x000000000001b5dc       0x14 /home/dfr/FreeBSD/alpha/src/lib/libstand/obj/libstand.a(gets.o)
 .note          0x000000000001b5f0       0x14 /home/dfr/FreeBSD/alpha/src/lib/libstand/obj/libstand.a(zipfs.o)
 .note          0x000000000001b604       0x14 /home/dfr/FreeBSD/alpha/src/lib/libstand/obj/libstand.a(read.o)
 .note          0x000000000001b618       0x14 /home/dfr/FreeBSD/alpha/src/lib/libstand/obj/libstand.a(open.o)
 .note          0x000000000001b62c       0x14 /home/dfr/FreeBSD/alpha/src/lib/libstand/obj/libstand.a(close.o)
 .note          0x000000000001b640       0x14 /home/dfr/FreeBSD/alpha/src/lib/libstand/obj/libstand.a(fstat.o)
 .note          0x000000000001b654       0x14 /home/dfr/FreeBSD/alpha/src/lib/libstand/obj/libstand.a(nullfs.o)
 .note          0x000000000001b668       0x14 /home/dfr/FreeBSD/alpha/src/lib/libstand/obj/libstand.a(inflate.o)
 .note          0x000000000001b67c       0x14 /home/dfr/FreeBSD/alpha/src/lib/libstand/obj/libstand.a(infblock.o)
 .note          0x000000000001b690       0x14 /home/dfr/FreeBSD/alpha/src/lib/libstand/obj/libstand.a(adler32.o)
 .note          0x000000000001b6a4       0x14 /home/dfr/FreeBSD/alpha/src/lib/libstand/obj/libstand.a(strrchr.o)
 .note          0x000000000001b6b8       0x14 /home/dfr/FreeBSD/alpha/src/lib/libstand/obj/libstand.a(strcmp.o)
 .note          0x000000000001b6cc       0x14 /home/dfr/FreeBSD/alpha/src/lib/libstand/obj/libstand.a(twiddle.o)
 .note          0x000000000001b6e0       0x14 /home/dfr/FreeBSD/alpha/src/lib/libstand/obj/libstand.a(zutil.o)
 .note          0x000000000001b6f4       0x14 /home/dfr/FreeBSD/alpha/src/lib/libstand/obj/libstand.a(inftrees.o)
 .note          0x000000000001b708       0x14 /home/dfr/FreeBSD/alpha/src/lib/libstand/obj/libstand.a(infcodes.o)
 .note          0x000000000001b71c       0x14 /home/dfr/FreeBSD/alpha/src/lib/libstand/obj/libstand.a(alloc.o)
 .note          0x000000000001b730       0x14 /home/dfr/FreeBSD/alpha/src/lib/libstand/obj/libstand.a(inffast.o)
 .note          0x000000000001b744       0x14 /home/dfr/FreeBSD/alpha/src/lib/libstand/obj/libstand.a(infutil.o)
 .note          0x000000000001b758       0x14 /home/dfr/FreeBSD/alpha/src/lib/libstand/obj/libstand.a(globals.o)
 .note          0x000000000001b76c       0x14 /home/dfr/FreeBSD/alpha/src/lib/libstand/obj/libstand.a(printf.o)
 .note          0x000000000001b780       0x14 /home/dfr/FreeBSD/alpha/src/lib/libstand/obj/libstand.a(strlen.o)
 .note          0x000000000001b794       0x14 /home/dfr/FreeBSD/alpha/src/lib/libstand/obj/libstand.a(bcd.o)
 .note          0x000000000001b7a8       0x14 /mnt/herring/b/dfr/FreeBSD/boot/newboot/alpha/boot2/../libalpha/obj/libalpha.a(srmdisk.o)
 .note          0x000000000001b7bc       0x14 /mnt/herring/b/dfr/FreeBSD/boot/newboot/alpha/boot2/../libalpha/obj/libalpha.a(devicename.o)
 .note          0x000000000001b7d0       0x14 /mnt/herring/b/dfr/FreeBSD/boot/newboot/alpha/boot2/../libalpha/obj/libalpha.a(alpha_module.o)
 .note          0x000000000001b7e4       0x14 /mnt/herring/b/dfr/FreeBSD/boot/newboot/alpha/boot2/../libalpha/obj/libalpha.a(time.o)
 .note          0x000000000001b7f8       0x14 /mnt/herring/b/dfr/FreeBSD/boot/newboot/alpha/boot2/../libalpha/obj/libalpha.a(delay.o)
 .note          0x000000000001b80c       0x14 /mnt/herring/b/dfr/FreeBSD/boot/newboot/alpha/boot2/../libalpha/obj/libalpha.a(reboot.o)
 .note          0x000000000001b820       0x14 /mnt/herring/b/dfr/FreeBSD/boot/newboot/alpha/boot2/../libalpha/obj/libalpha.a(elf_freebsd.o)
 .note          0x000000000001b834       0x14 /mnt/herring/b/dfr/FreeBSD/boot/newboot/alpha/boot2/../libalpha/obj/libalpha.a(OSFpal.o)
 .note          0x000000000001b848       0x14 /mnt/herring/b/dfr/FreeBSD/boot/newboot/alpha/boot2/../libalpha/obj/libalpha.a(getsecs.o)
 .note          0x000000000001b85c       0x14 /mnt/herring/b/dfr/FreeBSD/boot/newboot/alpha/boot2/../libalpha/obj/libalpha.a(prom.o)
 .note          0x000000000001b870       0x14 /home/dfr/FreeBSD/alpha/src/lib/libstand/obj/libstand.a(lseek.o)
 .note          0x000000000001b884       0x14 /home/dfr/FreeBSD/alpha/src/lib/libstand/obj/libstand.a(dev.o)
 .note          0x000000000001b898       0x14 /home/dfr/FreeBSD/alpha/src/lib/libstand/obj/libstand.a(closeall.o)
 .note          0x000000000001b8ac       0x14 /home/dfr/FreeBSD/alpha/src/lib/libstand/obj/libstand.a(strncmp.o)
 .note          0x000000000001b8c0       0x14 /home/dfr/FreeBSD/alpha/src/lib/libstand/obj/libstand.a(strcpy.o)
