Certificate:
    Data:
        Version: 3 (0x2)
        Serial Number: 3 (0x3)
        Signature Algorithm: sha1WithRSAEncryption
        Issuer: CN=hx509 Test Root CA, C=SE
        Validity
            Not Before: Nov 15 06:58:56 2007 GMT
            Not After : Nov 12 06:58:56 2017 GMT
        Subject: C=SE, CN=Revoke cert
        Subject Public Key Info:
            Public Key Algorithm: rsaEncryption
            RSA Public Key: (1024 bit)
                Modulus (1024 bit):
                    00:b3:24:de:14:fc:b6:80:e2:34:59:81:1f:ec:cb:
                    00:21:75:e5:34:88:09:5e:5e:8e:f8:91:6b:ab:09:
                    34:f8:6c:69:14:00:c5:47:f2:d7:de:a0:32:00:02:
                    63:79:3c:14:1a:a9:4d:d1:1d:c0:fc:a7:50:72:26:
                    96:53:d1:9f:a9:5f:f4:82:4d:4b:17:3b:fe:14:60:
                    42:94:22:93:3e:c5:14:97:c8:a3:6a:8e:bd:90:03:
                    22:12:9e:41:ca:a5:de:4f:57:f4:bf:f1:9e:f8:63:
                    4f:c0:9e:c8:3c:e1:8b:89:60:3a:2b:5c:a7:b7:6e:
                    a0:48:34:49:58:61:a0:34:6d
                Exponent: 65537 (0x10001)
        X509v3 extensions:
            X509v3 Basic Constraints: 
                CA:FALSE
            X509v3 Key Usage: 
                Digital Signature, Non Repudiation, Key Encipherment
            X509v3 Subject Key Identifier: 
                F3:E2:96:20:28:53:21:92:67:A8:5C:B5:2C:7E:87:CF:7A:07:3D:84
    Signature Algorithm: sha1WithRSAEncryption
        90:39:f3:a6:fe:92:b9:92:4c:75:58:b2:51:36:11:07:f5:a2:
        71:dc:90:d7:2b:b5:bc:37:c8:30:4f:a4:6b:41:11:63:3e:53:
        42:ae:6f:59:7d:f8:b0:59:01:2f:50:4f:2d:21:7e:6a:58:bd:
        74:f1:69:c5:62:3d:8f:fa:1a:c8:7e:a4:30:dc:01:8b:c9:f8:
        77:44:5c:d3:a4:ab:9a:50:cc:45:d0:65:00:5c:fe:d3:b5:a3:
        7a:f1:b1:5c:25:0f:06:16:5f:cf:e2:5d:0b:87:c0:fe:14:b8:
        0a:10:17:55:34:15:4d:44:6b:60:80:6e:af:7b:81:30:47:5c:
        f3:fe
-----BEGIN CERTIFICATE-----
MIIB/DCCAWWgAwIBAgIBAzANBgkqhkiG9w0BAQUFADAqMRswGQYDVQQDDBJoeDUw
OSBUZXN0IFJvb3QgQ0ExCzAJBgNVBAYTAlNFMB4XDTA3MTExNTA2NTg1NloXDTE3
MTExMjA2NTg1NlowIzELMAkGA1UEBhMCU0UxFDASBgNVBAMMC1Jldm9rZSBjZXJ0
MIGfMA0GCSqGSIb3DQEBAQUAA4GNADCBiQKBgQCzJN4U/LaA4jRZgR/sywAhdeU0
iAleXo74kWurCTT4bGkUAMVH8tfeoDIAAmN5PBQaqU3RHcD8p1ByJpZT0Z+pX/SC
TUsXO/4UYEKUIpM+xRSXyKNqjr2QAyISnkHKpd5PV/S/8Z74Y0/Ansg84YuJYDor
XKe3bqBINElYYaA0bQIDAQABozkwNzAJBgNVHRMEAjAAMAsGA1UdDwQEAwIF4DAd
BgNVHQ4EFgQU8+KWIChTIZJnqFy1LH6Hz3oHPYQwDQYJKoZIhvcNAQEFBQADgYEA
kDnzpv6SuZJMdViyUTYRB/WicdyQ1yu1vDfIME+ka0ERYz5TQq5vWX34sFkBL1BP
LSF+ali9dPFpxWI9j/oayH6kMNwBi8n4d0Rc06SrmlDMRdBlAFz+07WjevGxXCUP
BhZfz+JdC4fA/hS4ChAXVTQVTURrYIBur3uBMEdc8/4=
-----END CERTIFICATE-----
