Certificate:
    Data:
        Version: 3 (0x2)
        Serial Number: 7 (0x7)
        Signature Algorithm: sha1WithRSAEncryption
        Issuer: CN=hx509 Test Root CA, C=SE
        Validity
            Not Before: Nov 15 06:58:58 2007 GMT
            Not After : Nov 12 06:58:58 2017 GMT
        Subject: C=SE, CN=kdc
        Subject Public Key Info:
            Public Key Algorithm: rsaEncryption
            RSA Public Key: (1024 bit)
                Modulus (1024 bit):
                    00:bb:fa:14:24:35:9f:cb:82:91:20:b9:44:ec:4d:
                    f8:e4:1b:68:3f:6a:4d:d1:56:3e:28:25:6e:ab:aa:
                    8b:6b:9c:59:ce:67:cc:27:61:4f:ff:18:a5:56:81:
                    a1:94:c4:33:f9:20:54:e5:1f:5a:47:43:ee:8f:52:
                    8a:9f:97:6b:73:92:a3:e1:fd:9e:0b:04:36:2b:b2:
                    72:bd:80:ff:ae:5a:e1:9b:bb:d8:77:c8:fe:f8:3b:
                    3f:b9:51:56:6e:97:c2:2a:76:ea:56:d8:46:67:45:
                    33:6f:b1:74:cf:2b:dd:11:32:1f:d7:a9:e9:2a:e2:
                    0f:a8:dd:b1:94:85:87:dd:b5
                Exponent: 65537 (0x10001)
        X509v3 extensions:
            X509v3 Basic Constraints: 
                CA:FALSE
            X509v3 Key Usage: 
                Digital Signature, Non Repudiation, Key Encipherment
            X509v3 Extended Key Usage: 
                pkkdcekuoid
            X509v3 Subject Key Identifier: 
                51:75:26:1A:E0:16:0F:69:A8:B4:98:80:EB:C8:49:A6:D0:C6:24:C1
            X509v3 Subject Alternative Name: 
                othername:<unsupported>
    Signature Algorithm: sha1WithRSAEncryption
        7a:f7:7c:cf:2d:87:aa:93:49:b1:05:2a:ea:ee:75:97:22:02:
        5a:a1:2c:e3:e1:9d:be:48:0c:75:26:e0:84:f0:2a:90:5a:15:
        dd:7c:58:65:ab:79:05:85:40:54:35:e1:57:58:96:aa:32:68:
        f2:bd:cc:b5:9a:1c:f5:d7:49:01:44:ce:fc:22:55:3c:86:d6:
        c2:ed:46:e6:dc:a7:c5:48:3f:ac:0c:10:ba:b9:e2:e8:78:37:
        79:f7:d5:da:c0:8e:74:09:64:ff:bb:36:24:d4:c7:4d:c3:93:
        c2:d7:3a:32:97:b9:e1:79:ea:82:3a:42:69:ec:e4:ec:48:d5:
        3f:90
-----BEGIN CERTIFICATE-----
MIICVDCCAb2gAwIBAgIBBzANBgkqhkiG9w0BAQUFADAqMRswGQYDVQQDDBJoeDUw
OSBUZXN0IFJvb3QgQ0ExCzAJBgNVBAYTAlNFMB4XDTA3MTExNTA2NTg1OFoXDTE3
MTExMjA2NTg1OFowGzELMAkGA1UEBhMCU0UxDDAKBgNVBAMMA2tkYzCBnzANBgkq
hkiG9w0BAQEFAAOBjQAwgYkCgYEAu/oUJDWfy4KRILlE7E345BtoP2pN0VY+KCVu
q6qLa5xZzmfMJ2FP/xilVoGhlMQz+SBU5R9aR0Puj1KKn5drc5Kj4f2eCwQ2K7Jy
vYD/rlrhm7vYd8j++Ds/uVFWbpfCKnbqVthGZ0Uzb7F0zyvdETIf16npKuIPqN2x
lIWH3bUCAwEAAaOBmDCBlTAJBgNVHRMEAjAAMAsGA1UdDwQEAwIF4DASBgNVHSUE
CzAJBgcrBgEFAgMFMB0GA1UdDgQWBBRRdSYa4BYPaai0mIDryEmm0MYkwTBIBgNV
HREEQTA/oD0GBisGAQUCAqAzMDGgDRsLVEVTVC5INUwuU0WhIDAeoAMCAQGhFzAV
GwZrcmJ0Z3QbC1RFU1QuSDVMLlNFMA0GCSqGSIb3DQEBBQUAA4GBAHr3fM8th6qT
SbEFKurudZciAlqhLOPhnb5IDHUm4ITwKpBaFd18WGWreQWFQFQ14VdYlqoyaPK9
zLWaHPXXSQFEzvwiVTyG1sLtRubcp8VIP6wMELq54uh4N3n31drAjnQJZP+7NiTU
x03Dk8LXOjKXueF56oI6Qmns5OxI1T+Q
-----END CERTIFICATE-----
