Certificate:
    Data:
        Version: 3 (0x2)
        Serial Number: 6 (0x6)
        Signature Algorithm: sha1WithRSAEncryption
        Issuer: CN=hx509 Test Root CA, C=SE
        Validity
            Not Before: Nov 15 06:58:57 2007 GMT
            Not After : Nov 12 06:58:57 2017 GMT
        Subject: C=SE, CN=pkinit
        Subject Public Key Info:
            Public Key Algorithm: rsaEncryption
            RSA Public Key: (1024 bit)
                Modulus (1024 bit):
                    00:a3:44:b1:8a:42:9d:d0:3f:30:de:e8:66:42:c1:
                    f1:c9:98:8f:d2:bd:eb:59:67:3d:5e:0e:35:ca:3b:
                    b8:91:b0:fc:e5:22:3a:2d:62:81:56:bb:51:77:60:
                    ac:83:43:75:87:ce:f1:f6:bd:ab:f2:07:c5:8d:d5:
                    b8:56:9e:8e:45:93:bd:c6:ac:5d:20:3e:cb:14:e8:
                    10:07:b9:5e:07:ac:56:13:48:1b:84:c7:30:62:f4:
                    e4:19:67:b5:1b:3a:ac:af:0b:92:e2:00:90:2f:81:
                    75:b6:63:3f:43:a5:e9:76:ee:33:75:74:b2:76:5d:
                    a5:76:f2:f9:30:68:ec:e8:47
                Exponent: 65537 (0x10001)
        X509v3 extensions:
            X509v3 Basic Constraints: 
                CA:FALSE
            X509v3 Key Usage: 
                Digital Signature, Non Repudiation, Key Encipherment
            X509v3 Subject Key Identifier: 
                66:BB:EC:4F:F0:52:7E:D1:F4:F4:F9:CD:E9:B6:C7:C4:FC:2A:2F:4F
            X509v3 Subject Alternative Name: 
                othername:<unsupported>
    Signature Algorithm: sha1WithRSAEncryption
        1f:bd:87:72:d7:85:93:f9:96:97:6f:25:2f:89:1f:09:64:ff:
        da:44:92:d0:59:6e:4f:cf:29:d7:5a:78:64:40:1c:3d:a5:80:
        e9:b9:92:85:44:2e:25:ab:5c:8d:35:4b:5b:47:c6:79:61:cf:
        b9:75:55:0b:20:6a:ad:ec:f5:0f:47:1e:e7:72:b0:b6:61:0f:
        d6:84:e3:e4:29:05:4d:d1:7c:7b:a6:7b:6f:b2:af:9a:6b:dd:
        81:ae:5d:c1:7b:74:11:86:18:2e:38:eb:ed:33:03:f6:05:4b:
        ec:d7:7d:53:6c:71:01:86:fb:fb:63:dd:5b:cb:10:85:96:f2:
        43:43
-----BEGIN CERTIFICATE-----
MIICMTCCAZqgAwIBAgIBBjANBgkqhkiG9w0BAQUFADAqMRswGQYDVQQDDBJoeDUw
OSBUZXN0IFJvb3QgQ0ExCzAJBgNVBAYTAlNFMB4XDTA3MTExNTA2NTg1N1oXDTE3
MTExMjA2NTg1N1owHjELMAkGA1UEBhMCU0UxDzANBgNVBAMMBnBraW5pdDCBnzAN
BgkqhkiG9w0BAQEFAAOBjQAwgYkCgYEAo0SxikKd0D8w3uhmQsHxyZiP0r3rWWc9
Xg41yju4kbD85SI6LWKBVrtRd2Csg0N1h87x9r2r8gfFjdW4Vp6ORZO9xqxdID7L
FOgQB7leB6xWE0gbhMcwYvTkGWe1GzqsrwuS4gCQL4F1tmM/Q6Xpdu4zdXSydl2l
dvL5MGjs6EcCAwEAAaNzMHEwCQYDVR0TBAIwADALBgNVHQ8EBAMCBeAwHQYDVR0O
BBYEFGa77E/wUn7R9PT5zem2x8T8Ki9PMDgGA1UdEQQxMC+gLQYGKwYBBQICoCMw
IaANGwtURVNULkg1TC5TRaEQMA6gAwIBAaEHMAUbA2JhcjANBgkqhkiG9w0BAQUF
AAOBgQAfvYdy14WT+ZaXbyUviR8JZP/aRJLQWW5PzynXWnhkQBw9pYDpuZKFRC4l
q1yNNUtbR8Z5Yc+5dVULIGqt7PUPRx7ncrC2YQ/WhOPkKQVN0Xx7pntvsq+aa92B
rl3Be3QRhhguOOvtMwP2BUvs131TbHEBhvv7Y91byxCFlvJDQw==
-----END CERTIFICATE-----
