Certificate:
    Data:
        Version: 3 (0x2)
        Serial Number: 6 (0x6)
        Signature Algorithm: sha1WithRSAEncryption
        Issuer: CN=hx509 Test Root CA, C=SE
        Validity
            Not Before: Apr 26 20:29:40 2009 GMT
            Not After : Apr 24 20:29:40 2019 GMT
        Subject: C=SE, CN=pkinit
        Subject Public Key Info:
            Public Key Algorithm: rsaEncryption
                Public-Key: (1024 bit)
                Modulus:
                    00:b2:47:42:dc:46:f8:94:e3:66:2b:f9:26:14:56:
                    41:68:e1:7a:04:cd:55:45:ae:e0:a8:48:80:33:58:
                    fc:86:4f:e8:67:62:89:f7:d4:ba:d1:bb:9a:6a:83:
                    1b:4e:01:b5:7c:9e:b2:d2:bf:84:21:98:58:1d:b6:
                    4d:fa:af:f2:e5:e8:d4:d6:78:a3:06:da:69:15:09:
                    d8:fa:07:09:97:cf:1a:3b:2c:69:b2:58:a2:0b:48:
                    4e:37:11:2c:f5:7a:8f:50:e4:40:14:29:28:30:ac:
                    0b:b5:0a:1e:60:b4:9a:d4:8d:bc:38:c9:2f:a9:d1:
                    35:e7:c9:d4:18:66:1c:15:2d
                Exponent: 65537 (0x10001)
        X509v3 extensions:
            X509v3 Basic Constraints: 
                CA:FALSE
            X509v3 Key Usage: 
                Digital Signature, Non Repudiation, Key Encipherment
            X509v3 Subject Key Identifier: 
                E8:3F:1A:8B:C2:8A:9C:F9:B4:4F:95:D9:55:29:0C:A5:0B:0E:13:C6
            X509v3 Subject Alternative Name: 
                othername:<unsupported>
    Signature Algorithm: sha1WithRSAEncryption
        b5:ab:c2:d5:f8:30:fc:bb:b3:53:c2:42:a0:f1:4d:a0:5c:92:
        1a:c7:dc:01:df:42:6a:d2:c8:79:18:ae:a7:09:8e:ea:1c:97:
        80:93:b1:e3:23:4d:ca:15:f5:f8:c2:d0:38:5d:0d:76:7b:41:
        47:f1:a4:77:26:86:2c:69:2a:5c:86:32:00:09:da:04:3c:d6:
        30:9d:a3:0a:e2:b1:a6:36:2f:ff:3c:80:d6:e7:2a:8b:49:dd:
        d8:24:98:7a:15:0a:29:f0:4b:30:ae:73:b5:af:70:7a:3a:b0:
        40:27:a7:4e:74:8c:46:1e:2f:bb:cc:57:63:30:bf:b1:38:81:
        10:bd
-----BEGIN CERTIFICATE-----
MIICMTCCAZqgAwIBAgIBBjANBgkqhkiG9w0BAQUFADAqMRswGQYDVQQDDBJoeDUw
OSBUZXN0IFJvb3QgQ0ExCzAJBgNVBAYTAlNFMB4XDTA5MDQyNjIwMjk0MFoXDTE5
MDQyNDIwMjk0MFowHjELMAkGA1UEBhMCU0UxDzANBgNVBAMMBnBraW5pdDCBnzAN
BgkqhkiG9w0BAQEFAAOBjQAwgYkCgYEAskdC3Eb4lONmK/kmFFZBaOF6BM1VRa7g
qEiAM1j8hk/oZ2KJ99S60buaaoMbTgG1fJ6y0r+EIZhYHbZN+q/y5ejU1nijBtpp
FQnY+gcJl88aOyxpsliiC0hONxEs9XqPUORAFCkoMKwLtQoeYLSa1I28OMkvqdE1
58nUGGYcFS0CAwEAAaNzMHEwCQYDVR0TBAIwADALBgNVHQ8EBAMCBeAwHQYDVR0O
BBYEFOg/GovCipz5tE+V2VUpDKULDhPGMDgGA1UdEQQxMC+gLQYGKwYBBQICoCMw
IaANGwtURVNULkg1TC5TRaEQMA6gAwIBAaEHMAUbA2JhcjANBgkqhkiG9w0BAQUF
AAOBgQC1q8LV+DD8u7NTwkKg8U2gXJIax9wB30Jq0sh5GK6nCY7qHJeAk7HjI03K
FfX4wtA4XQ12e0FH8aR3JoYsaSpchjIACdoEPNYwnaMK4rGmNi//PIDW5yqLSd3Y
JJh6FQop8EswrnO1r3B6OrBAJ6dOdIxGHi+7zFdjML+xOIEQvQ==
-----END CERTIFICATE-----
