Certificate:
    Data:
        Version: 3 (0x2)
        Serial Number: 10 (0xa)
        Signature Algorithm: sha1WithRSAEncryption
        Issuer: CN=hx509 Test Root CA, C=SE
        Validity
            Not Before: Apr 26 20:29:41 2009 GMT
            Not After : Apr 24 20:29:41 2019 GMT
        Subject: C=SE, CN=Sub CA
        Subject Public Key Info:
            Public Key Algorithm: rsaEncryption
                Public-Key: (1024 bit)
                Modulus:
                    00:bd:3d:63:78:3e:31:85:d9:1d:b7:f8:04:02:58:
                    53:12:de:1a:c6:95:9b:51:29:7b:c7:62:76:b9:a6:
                    63:56:3d:47:c8:2f:bb:6b:9b:7d:d8:f1:a9:3c:0b:
                    61:66:fd:d1:e7:d7:6d:74:a0:30:9c:a0:7d:80:41:
                    04:1a:86:61:b4:12:79:9d:9d:b0:3b:fb:0a:4c:69:
                    8f:06:33:07:85:0e:73:cd:01:fa:96:f9:6b:20:18:
                    d8:b1:06:03:21:b3:71:7a:ed:43:fd:29:d5:23:fa:
                    cc:cf:43:fc:83:4a:cb:8b:e6:98:db:b3:49:f1:ba:
                    2a:97:72:b7:44:83:d6:e7:5f
                Exponent: 65537 (0x10001)
        X509v3 extensions:
            X509v3 Subject Key Identifier: 
                9B:B5:FE:90:D3:72:49:B1:98:9A:67:76:A3:C9:22:15:F1:5A:AE:11
            X509v3 Authority Key Identifier: 
                keyid:6E:48:13:DC:BF:8B:95:4C:13:F3:1F:97:30:DD:27:96:59:9B:0E:68
                DirName:/CN=hx509 Test Root CA/C=SE
                serial:99:32:DE:61:0E:40:19:8A

            X509v3 Basic Constraints: 
                CA:TRUE
            X509v3 Key Usage: 
                Digital Signature, Non Repudiation, Key Encipherment, Certificate Sign, CRL Sign
    Signature Algorithm: sha1WithRSAEncryption
        25:cb:bf:77:d2:16:0f:a5:ac:4e:42:17:e1:81:03:36:1e:dc:
        33:1a:49:ba:1f:40:5b:5b:80:9c:20:b7:13:3b:f4:4f:79:c1:
        b4:6e:14:d5:fd:84:59:58:d5:db:a6:6d:5b:6f:e6:d0:58:d6:
        8e:41:2c:ef:e9:c8:b7:ca:6f:cb:11:6e:13:45:f7:73:6e:91:
        71:22:14:18:b9:b4:ad:3b:c4:e9:6f:99:6d:59:59:52:6f:c8:
        65:67:f1:e4:d9:6f:0b:a3:3c:9f:ac:01:b7:1a:9b:97:74:92:
        7b:ea:05:a0:5d:09:77:fb:79:17:c2:35:2f:f9:09:fc:10:b3:
        e0:3e
-----BEGIN CERTIFICATE-----
MIICWDCCAcGgAwIBAgIBCjANBgkqhkiG9w0BAQUFADAqMRswGQYDVQQDDBJoeDUw
OSBUZXN0IFJvb3QgQ0ExCzAJBgNVBAYTAlNFMB4XDTA5MDQyNjIwMjk0MVoXDTE5
MDQyNDIwMjk0MVowHjELMAkGA1UEBhMCU0UxDzANBgNVBAMMBlN1YiBDQTCBnzAN
BgkqhkiG9w0BAQEFAAOBjQAwgYkCgYEAvT1jeD4xhdkdt/gEAlhTEt4axpWbUSl7
x2J2uaZjVj1HyC+7a5t92PGpPAthZv3R59dtdKAwnKB9gEEEGoZhtBJ5nZ2wO/sK
TGmPBjMHhQ5zzQH6lvlrIBjYsQYDIbNxeu1D/SnVI/rMz0P8g0rLi+aY27NJ8boq
l3K3RIPW518CAwEAAaOBmTCBljAdBgNVHQ4EFgQUm7X+kNNySbGYmmd2o8kiFfFa
rhEwWgYDVR0jBFMwUYAUbkgT3L+LlUwT8x+XMN0nllmbDmihLqQsMCoxGzAZBgNV
BAMMEmh4NTA5IFRlc3QgUm9vdCBDQTELMAkGA1UEBhMCU0WCCQCZMt5hDkAZijAM
BgNVHRMEBTADAQH/MAsGA1UdDwQEAwIB5jANBgkqhkiG9w0BAQUFAAOBgQAly793
0hYPpaxOQhfhgQM2HtwzGkm6H0BbW4CcILcTO/RPecG0bhTV/YRZWNXbpm1bb+bQ
WNaOQSzv6ci3ym/LEW4TRfdzbpFxIhQYubStO8Tpb5ltWVlSb8hlZ/Hk2W8Lozyf
rAG3GpuXdJJ76gWgXQl3+3kXwjUv+Qn8ELPgPg==
-----END CERTIFICATE-----
