Certificate:
    Data:
        Version: 3 (0x2)
        Serial Number: 15624081837803162903 (0xd8d3e3a6cbe3cd17)
    Signature Algorithm: sha256WithRSAEncryption
        Issuer: C=FI, O=w1.fi, CN=Root CA
        Validity
            Not Before: Oct  3 22:13:55 2018 GMT
            Not After : Oct  3 22:13:55 2019 GMT
        Subject: C=FI, O=w1.fi, CN=server.w1.fi
        Subject Public Key Info:
            Public Key Algorithm: rsaEncryption
                Public-Key: (1024 bit)
                Modulus:
                    00:ba:a0:77:55:22:14:85:55:65:9b:64:2c:ad:ed:
                    9b:dd:65:31:c9:da:60:50:ce:38:d6:34:dc:e8:bc:
                    1b:9e:30:e7:12:e3:53:6c:c9:ed:48:03:79:81:69:
                    98:ce:8a:b8:77:47:36:45:cf:c6:e0:f1:7b:1e:71:
                    89:54:f7:01:cc:22:ad:a0:42:b1:a8:35:9e:60:aa:
                    3a:98:51:d0:ff:1f:ee:be:8d:0a:63:fb:a2:39:17:
                    f2:64:61:f6:65:02:32:79:74:e1:9f:d1:89:65:55:
                    a9:c3:20:9e:bf:69:56:b3:f7:4f:3f:a9:54:c2:da:
                    8f:3c:af:f2:75:54:fa:7e:81
                Exponent: 65537 (0x10001)
        X509v3 extensions:
            X509v3 Basic Constraints: 
                CA:FALSE
            X509v3 Subject Key Identifier: 
                31:4F:10:5C:67:9F:BE:4E:88:D6:DC:C5:AB:9E:12:88:86:69:02:4F
            X509v3 Authority Key Identifier: 
                keyid:B8:92:DE:FD:8A:18:B3:30:C3:9F:55:F3:33:5D:B4:C8:29:8A:41:14

            Authority Information Access: 
                OCSP - URI:http://server.w1.fi:8888/

            X509v3 Subject Alternative Name: 
                DNS:server.w1.fi
            X509v3 Extended Key Usage: 
                TLS Web Server Authentication
    Signature Algorithm: sha256WithRSAEncryption
         b6:98:ae:d9:9b:9a:44:49:b2:06:ee:af:36:83:cb:cd:cb:c9:
         f3:38:6d:65:cb:e9:81:d2:25:dd:76:12:5c:da:3f:a1:0e:11:
         a5:04:ed:05:29:2d:66:94:82:a2:80:67:d1:d8:78:71:72:5f:
         10:c3:51:a2:7b:f5:0b:5f:ec:70:12:99:cb:65:6f:50:7f:2b:
         05:7c:b4:d7:1b:21:77:66:47:33:f3:a7:d6:fb:ce:97:fe:5f:
         fd:df:1f:1d:6f:ef:22:5a:c6:78:d2:2b:07:1e:55:ec:80:62:
         06:7a:be:6a:0d:4d:96:c2:d5:df:76:56:b0:85:6a:f8:a0:27:
         62:31
-----BEGIN CERTIFICATE-----
MIIClTCCAf6gAwIBAgIJANjT46bL480XMA0GCSqGSIb3DQEBCwUAMC8xCzAJBgNV
BAYTAkZJMQ4wDAYDVQQKDAV3MS5maTEQMA4GA1UEAwwHUm9vdCBDQTAeFw0xODEw
MDMyMjEzNTVaFw0xOTEwMDMyMjEzNTVaMDQxCzAJBgNVBAYTAkZJMQ4wDAYDVQQK
DAV3MS5maTEVMBMGA1UEAwwMc2VydmVyLncxLmZpMIGfMA0GCSqGSIb3DQEBAQUA
A4GNADCBiQKBgQC6oHdVIhSFVWWbZCyt7ZvdZTHJ2mBQzjjWNNzovBueMOcS41Ns
ye1IA3mBaZjOirh3RzZFz8bg8XsecYlU9wHMIq2gQrGoNZ5gqjqYUdD/H+6+jQpj
+6I5F/JkYfZlAjJ5dOGf0YllVanDIJ6/aVaz908/qVTC2o88r/J1VPp+gQIDAQAB
o4GzMIGwMAkGA1UdEwQCMAAwHQYDVR0OBBYEFDFPEFxnn75OiNbcxaueEoiGaQJP
MB8GA1UdIwQYMBaAFLiS3v2KGLMww59V8zNdtMgpikEUMDUGCCsGAQUFBwEBBCkw
JzAlBggrBgEFBQcwAYYZaHR0cDovL3NlcnZlci53MS5maTo4ODg4LzAXBgNVHREE
EDAOggxzZXJ2ZXIudzEuZmkwEwYDVR0lBAwwCgYIKwYBBQUHAwEwDQYJKoZIhvcN
AQELBQADgYEAtpiu2ZuaREmyBu6vNoPLzcvJ8zhtZcvpgdIl3XYSXNo/oQ4RpQTt
BSktZpSCooBn0dh4cXJfEMNRonv1C1/scBKZy2VvUH8rBXy01xshd2ZHM/On1vvO
l/5f/d8fHW/vIlrGeNIrBx5V7IBiBnq+ag1NlsLV33ZWsIVq+KAnYjE=
-----END CERTIFICATE-----
